EXPORTS
 "_APackOfTheClones_calculate_transformation_vectors"
 "_APackOfTheClones_cpp_circle_layout"
 "_APackOfTheClones_do_cluster_intersect"
 "_APackOfTheClones_get_average_vector"
 "_APackOfTheClones_get_component_repulsion_vector"
 "_APackOfTheClones_has_repeats"
 "_Z13get_last_callv"
 "_Z14make_conditionRKNSt7__cxx1112basic_stringIcSt11char_traitsIcESaIcEEEP7SEXPRECS8_S8_"
 "_Z19string_to_try_errorRKNSt7__cxx1112basic_stringIcSt11char_traitsIcESaIcEEE"
 "_Z20rcpp_get_stack_tracev"
 "_Z20rcpp_set_stack_traceP7SEXPREC"
 "_Z21get_exception_classesRKNSt7__cxx1112basic_stringIcSt11char_traitsIcESaIcEEE"
 "_Z24exception_to_r_conditionRKSt9exception"
 "_Z29rcpp_exception_to_r_conditionRKN4Rcpp9exceptionE"
 "_Z31exception_to_condition_templateIN4Rcpp9exceptionEEP7SEXPRECRKT_b"
 "_Z31exception_to_condition_templateISt9exceptionEP7SEXPRECRKT_b"
 "_Z7dataptrP7SEXPREC"
 "_Z8demangleRKNSt7__cxx1112basic_stringIcSt11char_traitsIcESaIcEEE"
 "_ZGVZ20rcpp_get_stack_tracevE3fun"
 "_ZGVZ20rcpp_set_stack_traceP7SEXPRECE3fun"
 "_ZGVZ7dataptrP7SEXPRECE3fun"
 "_ZGVZ8demangleRKNSt7__cxx1112basic_stringIcSt11char_traitsIcESaIcEEEE3funB5cxx11"
 "_ZGVZN4Rcpp20Rcpp_precious_removeEP7SEXPRECE3fun"
 "_ZGVZN4Rcpp22Rcpp_precious_preserveEP7SEXPRECE3fun"
 "_ZGVZN4Rcpp8internal12exitRNGScopeEvE3fun"
 "_ZGVZN4Rcpp8internal13enterRNGScopeEvE3fun"
 "_ZN10tinyformat10FormatListC2EPNS_6detail9FormatArgEi"
 "_ZN10tinyformat11formatValueIiEEvRSoPKcS3_iRKT_"
 "_ZN10tinyformat11formatValueIPKcEEvRSoS2_S2_iRKT_"
 "_ZN10tinyformat14makeFormatListIJiEEENS_6detail11FormatListNIXsZT_EEEDpRKT_"
 "_ZN10tinyformat14makeFormatListIJPKcEEENS_6detail11FormatListNIXsZT_EEEDpRKT_"
 "_ZN10tinyformat6detail10formatImplERSoPKcPKNS0_9FormatArgEi"
 "_ZN10tinyformat6detail11FormatListNILi1EEC1IJiEEEDpRKT_"
 "_ZN10tinyformat6detail11FormatListNILi1EEC1IJPKcEEEDpRKT_"
 "_ZN10tinyformat6detail12convertToIntIiLb1EE6invokeERKi"
 "_ZN10tinyformat6detail12convertToIntIPKcLb0EE6invokeERKS3_"
 "_ZN10tinyformat6detail15formatTruncatedERSoPKci"
 "_ZN10tinyformat6detail15formatTruncatedIiEEvRSoRKT_i"
 "_ZN10tinyformat6detail17formatValueAsTypeIicLb1EE6invokeERSoRKi"
 "_ZN10tinyformat6detail17formatValueAsTypeIPKcPKvLb1EE6invokeERSoRKS3_"
 "_ZN10tinyformat6detail18parseIntAndAdvanceERPKc"
 "_ZN10tinyformat6detail21streamStateFromFormatERSoRbRiPKcPKNS0_9FormatArgES3_i"
 "_ZN10tinyformat6detail24printFormatStringLiteralERSoPKc"
 "_ZN10tinyformat6detail9FormatArg10formatImplIiEEvRSoPKcS5_iPKv"
 "_ZN10tinyformat6detail9FormatArg10formatImplIPKcEEvRSoS4_S4_iPKv"
 "_ZN10tinyformat6detail9FormatArg9toIntImplIiEEiPKv"
 "_ZN10tinyformat6detail9FormatArg9toIntImplIPKcEEiPKv"
 "_ZN10tinyformat6detail9FormatArgC1IiEERKT_"
 "_ZN10tinyformat6detail9FormatArgC1IPKcEERKT_"
 "_ZN10tinyformat6formatIJiEEENSt7__cxx1112basic_stringIcSt11char_traitsIcESaIcEEEPKcDpRKT_"
 "_ZN10tinyformat6formatIJiEEEvRSoPKcDpRKT_"
 "_ZN10tinyformat6formatIJPKcEEENSt7__cxx1112basic_stringIcSt11char_traitsIcESaIcEEES2_DpRKT_"
 "_ZN10tinyformat6formatIJPKcEEEvRSoS2_DpRKT_"
 "_ZN10tinyformat7vformatERSoPKcRKNS_10FormatListE"
 "_ZN4Rcpp10RstreambufILb0EE4syncEv"
 "_ZN4Rcpp10RstreambufILb0EE6xsputnEPKcx"
 "_ZN4Rcpp10RstreambufILb0EE8overflowEi"
 "_ZN4Rcpp10RstreambufILb0EEC1Ev"
 "_ZN4Rcpp10RstreambufILb0EED0Ev"
 "_ZN4Rcpp10RstreambufILb0EED1Ev"
 "_ZN4Rcpp10RstreambufILb1EE4syncEv"
 "_ZN4Rcpp10RstreambufILb1EE6xsputnEPKcx"
 "_ZN4Rcpp10RstreambufILb1EE8overflowEi"
 "_ZN4Rcpp10RstreambufILb1EEC1Ev"
 "_ZN4Rcpp10RstreambufILb1EED0Ev"
 "_ZN4Rcpp10RstreambufILb1EED1Ev"
 "_ZN4Rcpp12Rcpp_protectEP7SEXPREC"
 "_ZN4Rcpp12RObject_ImplINS_15PreserveStorageEE6updateEP7SEXPREC"
 "_ZN4Rcpp12RObject_ImplINS_15PreserveStorageEEaSIP7SEXPRECEERS2_RKT_"
 "_ZN4Rcpp12RObject_ImplINS_15PreserveStorageEEC1Ev"
 "_ZN4Rcpp12RObject_ImplINS_15PreserveStorageEED1Ev"
 "_ZN4Rcpp13unwindProtectEPFP7SEXPRECPvES2_"
 "_ZN4Rcpp14InputParameterIbEC1EP7SEXPREC"
 "_ZN4Rcpp14InputParameterIbEcvbEv"
 "_ZN4Rcpp14InputParameterIdEC1EP7SEXPREC"
 "_ZN4Rcpp14InputParameterIdEcvdEv"
 "_ZN4Rcpp14InputParameterIiEC1EP7SEXPREC"
 "_ZN4Rcpp14InputParameterIiEcviEv"
 "_ZN4Rcpp14InputParameterINS_6VectorILi14ENS_15PreserveStorageEEEEC1EP7SEXPREC"
 "_ZN4Rcpp14InputParameterINS_6VectorILi14ENS_15PreserveStorageEEEEcvS3_Ev"
 "_ZN4Rcpp14InputParameterINS_6VectorILi19ENS_15PreserveStorageEEEEC1EP7SEXPREC"
 "_ZN4Rcpp14InputParameterINS_6VectorILi19ENS_15PreserveStorageEEEEcvS3_Ev"
 "_ZN4Rcpp14InputParameterISt6vectorIdSaIdEEEC1EP7SEXPREC"
 "_ZN4Rcpp14InputParameterISt6vectorIdSaIdEEEcvS3_Ev"
 "_ZN4Rcpp14not_compatibleC1IJiEEEPKcDpOT_"
 "_ZN4Rcpp14not_compatibleC1IJRKPKcEEES3_DpOT_"
 "_ZN4Rcpp14not_compatibleD0Ev"
 "_ZN4Rcpp14not_compatibleD1Ev"
 "_ZN4Rcpp14Rcpp_fast_evalEP7SEXPRECS1_"
 "_ZN4Rcpp14Rcpp_unprotectEi"
 "_ZN4Rcpp15PreserveStorageINS_12RObject_ImplIS0_EEE5set__EP7SEXPREC"
 "_ZN4Rcpp15PreserveStorageINS_12RObject_ImplIS0_EEEC2Ev"
 "_ZN4Rcpp15PreserveStorageINS_12RObject_ImplIS0_EEED2Ev"
 "_ZN4Rcpp15PreserveStorageINS_6VectorILi14ES0_EEE5set__EP7SEXPREC"
 "_ZN4Rcpp15PreserveStorageINS_6VectorILi14ES0_EEE6copy__IS2_EERT_RKS5_"
 "_ZN4Rcpp15PreserveStorageINS_6VectorILi14ES0_EEEC2Ev"
 "_ZN4Rcpp15PreserveStorageINS_6VectorILi14ES0_EEED2Ev"
 "_ZN4Rcpp15PreserveStorageINS_6VectorILi16ES0_EEE5set__EP7SEXPREC"
 "_ZN4Rcpp15PreserveStorageINS_6VectorILi16ES0_EEEC2Ev"
 "_ZN4Rcpp15PreserveStorageINS_6VectorILi16ES0_EEED2Ev"
 "_ZN4Rcpp15PreserveStorageINS_6VectorILi19ES0_EEE5set__EP7SEXPREC"
 "_ZN4Rcpp15PreserveStorageINS_6VectorILi19ES0_EEE6copy__IS2_EERT_RKS5_"
 "_ZN4Rcpp15PreserveStorageINS_6VectorILi19ES0_EEEC2Ev"
 "_ZN4Rcpp15PreserveStorageINS_6VectorILi19ES0_EEED2Ev"
 "_ZN4Rcpp16wrap_extra_stepsIdEEP7SEXPRECS2_"
 "_ZN4Rcpp17LongjumpExceptionC1EP7SEXPREC"
 "_ZN4Rcpp19ConstInputParameterINS_6VectorILi14ENS_15PreserveStorageEEEEC1EP7SEXPREC"
 "_ZN4Rcpp19ConstInputParameterINS_6VectorILi14ENS_15PreserveStorageEEEEcvKS3_Ev"
 "_ZN4Rcpp19ConstInputParameterINS_6VectorILi14ENS_15PreserveStorageEEEED1Ev"
 "_ZN4Rcpp20AttributeProxyPolicyINS_6VectorILi19ENS_15PreserveStorageEEEE14AttributeProxy3setEP7SEXPREC"
 "_ZN4Rcpp20AttributeProxyPolicyINS_6VectorILi19ENS_15PreserveStorageEEEE14AttributeProxyaSIA17_cEERS5_RKT_"
 "_ZN4Rcpp20AttributeProxyPolicyINS_6VectorILi19ENS_15PreserveStorageEEEE14AttributeProxyaSINS_6ShieldIP7SEXPRECEEEERS5_RKT_"
 "_ZN4Rcpp20AttributeProxyPolicyINS_6VectorILi19ENS_15PreserveStorageEEEE14AttributeProxyC1ERS3_RKNSt7__cxx1112basic_stringIcSt11char_traitsIcESaIcEEE"
 "_ZN4Rcpp20AttributeProxyPolicyINS_6VectorILi19ENS_15PreserveStorageEEEE4attrERKNSt7__cxx1112basic_stringIcSt11char_traitsIcESaIcEEE"
 "_ZN4Rcpp20Rcpp_precious_removeEP7SEXPREC"
 "_ZN4Rcpp20Rcpp_PreciousReleaseEP7SEXPREC"
 "_ZN4Rcpp21Rcpp_PreciousPreserveEP7SEXPREC"
 "_ZN4Rcpp22Rcpp_precious_preserveEP7SEXPREC"
 "_ZN4Rcpp2asIbEET_P7SEXPREC"
 "_ZN4Rcpp2asIdEET_P7SEXPREC"
 "_ZN4Rcpp2asIiEET_P7SEXPREC"
 "_ZN4Rcpp2asINS_6VectorILi14ENS_15PreserveStorageEEEEET_P7SEXPREC"
 "_ZN4Rcpp2asINS_6VectorILi19ENS_15PreserveStorageEEEEET_P7SEXPREC"
 "_ZN4Rcpp2asISt6vectorIdSaIdEEEET_P7SEXPREC"
 "_ZN4Rcpp4stopERKNSt7__cxx1112basic_stringIcSt11char_traitsIcESaIcEEE"
 "_ZN4Rcpp4wrapEPKc"
 "_ZN4Rcpp4wrapIbEEP7SEXPRECRKT_"
 "_ZN4Rcpp4wrapIiEEP7SEXPRECRKT_"
 "_ZN4Rcpp4wrapINS_6ShieldIP7SEXPRECEEEES3_RKT_"
 "_ZN4Rcpp4wrapINS_6VectorILi16ENS_15PreserveStorageEEEEEP7SEXPRECRKT_"
 "_ZN4Rcpp4wrapINS_6VectorILi19ENS_15PreserveStorageEEEEEP7SEXPRECRKT_"
 "_ZN4Rcpp4wrapIP7SEXPRECEES2_RKT_"
 "_ZN4Rcpp4wrapISt6vectorIdSaIdEEEEP7SEXPRECRKT_"
 "_ZN4Rcpp5ArmorIP7SEXPRECE4initES2_"
 "_ZN4Rcpp5ArmorIP7SEXPRECEaSIS2_EERS3_RKT_"
 "_ZN4Rcpp5ArmorIP7SEXPRECEC1Ev"
 "_ZN4Rcpp5ArmorIP7SEXPRECED1Ev"
 "_ZN4Rcpp6r_castILi10EEEP7SEXPRECS2_"
 "_ZN4Rcpp6r_castILi13EEEP7SEXPRECS2_"
 "_ZN4Rcpp6r_castILi14EEEP7SEXPRECS2_"
 "_ZN4Rcpp6r_castILi19EEEP7SEXPRECS2_"
 "_ZN4Rcpp6ShieldIP7SEXPRECEC1ES2_"
 "_ZN4Rcpp6ShieldIP7SEXPRECED1Ev"
 "_ZN4Rcpp6traits11proxy_cacheILi16ENS_15PreserveStorageEE6updateERKNS_6VectorILi16ES2_EE"
 "_ZN4Rcpp6traits11proxy_cacheILi16ENS_15PreserveStorageEEC1Ev"
 "_ZN4Rcpp6traits11proxy_cacheILi16ENS_15PreserveStorageEED1Ev"
 "_ZN4Rcpp6traits11proxy_cacheILi19ENS_15PreserveStorageEE6updateERKNS_6VectorILi19ES2_EE"
 "_ZN4Rcpp6traits11proxy_cacheILi19ENS_15PreserveStorageEEC1Ev"
 "_ZN4Rcpp6traits11proxy_cacheILi19ENS_15PreserveStorageEED1Ev"
 "_ZN4Rcpp6traits12named_objectIA1_cEC1ERKNSt7__cxx1112basic_stringIcSt11char_traitsIcESaIcEEERA1_Kc"
 "_ZN4Rcpp6traits12named_objectIiEC1ERKNSt7__cxx1112basic_stringIcSt11char_traitsIcESaIcEEERKi"
 "_ZN4Rcpp6traits12named_objectINS_6VectorILi16ENS_15PreserveStorageEEEEC1ERKNSt7__cxx1112basic_stringIcSt11char_traitsIcESaIcEEERKS4_"
 "_ZN4Rcpp6traits14r_vector_cacheILi14ENS_15PreserveStorageEE6updateERKNS_6VectorILi14ES2_EE"
 "_ZN4Rcpp6traits14r_vector_cacheILi14ENS_15PreserveStorageEEC1Ev"
 "_ZN4Rcpp6traits17ContainerExporterISt6vectordE3getEv"
 "_ZN4Rcpp6traits17ContainerExporterISt6vectordEC2EP7SEXPREC"
 "_ZN4Rcpp6traits17ContainerExporterISt6vectordED2Ev"
 "_ZN4Rcpp6traits8ExporterINS_6VectorILi14ENS_15PreserveStorageEEEE3getEv"
 "_ZN4Rcpp6traits8ExporterINS_6VectorILi14ENS_15PreserveStorageEEEEC1EP7SEXPREC"
 "_ZN4Rcpp6traits8ExporterINS_6VectorILi14ENS_15PreserveStorageEEEED1Ev"
 "_ZN4Rcpp6traits8ExporterINS_6VectorILi19ENS_15PreserveStorageEEEE3getEv"
 "_ZN4Rcpp6traits8ExporterINS_6VectorILi19ENS_15PreserveStorageEEEEC1EP7SEXPREC"
 "_ZN4Rcpp6traits8ExporterINS_6VectorILi19ENS_15PreserveStorageEEEED1Ev"
 "_ZN4Rcpp6traits8ExporterISt6vectorIdSaIdEEEC1EP7SEXPREC"
 "_ZN4Rcpp6traits8ExporterISt6vectorIdSaIdEEED1Ev"
 "_ZN4Rcpp6VectorILi14ENS_15PreserveStorageEE6updateEP7SEXPREC"
 "_ZN4Rcpp6VectorILi14ENS_15PreserveStorageEEC1EP7SEXPREC"
 "_ZN4Rcpp6VectorILi14ENS_15PreserveStorageEEC1ERKS2_"
 "_ZN4Rcpp6VectorILi14ENS_15PreserveStorageEED1Ev"
 "_ZN4Rcpp6VectorILi16ENS_15PreserveStorageEE4initEv"
 "_ZN4Rcpp6VectorILi16ENS_15PreserveStorageEE5beginEv"
 "_ZN4Rcpp6VectorILi16ENS_15PreserveStorageEE6updateEP7SEXPREC"
 "_ZN4Rcpp6VectorILi16ENS_15PreserveStorageEEC1IyEET_PNS_6traits9enable_ifIXsrNS5_13is_arithmeticIS4_EE5valueEvE4typeE"
 "_ZN4Rcpp6VectorILi16ENS_15PreserveStorageEED1Ev"
 "_ZN4Rcpp6VectorILi19ENS_15PreserveStorageEE15replace_elementINS_6traits12named_objectIA1_cEEEEvNS_8internal14Proxy_IteratorINS8_13generic_proxyILi19ES1_EEEEP7SEXPRECxRKT_"
 "_ZN4Rcpp6VectorILi19ENS_15PreserveStorageEE15replace_elementINS_6traits12named_objectIiEEEEvNS_8internal14Proxy_IteratorINS7_13generic_proxyILi19ES1_EEEEP7SEXPRECxRKT_"
 "_ZN4Rcpp6VectorILi19ENS_15PreserveStorageEE15replace_elementINS_6traits12named_objectINS0_ILi16ES1_EEEEEEvNS_8internal14Proxy_IteratorINS8_13generic_proxyILi19ES1_EEEEP7SEXPRECxRKT_"
 "_ZN4Rcpp6VectorILi19ENS_15PreserveStorageEE16create__dispatchINS_6traits12named_objectIA1_cEENS5_IiEENS5_INS0_ILi16ES1_EEEEEES2_NS4_17integral_constantIbLb1EEERKT_RKT0_RKT1_"
 "_ZN4Rcpp6VectorILi19ENS_15PreserveStorageEE25replace_element__dispatchINS_6traits12named_objectIA1_cEEEEvNS4_17integral_constantIbLb1EEENS_8internal14Proxy_IteratorINSA_13generic_proxyILi19ES1_EEEEP7SEXPRECxRKT_"
 "_ZN4Rcpp6VectorILi19ENS_15PreserveStorageEE25replace_element__dispatchINS_6traits12named_objectIiEEEEvNS4_17integral_constantIbLb1EEENS_8internal14Proxy_IteratorINS9_13generic_proxyILi19ES1_EEEEP7SEXPRECxRKT_"
 "_ZN4Rcpp6VectorILi19ENS_15PreserveStorageEE25replace_element__dispatchINS_6traits12named_objectINS0_ILi16ES1_EEEEEEvNS4_17integral_constantIbLb1EEENS_8internal14Proxy_IteratorINSA_13generic_proxyILi19ES1_EEEEP7SEXPRECxRKT_"
 "_ZN4Rcpp6VectorILi19ENS_15PreserveStorageEE37replace_element__dispatch__isArgumentINS_6traits12named_objectIA1_cEEEEvNS4_17integral_constantIbLb0EEENS_8internal14Proxy_IteratorINSA_13generic_proxyILi19ES1_EEEEP7SEXPRECxRKT_"
 "_ZN4Rcpp6VectorILi19ENS_15PreserveStorageEE37replace_element__dispatch__isArgumentINS_6traits12named_objectIiEEEEvNS4_17integral_constantIbLb0EEENS_8internal14Proxy_IteratorINS9_13generic_proxyILi19ES1_EEEEP7SEXPRECxRKT_"
 "_ZN4Rcpp6VectorILi19ENS_15PreserveStorageEE37replace_element__dispatch__isArgumentINS_6traits12named_objectINS0_ILi16ES1_EEEEEEvNS4_17integral_constantIbLb0EEENS_8internal14Proxy_IteratorINSA_13generic_proxyILi19ES1_EEEEP7SEXPRECxRKT_"
 "_ZN4Rcpp6VectorILi19ENS_15PreserveStorageEE4initEv"
 "_ZN4Rcpp6VectorILi19ENS_15PreserveStorageEE5beginEv"
 "_ZN4Rcpp6VectorILi19ENS_15PreserveStorageEE6createINS_6traits12named_objectIA1_cEENS5_IiEENS5_INS0_ILi16ES1_EEEEEES2_RKT_RKT0_RKT1_"
 "_ZN4Rcpp6VectorILi19ENS_15PreserveStorageEE6updateEP7SEXPREC"
 "_ZN4Rcpp6VectorILi19ENS_15PreserveStorageEEC1EP7SEXPREC"
 "_ZN4Rcpp6VectorILi19ENS_15PreserveStorageEEC1ERKi"
 "_ZN4Rcpp6VectorILi19ENS_15PreserveStorageEEC1ERKS2_"
 "_ZN4Rcpp6VectorILi19ENS_15PreserveStorageEED1Ev"
 "_ZN4Rcpp7ShelterIP7SEXPRECEC1Ev"
 "_ZN4Rcpp7ShelterIP7SEXPRECEclES2_"
 "_ZN4Rcpp7ShelterIP7SEXPRECED1Ev"
 "_ZN4Rcpp8ArgumentaSIA1_cEENS_6traits12named_objectIT_EERKS5_"
 "_ZN4Rcpp8ArgumentaSIiEENS_6traits12named_objectIT_EERKS4_"
 "_ZN4Rcpp8ArgumentaSINS_6VectorILi16ENS_15PreserveStorageEEEEENS_6traits12named_objectIT_EERKS7_"
 "_ZN4Rcpp8ArgumentC1ERKNSt7__cxx1112basic_stringIcSt11char_traitsIcESaIcEEE"
 "_ZN4Rcpp8ArgumentD1Ev"
 "_ZN4Rcpp8internal10basic_castILi10EEEP7SEXPRECS3_"
 "_ZN4Rcpp8internal10basic_castILi13EEEP7SEXPRECS3_"
 "_ZN4Rcpp8internal10basic_castILi14EEEP7SEXPRECS3_"
 "_ZN4Rcpp8internal10range_wrapIN9__gnu_cxx17__normal_iteratorIPKdSt6vectorIdSaIdEEEEEEP7SEXPRECT_SC_"
 "_ZN4Rcpp8internal10resumeJumpEP7SEXPREC"
 "_ZN4Rcpp8internal11r_true_castILi10EEEP7SEXPRECS3_"
 "_ZN4Rcpp8internal11r_true_castILi13EEEP7SEXPRECS3_"
 "_ZN4Rcpp8internal11r_true_castILi14EEEP7SEXPRECS3_"
 "_ZN4Rcpp8internal11r_true_castILi19EEEP7SEXPRECS3_"
 "_ZN4Rcpp8internal12exitRNGScopeEv"
 "_ZN4Rcpp8internal12export_rangeIN9__gnu_cxx17__normal_iteratorIPdSt6vectorIdSaIdEEEEEEvP7SEXPRECT_"
 "_ZN4Rcpp8internal12primitive_asIbEET_P7SEXPREC"
 "_ZN4Rcpp8internal12primitive_asIdEET_P7SEXPREC"
 "_ZN4Rcpp8internal12primitive_asIiEET_P7SEXPREC"
 "_ZN4Rcpp8internal12string_proxyILi16ENS_15PreserveStorageEE3setEP7SEXPREC"
 "_ZN4Rcpp8internal12string_proxyILi16ENS_15PreserveStorageEE3setINSt7__cxx1112basic_stringIcSt11char_traitsIcESaIcEEEEEvRKT_"
 "_ZN4Rcpp8internal12string_proxyILi16ENS_15PreserveStorageEE4moveEx"
 "_ZN4Rcpp8internal12string_proxyILi16ENS_15PreserveStorageEEaSIcEERS3_RKNSt7__cxx1112basic_stringIT_St11char_traitsIS8_ESaIS8_EEE"
 "_ZN4Rcpp8internal12string_proxyILi16ENS_15PreserveStorageEEC1ERKS3_"
 "_ZN4Rcpp8internal12string_proxyILi16ENS_15PreserveStorageEEC1ERNS_6VectorILi16ES2_EEx"
 "_ZN4Rcpp8internal13enterRNGScopeEv"
 "_ZN4Rcpp8internal13generic_proxyILi19ENS_15PreserveStorageEE3setEP7SEXPREC"
 "_ZN4Rcpp8internal13generic_proxyILi19ENS_15PreserveStorageEE4moveEx"
 "_ZN4Rcpp8internal13generic_proxyILi19ENS_15PreserveStorageEEaSEP7SEXPREC"
 "_ZN4Rcpp8internal13generic_proxyILi19ENS_15PreserveStorageEEC1ERKS3_"
 "_ZN4Rcpp8internal13generic_proxyILi19ENS_15PreserveStorageEEC1ERNS_6VectorILi19ES2_EEx"
 "_ZN4Rcpp8internal13make_charsexpINSt7__cxx1112basic_stringIcSt11char_traitsIcESaIcEEEEEP7SEXPRECRKT_"
 "_ZN4Rcpp8internal13r_init_vectorILi16EEEvP7SEXPREC"
 "_ZN4Rcpp8internal13r_init_vectorILi19EEEvP7SEXPREC"
 "_ZN4Rcpp8internal13wrap_dispatchIbEEP7SEXPRECRKT_NS_6traits23wrap_type_primitive_tagE"
 "_ZN4Rcpp8internal13wrap_dispatchIiEEP7SEXPRECRKT_NS_6traits23wrap_type_primitive_tagE"
 "_ZN4Rcpp8internal13wrap_dispatchINS_6ShieldIP7SEXPRECEEEES4_RKT_NS_6traits21wrap_type_unknown_tagE"
 "_ZN4Rcpp8internal13wrap_dispatchINS_6VectorILi16ENS_15PreserveStorageEEEEEP7SEXPRECRKT_NS_6traits21wrap_type_unknown_tagE"
 "_ZN4Rcpp8internal13wrap_dispatchINS_6VectorILi19ENS_15PreserveStorageEEEEEP7SEXPRECRKT_NS_6traits21wrap_type_unknown_tagE"
 "_ZN4Rcpp8internal13wrap_dispatchIP7SEXPRECEES3_RKT_NS_6traits21wrap_type_unknown_tagE"
 "_ZN4Rcpp8internal13wrap_dispatchISt6vectorIdSaIdEEEEP7SEXPRECRKT_NS_6traits21wrap_type_unknown_tagE"
 "_ZN4Rcpp8internal14primitive_wrapIbEEP7SEXPRECRKT_"
 "_ZN4Rcpp8internal14primitive_wrapIiEEP7SEXPRECRKT_"
 "_ZN4Rcpp8internal14Proxy_IteratorINS0_12string_proxyILi16ENS_15PreserveStorageEEEEC1ERKS4_"
 "_ZN4Rcpp8internal14Proxy_IteratorINS0_12string_proxyILi16ENS_15PreserveStorageEEEEC1ERKS5_"
 "_ZN4Rcpp8internal14Proxy_IteratorINS0_12string_proxyILi16ENS_15PreserveStorageEEEEdeEv"
 "_ZN4Rcpp8internal14Proxy_IteratorINS0_12string_proxyILi16ENS_15PreserveStorageEEEEppEv"
 "_ZN4Rcpp8internal14Proxy_IteratorINS0_13generic_proxyILi19ENS_15PreserveStorageEEEEC1ERKS4_"
 "_ZN4Rcpp8internal14Proxy_IteratorINS0_13generic_proxyILi19ENS_15PreserveStorageEEEEC1ERKS5_"
 "_ZN4Rcpp8internal14Proxy_IteratorINS0_13generic_proxyILi19ENS_15PreserveStorageEEEEdeEv"
 "_ZN4Rcpp8internal14Proxy_IteratorINS0_13generic_proxyILi19ENS_15PreserveStorageEEEEppEv"
 "_ZN4Rcpp8internal14r_vector_startILi10EEEPNS_6traits12storage_typeIXT_EE4typeEP7SEXPREC"
 "_ZN4Rcpp8internal14r_vector_startILi13EEEPNS_6traits12storage_typeIXT_EE4typeEP7SEXPREC"
 "_ZN4Rcpp8internal14r_vector_startILi14EEEPNS_6traits12storage_typeIXT_EE4typeEP7SEXPREC"
 "_ZN4Rcpp8internal16getLongjumpTokenEP7SEXPREC"
 "_ZN4Rcpp8internal16NamedPlaceHolderC1Ev"
 "_ZN4Rcpp8internal16NamedPlaceHolderD1Ev"
 "_ZN4Rcpp8internal17is_Rcpp_eval_callEP7SEXPREC"
 "_ZN4Rcpp8internal18export_range__implIN9__gnu_cxx17__normal_iteratorIPdSt6vectorIdSaIdEEEEdEEvP7SEXPRECT_NS_6traits17integral_constantIbLb0EEE"
 "_ZN4Rcpp8internal18isLongjumpSentinelEP7SEXPREC"
 "_ZN4Rcpp8internal19make_charsexp__implINSt7__cxx1112basic_stringIcSt11char_traitsIcESaIcEEEEEP7SEXPRECRKT_NS_6traits17integral_constantIbLb0EEE"
 "_ZN4Rcpp8internal19range_wrap_dispatchIN9__gnu_cxx17__normal_iteratorIPKdSt6vectorIdSaIdEEEEdEEP7SEXPRECT_SC_"
 "_ZN4Rcpp8internal19Rcpp_protected_evalEPv"
 "_ZN4Rcpp8internal19wrap_dispatch_eigenINS_6ShieldIP7SEXPRECEEEES4_RKT_NS_6traits17integral_constantIbLb0EEE"
 "_ZN4Rcpp8internal19wrap_dispatch_eigenINS_6VectorILi16ENS_15PreserveStorageEEEEEP7SEXPRECRKT_NS_6traits17integral_constantIbLb0EEE"
 "_ZN4Rcpp8internal19wrap_dispatch_eigenINS_6VectorILi19ENS_15PreserveStorageEEEEEP7SEXPRECRKT_NS_6traits17integral_constantIbLb0EEE"
 "_ZN4Rcpp8internal19wrap_dispatch_eigenIP7SEXPRECEES3_RKT_NS_6traits17integral_constantIbLb0EEE"
 "_ZN4Rcpp8internal19wrap_dispatch_eigenISt6vectorIdSaIdEEEEP7SEXPRECRKT_NS_6traits17integral_constantIbLb0EEE"
 "_ZN4Rcpp8internal20primitive_wrap__implIbEEP7SEXPRECRKT_NS_6traits20r_type_primitive_tagE"
 "_ZN4Rcpp8internal20primitive_wrap__implIiEEP7SEXPRECRKT_NS_6traits20r_type_primitive_tagE"
 "_ZN4Rcpp8internal21wrap_dispatch_unknownINS_6ShieldIP7SEXPRECEEEES4_RKT_NS_6traits17integral_constantIbLb1EEE"
 "_ZN4Rcpp8internal21wrap_dispatch_unknownINS_6VectorILi16ENS_15PreserveStorageEEEEEP7SEXPRECRKT_NS_6traits17integral_constantIbLb1EEE"
 "_ZN4Rcpp8internal21wrap_dispatch_unknownINS_6VectorILi19ENS_15PreserveStorageEEEEEP7SEXPRECRKT_NS_6traits17integral_constantIbLb1EEE"
 "_ZN4Rcpp8internal21wrap_dispatch_unknownIP7SEXPRECEES3_RKT_NS_6traits17integral_constantIbLb1EEE"
 "_ZN4Rcpp8internal21wrap_dispatch_unknownISt6vectorIdSaIdEEEEP7SEXPRECRKT_NS_6traits17integral_constantIbLb0EEE"
 "_ZN4Rcpp8internal22export_range__dispatchIN9__gnu_cxx17__normal_iteratorIPdSt6vectorIdSaIdEEEEdEEvP7SEXPRECT_NS_6traits20r_type_primitive_tagE"
 "_ZN4Rcpp8internal23convert_using_rfunctionEP7SEXPRECPKc"
 "_ZN4Rcpp8internal25generic_element_converterILi19EE3getEPKc"
 "_ZN4Rcpp8internal25generic_element_converterILi19EE3getIiEEP7SEXPRECRKT_"
 "_ZN4Rcpp8internal25generic_element_converterILi19EE3getINS_6VectorILi16ENS_15PreserveStorageEEEEEP7SEXPRECRKT_"
 "_ZN4Rcpp8internal26primitive_range_wrap__implIN9__gnu_cxx17__normal_iteratorIPKdSt6vectorIdSaIdEEEEdEEP7SEXPRECT_SC_NS_6traits17integral_constantIbLb0EEE"
 "_ZN4Rcpp8internal26primitive_wrap__impl__castIbEEP7SEXPRECRKT_NS_6traits17integral_constantIbLb1EEE"
 "_ZN4Rcpp8internal26primitive_wrap__impl__castIiEEP7SEXPRECRKT_NS_6traits17integral_constantIbLb0EEE"
 "_ZN4Rcpp8internal26range_wrap_dispatch___implIN9__gnu_cxx17__normal_iteratorIPKdSt6vectorIdSaIdEEEEdEEP7SEXPRECT_SC_NS_6traits20r_type_primitive_tagE"
 "_ZN4Rcpp8internal27wrap_range_sugar_expressionISt6vectorIdSaIdEEEEP7SEXPRECRKT_NS_6traits17integral_constantIbLb0EEE"
 "_ZN4Rcpp8internal28make_charsexp__impl__cstringEPKc"
 "_ZN4Rcpp8internal28make_charsexp__impl__cstringERKNSt7__cxx1112basic_stringIcSt11char_traitsIcESaIcEEE"
 "_ZN4Rcpp8internal2asIbEET_P7SEXPRECNS_6traits20r_type_primitive_tagE"
 "_ZN4Rcpp8internal2asIdEET_P7SEXPRECNS_6traits20r_type_primitive_tagE"
 "_ZN4Rcpp8internal2asIiEET_P7SEXPRECNS_6traits20r_type_primitive_tagE"
 "_ZN4Rcpp8internal2asINS_6VectorILi14ENS_15PreserveStorageEEEEET_P7SEXPRECNS_6traits18r_type_generic_tagE"
 "_ZN4Rcpp8internal2asINS_6VectorILi19ENS_15PreserveStorageEEEEET_P7SEXPRECNS_6traits18r_type_generic_tagE"
 "_ZN4Rcpp8internal2asISt6vectorIdSaIdEEEET_P7SEXPRECNS_6traits18r_type_generic_tagE"
 "_ZN4Rcpp8internal30wrap_dispatch_unknown_iterableISt6vectorIdSaIdEEEEP7SEXPRECRKT_NS_6traits17integral_constantIbLb1EEE"
 "_ZN4Rcpp8internal32wrap_dispatch_unknown_importableINS_6ShieldIP7SEXPRECEEEES4_RKT_NS_6traits17integral_constantIbLb0EEE"
 "_ZN4Rcpp8internal32wrap_dispatch_unknown_importableINS_6VectorILi16ENS_15PreserveStorageEEEEEP7SEXPRECRKT_NS_6traits17integral_constantIbLb0EEE"
 "_ZN4Rcpp8internal32wrap_dispatch_unknown_importableINS_6VectorILi19ENS_15PreserveStorageEEEEEP7SEXPRECRKT_NS_6traits17integral_constantIbLb0EEE"
 "_ZN4Rcpp8internal32wrap_dispatch_unknown_importableIP7SEXPRECEES3_RKT_NS_6traits17integral_constantIbLb0EEE"
 "_ZN4Rcpp8internal32wrap_dispatch_unknown_importableISt6vectorIdSaIdEEEEP7SEXPRECRKT_NS_6traits17integral_constantIbLb0EEE"
 "_ZN4Rcpp8internal34primitive_range_wrap__impl__nocastIN9__gnu_cxx17__normal_iteratorIPKdSt6vectorIdSaIdEEEEdEEP7SEXPRECT_SC_St26random_access_iterator_tag"
 "_ZN4Rcpp8internal39wrap_dispatch_unknown_iterable__logicalISt6vectorIdSaIdEEEEP7SEXPRECRKT_NS_6traits17integral_constantIbLb0EEE"
 "_ZN4Rcpp8internal3nthEP7SEXPRECi"
 "_ZN4Rcpp8internal48wrap_dispatch_unknown_iterable__matrix_interfaceISt6vectorIdSaIdEEEEP7SEXPRECRKT_NS_6traits17integral_constantIbLb0EEE"
 "_ZN4Rcpp8internal6casterIbiEET0_T_"
 "_ZN4Rcpp8internal6casterIddEET0_T_"
 "_ZN4Rcpp8internal6casterIibEET0_T_"
 "_ZN4Rcpp8internal6casterIiiEET0_T_"
 "_ZN4Rcpp8internal8EvalDataC1EP7SEXPRECS3_"
 "_ZN4Rcpp8internal9maybeJumpEPv8Rboolean"
 "_ZN4Rcpp8RNGScopeC1Ev"
 "_ZN4Rcpp8RNGScopeD1Ev"
 "_ZN4Rcpp8RostreamILb0EEC1Ev"
 "_ZN4Rcpp8RostreamILb0EED0Ev"
 "_ZN4Rcpp8RostreamILb0EED1Ev"
 "_ZN4Rcpp8RostreamILb1EEC1Ev"
 "_ZN4Rcpp8RostreamILb1EED0Ev"
 "_ZN4Rcpp8RostreamILb1EED1Ev"
 "_ZN4Rcpp9exception18record_stack_traceEv"
 "_ZN4Rcpp9exceptionC1EPKcb"
 "_ZN4Rcpp9exceptionD0Ev"
 "_ZN4Rcpp9exceptionD1Ev"
 "_ZN9__gnu_cxx13new_allocatorIdE10deallocateEPdy"
 "_ZN9__gnu_cxx13new_allocatorIdE8allocateEyPKv"
 "_ZN9__gnu_cxx13new_allocatorIdEC2ERKS1_"
 "_ZN9__gnu_cxx13new_allocatorIdEC2Ev"
 "_ZN9__gnu_cxx13new_allocatorIdED2Ev"
 "_ZN9__gnu_cxx13new_allocatorINSt7__cxx1112basic_stringIcSt11char_traitsIcESaIcEEEE10deallocateEPS6_y"
 "_ZN9__gnu_cxx13new_allocatorINSt7__cxx1112basic_stringIcSt11char_traitsIcESaIcEEEEC2Ev"
 "_ZN9__gnu_cxx13new_allocatorINSt7__cxx1112basic_stringIcSt11char_traitsIcESaIcEEEED2Ev"
 "_ZN9__gnu_cxx17__normal_iteratorIPdSt6vectorIdSaIdEEEC1ERKS1_"
 "_ZN9__gnu_cxx17__normal_iteratorIPKdSt6vectorIdSaIdEEEC1ERKS2_"
 "_ZN9__gnu_cxx17__normal_iteratorIPKNSt7__cxx1112basic_stringIcSt11char_traitsIcESaIcEEESt6vectorIS6_SaIS6_EEEC1ERKS8_"
 "_ZN9__gnu_cxxmiIPKdSt6vectorIdSaIdEEEENS_17__normal_iteratorIT_T0_E15difference_typeERKS9_SC_"
 "_ZNK10tinyformat6detail9FormatArg5toIntEv"
 "_ZNK10tinyformat6detail9FormatArg6formatERSoPKcS4_i"
 "_ZNK4Rcpp14not_compatible4whatEv"
 "_ZNK4Rcpp15PreserveStorageINS_12RObject_ImplIS0_EEEcvP7SEXPRECEv"
 "_ZNK4Rcpp15PreserveStorageINS_6VectorILi14ES0_EEE5get__Ev"
 "_ZNK4Rcpp15PreserveStorageINS_6VectorILi14ES0_EEEcvP7SEXPRECEv"
 "_ZNK4Rcpp15PreserveStorageINS_6VectorILi16ES0_EEE5get__Ev"
 "_ZNK4Rcpp15PreserveStorageINS_6VectorILi16ES0_EEEcvP7SEXPRECEv"
 "_ZNK4Rcpp15PreserveStorageINS_6VectorILi19ES0_EEE5get__Ev"
 "_ZNK4Rcpp15PreserveStorageINS_6VectorILi19ES0_EEEcvP7SEXPRECEv"
 "_ZNK4Rcpp5ArmorIP7SEXPRECEcvS2_Ev"
 "_ZNK4Rcpp6ShieldIP7SEXPRECEcvS2_Ev"
 "_ZNK4Rcpp6traits11proxy_cacheILi16ENS_15PreserveStorageEE3getEv"
 "_ZNK4Rcpp6traits11proxy_cacheILi19ENS_15PreserveStorageEE3getEv"
 "_ZNK4Rcpp8internal16NamedPlaceHolderixERKNSt7__cxx1112basic_stringIcSt11char_traitsIcESaIcEEE"
 "_ZNK4Rcpp9exception12include_callEv"
 "_ZNK4Rcpp9exception21copy_stack_trace_to_rEv"
 "_ZNK4Rcpp9exception4whatEv"
 "_ZNK9__gnu_cxx13new_allocatorIdE11_M_max_sizeEv"
 "_ZNK9__gnu_cxx13new_allocatorIdE8max_sizeEv"
 "_ZNK9__gnu_cxx17__normal_iteratorIPdSt6vectorIdSaIdEEE4baseEv"
 "_ZNK9__gnu_cxx17__normal_iteratorIPdSt6vectorIdSaIdEEEplEx"
 "_ZNK9__gnu_cxx17__normal_iteratorIPKdSt6vectorIdSaIdEEE4baseEv"
 "_ZNK9__gnu_cxx17__normal_iteratorIPKdSt6vectorIdSaIdEEEixEx"
 "_ZNK9__gnu_cxx17__normal_iteratorIPKNSt7__cxx1112basic_stringIcSt11char_traitsIcESaIcEEESt6vectorIS6_SaIS6_EEE4baseEv"
 "_ZNKSt6vectorIdSaIdEE3endEv"
 "_ZNKSt6vectorIdSaIdEE5beginEv"
 "_ZNKSt6vectorINSt7__cxx1112basic_stringIcSt11char_traitsIcESaIcEEESaIS5_EE3endEv"
 "_ZNKSt6vectorINSt7__cxx1112basic_stringIcSt11char_traitsIcESaIcEEESaIS5_EE4sizeEv"
 "_ZNKSt6vectorINSt7__cxx1112basic_stringIcSt11char_traitsIcESaIcEEESaIS5_EE5beginEv"
 "_ZNKSt8ios_base5flagsEv"
 "_ZNKSt8ios_base5widthEv"
 "_ZNKSt8ios_base9precisionEv"
 "_ZNKSt9type_info4nameEv"
 "_ZNSaIdEC1ERKS_"
 "_ZNSaIdEC1Ev"
 "_ZNSaIdEC2ERKS_"
 "_ZNSaIdED1Ev"
 "_ZNSaIdED2Ev"
 "_ZNSaINSt7__cxx1112basic_stringIcSt11char_traitsIcESaIcEEEEC2Ev"
 "_ZNSaINSt7__cxx1112basic_stringIcSt11char_traitsIcESaIcEEEED2Ev"
 "_ZNSt11__copy_moveILb0ELb0ESt26random_access_iterator_tagE8__copy_mIPKNSt7__cxx1112basic_stringIcSt11char_traitsIcESaIcEEEN4Rcpp8internal14Proxy_IteratorINSC_12string_proxyILi16ENSB_15PreserveStorageEEEEEEET0_T_SJ_SI_"
 "_ZNSt11__copy_moveILb0ELb1ESt26random_access_iterator_tagE8__copy_mIdEEPT_PKS3_S6_S4_"
 "_ZNSt11char_traitsIcE12to_char_typeERKi"
 "_ZNSt11char_traitsIcE3eofEv"
 "_ZNSt12_Destroy_auxILb0EE9__destroyIPNSt7__cxx1112basic_stringIcSt11char_traitsIcESaIcEEEEEvT_S9_"
 "_ZNSt12_Destroy_auxILb1EE9__destroyIPdEEvT_S3_"
 "_ZNSt12_Vector_baseIdSaIdEE11_M_allocateEy"
 "_ZNSt12_Vector_baseIdSaIdEE12_Vector_implC1EOS2_"
 "_ZNSt12_Vector_baseIdSaIdEE12_Vector_implC1ERKS0_"
 "_ZNSt12_Vector_baseIdSaIdEE12_Vector_implD1Ev"
 "_ZNSt12_Vector_baseIdSaIdEE13_M_deallocateEPdy"
 "_ZNSt12_Vector_baseIdSaIdEE17_M_create_storageEy"
 "_ZNSt12_Vector_baseIdSaIdEE17_Vector_impl_dataC2EOS2_"
 "_ZNSt12_Vector_baseIdSaIdEE17_Vector_impl_dataC2Ev"
 "_ZNSt12_Vector_baseIdSaIdEE19_M_get_Tp_allocatorEv"
 "_ZNSt12_Vector_baseIdSaIdEEC2EOS1_"
 "_ZNSt12_Vector_baseIdSaIdEEC2ERKS0_"
 "_ZNSt12_Vector_baseIdSaIdEEC2EyRKS0_"
 "_ZNSt12_Vector_baseIdSaIdEED2Ev"
 "_ZNSt12_Vector_baseINSt7__cxx1112basic_stringIcSt11char_traitsIcESaIcEEESaIS5_EE12_Vector_implC1Ev"
 "_ZNSt12_Vector_baseINSt7__cxx1112basic_stringIcSt11char_traitsIcESaIcEEESaIS5_EE12_Vector_implD1Ev"
 "_ZNSt12_Vector_baseINSt7__cxx1112basic_stringIcSt11char_traitsIcESaIcEEESaIS5_EE13_M_deallocateEPS5_y"
 "_ZNSt12_Vector_baseINSt7__cxx1112basic_stringIcSt11char_traitsIcESaIcEEESaIS5_EE17_Vector_impl_dataC2Ev"
 "_ZNSt12_Vector_baseINSt7__cxx1112basic_stringIcSt11char_traitsIcESaIcEEESaIS5_EE19_M_get_Tp_allocatorEv"
 "_ZNSt12_Vector_baseINSt7__cxx1112basic_stringIcSt11char_traitsIcESaIcEEESaIS5_EEC2Ev"
 "_ZNSt12_Vector_baseINSt7__cxx1112basic_stringIcSt11char_traitsIcESaIcEEESaIS5_EED2Ev"
 "_ZNSt16allocator_traitsISaIdEE10deallocateERS0_Pdy"
 "_ZNSt16allocator_traitsISaIdEE8allocateERS0_y"
 "_ZNSt16allocator_traitsISaIdEE8max_sizeERKS0_"
 "_ZNSt16allocator_traitsISaINSt7__cxx1112basic_stringIcSt11char_traitsIcESaIcEEEEE10deallocateERS6_PS5_y"
 "_ZNSt20__uninitialized_copyILb1EE13__uninit_copyIPdS2_EET0_T_S4_S3_"
 "_ZNSt27__uninitialized_default_n_1ILb1EE18__uninit_default_nIPdyEET_S3_T0_"
 "_ZNSt6vectorIdSaIdEE11_S_max_sizeERKS0_"
 "_ZNSt6vectorIdSaIdEE17_S_check_init_lenEyRKS0_"
 "_ZNSt6vectorIdSaIdEE19_M_range_initializeIPdEEvT_S4_St20forward_iterator_tag"
 "_ZNSt6vectorIdSaIdEE21_M_default_initializeEy"
 "_ZNSt6vectorIdSaIdEE5beginEv"
 "_ZNSt6vectorIdSaIdEEC1EOS1_"
 "_ZNSt6vectorIdSaIdEEC1EyRKS0_"
 "_ZNSt6vectorIdSaIdEEC1IPdvEET_S4_RKS0_"
 "_ZNSt6vectorIdSaIdEED1Ev"
 "_ZNSt6vectorINSt7__cxx1112basic_stringIcSt11char_traitsIcESaIcEEESaIS5_EEC1Ev"
 "_ZNSt6vectorINSt7__cxx1112basic_stringIcSt11char_traitsIcESaIcEEESaIS5_EED1Ev"
 "_ZNSt8ios_base4setfESt13_Ios_Fmtflags"
 "_ZNSt8ios_base4setfESt13_Ios_FmtflagsS0_"
 "_ZNSt8ios_base5flagsESt13_Ios_Fmtflags"
 "_ZNSt8ios_base5widthEx"
 "_ZNSt8ios_base6unsetfESt13_Ios_Fmtflags"
 "_ZNSt8ios_base9precisionEx"
 "_ZNSt9exceptionC2Ev"
 "_ZSt10__distanceIN9__gnu_cxx17__normal_iteratorIPKdSt6vectorIdSaIdEEEEENSt15iterator_traitsIT_E15difference_typeES9_S9_St26random_access_iterator_tag"
 "_ZSt10__distanceIPdENSt15iterator_traitsIT_E15difference_typeES2_S2_St26random_access_iterator_tag"
 "_ZSt10__fill_n_aIPdydET_S1_T0_RKT1_St26random_access_iterator_tag"
 "_ZSt11__addressofINSt7__cxx1112basic_stringIcSt11char_traitsIcESaIcEEEEPT_RS6_"
 "_ZSt12__miter_baseIN9__gnu_cxx17__normal_iteratorIPKNSt7__cxx1112basic_stringIcSt11char_traitsIcESaIcEEESt6vectorIS7_SaIS7_EEEEET_SE_"
 "_ZSt12__miter_baseIPdET_S1_"
 "_ZSt12__niter_baseIN4Rcpp8internal14Proxy_IteratorINS1_12string_proxyILi16ENS0_15PreserveStorageEEEEEET_S7_"
 "_ZSt12__niter_baseIPdET_S1_"
 "_ZSt12__niter_baseIPdSt6vectorIdSaIdEEET_N9__gnu_cxx17__normal_iteratorIS4_T0_EE"
 "_ZSt12__niter_baseIPKNSt7__cxx1112basic_stringIcSt11char_traitsIcESaIcEEESt6vectorIS5_SaIS5_EEET_N9__gnu_cxx17__normal_iteratorISB_T0_EE"
 "_ZSt12__niter_wrapIN4Rcpp8internal14Proxy_IteratorINS1_12string_proxyILi16ENS0_15PreserveStorageEEEEEET_RKS7_S7_"
 "_ZSt12__niter_wrapIN9__gnu_cxx17__normal_iteratorIPdSt6vectorIdSaIdEEEES2_ET_S7_T0_"
 "_ZSt12__niter_wrapIPdET_RKS1_S1_"
 "_ZSt13__copy_move_aILb0EN9__gnu_cxx17__normal_iteratorIPKNSt7__cxx1112basic_stringIcSt11char_traitsIcESaIcEEESt6vectorIS7_SaIS7_EEEEN4Rcpp8internal14Proxy_IteratorINSF_12string_proxyILi16ENSE_15PreserveStorageEEEEEET1_T0_SM_SL_"
 "_ZSt13__copy_move_aILb0EPdN9__gnu_cxx17__normal_iteratorIS0_St6vectorIdSaIdEEEEET1_T0_S8_S7_"
 "_ZSt13__copy_move_aILb0EPdS0_ET1_T0_S2_S1_"
 "_ZSt14__copy_move_a1ILb0EPdS0_ET1_T0_S2_S1_"
 "_ZSt14__copy_move_a1ILb0EPKNSt7__cxx1112basic_stringIcSt11char_traitsIcESaIcEEEN4Rcpp8internal14Proxy_IteratorINS9_12string_proxyILi16ENS8_15PreserveStorageEEEEEET1_T0_SG_SF_"
 "_ZSt14__copy_move_a2ILb0EPdS0_ET1_T0_S2_S1_"
 "_ZSt14__copy_move_a2ILb0EPKNSt7__cxx1112basic_stringIcSt11char_traitsIcESaIcEEEN4Rcpp8internal14Proxy_IteratorINS9_12string_proxyILi16ENS8_15PreserveStorageEEEEEET1_T0_SG_SF_"
 "_ZSt17__size_to_integery"
 "_ZSt18uninitialized_copyIPdS0_ET0_T_S2_S1_"
 "_ZSt19__iterator_categoryIN9__gnu_cxx17__normal_iteratorIPKdSt6vectorIdSaIdEEEEENSt15iterator_traitsIT_E17iterator_categoryERKS9_"
 "_ZSt19__iterator_categoryIPdENSt15iterator_traitsIT_E17iterator_categoryERKS2_"
 "_ZSt22__uninitialized_copy_aIPdS0_dET0_T_S2_S1_RSaIT1_E"
 "_ZSt25__uninitialized_default_nIPdyET_S1_T0_"
 "_ZSt27__uninitialized_default_n_aIPdydET_S1_T0_RSaIT1_E"
 "_ZSt3minIiERKT_S2_S2_"
 "_ZSt3minIyERKT_S2_S2_"
 "_ZSt4copyIN9__gnu_cxx17__normal_iteratorIPKNSt7__cxx1112basic_stringIcSt11char_traitsIcESaIcEEESt6vectorIS7_SaIS7_EEEEN4Rcpp8internal14Proxy_IteratorINSF_12string_proxyILi16ENSE_15PreserveStorageEEEEEET0_T_SM_SL_"
 "_ZSt4copyIPdN9__gnu_cxx17__normal_iteratorIS0_St6vectorIdSaIdEEEEET0_T_S8_S7_"
 "_ZSt4copyIPdS0_ET0_T_S2_S1_"
 "_ZSt4moveIRNSt12_Vector_baseIdSaIdEE12_Vector_implEEONSt16remove_referenceIT_E4typeEOS6_"
 "_ZSt6fill_nIPdydET_S1_T0_RKT1_"
 "_ZSt7forwardIiEOT_RNSt16remove_referenceIS0_E4typeE"
 "_ZSt7forwardIRKPKcEOT_RNSt16remove_referenceIS4_E4typeE"
 "_ZSt8__fill_aIPddEvT_S1_RKT0_"
 "_ZSt8_DestroyINSt7__cxx1112basic_stringIcSt11char_traitsIcESaIcEEEEvPT_"
 "_ZSt8_DestroyIPddEvT_S1_RSaIT0_E"
 "_ZSt8_DestroyIPdEvT_S1_"
 "_ZSt8_DestroyIPNSt7__cxx1112basic_stringIcSt11char_traitsIcESaIcEEEEvT_S7_"
 "_ZSt8_DestroyIPNSt7__cxx1112basic_stringIcSt11char_traitsIcESaIcEEES5_EvT_S7_RSaIT0_E"
 "_ZSt8distanceIN9__gnu_cxx17__normal_iteratorIPKdSt6vectorIdSaIdEEEEENSt15iterator_traitsIT_E15difference_typeES9_S9_"
 "_ZSt8distanceIPdENSt15iterator_traitsIT_E15difference_typeES2_S2_"
 "_ZSt9__fill_a1IPddEN9__gnu_cxx11__enable_ifIXsrSt11__is_scalarIT0_E7__valueEvE6__typeET_S8_RKS4_"
 "_ZStaNRSt13_Ios_FmtflagsS_"
 "_ZStanSt13_Ios_FmtflagsS_"
 "_ZStcoSt13_Ios_Fmtflags"
 "_ZStoRRSt13_Ios_FmtflagsS_"
 "_ZStorSt13_Ios_FmtflagsS_"
 "_ZTCN4Rcpp8RostreamILb0EEE0_So"
 "_ZTCN4Rcpp8RostreamILb1EEE0_So"
 "_ZTIN4Rcpp10eval_errorE"
 "_ZTIN4Rcpp10RstreambufILb0EEE"
 "_ZTIN4Rcpp10RstreambufILb1EEE"
 "_ZTIN4Rcpp14not_compatibleE"
 "_ZTIN4Rcpp17LongjumpExceptionE"
 "_ZTIN4Rcpp8internal20InterruptedExceptionE"
 "_ZTIN4Rcpp8RostreamILb0EEE"
 "_ZTIN4Rcpp8RostreamILb1EEE"
 "_ZTIN4Rcpp9exceptionE"
 "_ZTISt9exception"
 "_ZTSN4Rcpp10eval_errorE"
 "_ZTSN4Rcpp10RstreambufILb0EEE"
 "_ZTSN4Rcpp10RstreambufILb1EEE"
 "_ZTSN4Rcpp14not_compatibleE"
 "_ZTSN4Rcpp17LongjumpExceptionE"
 "_ZTSN4Rcpp8internal20InterruptedExceptionE"
 "_ZTSN4Rcpp8RostreamILb0EEE"
 "_ZTSN4Rcpp8RostreamILb1EEE"
 "_ZTSN4Rcpp9exceptionE"
 "_ZTSSt9exception"
 "_ZTTN4Rcpp8RostreamILb0EEE"
 "_ZTTN4Rcpp8RostreamILb1EEE"
 "_ZTv0_n24_N4Rcpp8RostreamILb0EED0Ev"
 "_ZTv0_n24_N4Rcpp8RostreamILb0EED1Ev"
 "_ZTv0_n24_N4Rcpp8RostreamILb1EED0Ev"
 "_ZTv0_n24_N4Rcpp8RostreamILb1EED1Ev"
 "_ZTVN4Rcpp10RstreambufILb0EEE"
 "_ZTVN4Rcpp10RstreambufILb1EEE"
 "_ZTVN4Rcpp14not_compatibleE"
 "_ZTVN4Rcpp8RostreamILb0EEE"
 "_ZTVN4Rcpp8RostreamILb1EEE"
 "_ZTVN4Rcpp9exceptionE"
 "_ZZ20rcpp_get_stack_tracevE3fun"
 "_ZZ20rcpp_set_stack_traceP7SEXPRECE3fun"
 "_ZZ7dataptrP7SEXPRECE3fun"
 "_ZZ8demangleRKNSt7__cxx1112basic_stringIcSt11char_traitsIcESaIcEEEE3funB5cxx11"
 "_ZZN4Rcpp20Rcpp_precious_removeEP7SEXPRECE3fun"
 "_ZZN4Rcpp22Rcpp_precious_preserveEP7SEXPRECE3fun"
 "_ZZN4Rcpp8internal12exitRNGScopeEvE3fun"
 "_ZZN4Rcpp8internal13enterRNGScopeEvE3fun"
 "R_init_APackOfTheClones"
 "_Z10polar_formSt6vectorIdSaIdEE"
 "_Z11centre_distR4Node"
 "_Z11has_repeatsN4Rcpp6VectorILi14ENS_15PreserveStorageEEES2_"
 "_Z11neg_dir_vecN4Rcpp6VectorILi19ENS_15PreserveStorageEEES2_"
 "_Z12approx_equalddd"
 "_Z12progress_barii"
 "_Z13xyr_are_equalR4NodeS_d"
 "_Z14component_formSt6vectorIdSaIdEE"
 "_Z15nodes_are_equalR4NodeS0_d"
 "_Z17cpp_circle_layoutSt6vectorIdSaIdEEN4Rcpp6VectorILi14ENS2_15PreserveStorageEEEdbb"
 "_Z18elements_are_equalN4Rcpp6VectorILi14ENS_15PreserveStorageEEES2_d"
 "_Z18get_average_vectorN4Rcpp6VectorILi19ENS_15PreserveStorageEEE"
 "_Z18neg_polar_dist_vecN4Rcpp6VectorILi19ENS_15PreserveStorageEEES2_"
 "_Z20do_cluster_intersectSt6vectorIdSaIdEEdS1_dd"
 "_Z30get_component_repulsion_vectorN4Rcpp6VectorILi19ENS_15PreserveStorageEEEiid"
 "_Z32calculate_transformation_vectorsN4Rcpp6VectorILi19ENS_15PreserveStorageEEES2_i"
 "_Z3sqrd"
 "_Z7dataptrP7SEXPREC"
 "_Z8is_clearRSt4pairIiiE"
 "_ZGVZ7dataptrP7SEXPRECE3fun"
 "_ZGVZN4Rcpp20Rcpp_precious_removeEP7SEXPRECE3fun"
 "_ZGVZN4Rcpp22Rcpp_precious_preserveEP7SEXPRECE3fun"
 "_ZN10NodeVector10fit_circleEiRib"
 "_ZN10NodeVector10fwd_removeEii"
 "_ZN10NodeVector12do_intersectEii"
 "_ZN10NodeVector12place_circleEib"
 "_ZN10NodeVector13closest_placeEii"
 "_ZN10NodeVector13init_boundaryEii"
 "_ZN10NodeVector13insert_circleEiii"
 "_ZN10NodeVector13overlap_checkEiii"
 "_ZN10NodeVector15fit_tang_circleEiii"
 "_ZN10NodeVector16tang_circle_distEiii"
 "_ZN10NodeVector18is_degenerate_caseEv"
 "_ZN10NodeVector20place_starting_threeEiii"
 "_ZN10NodeVector23construct_obstruct_listEiii"
 "_ZN10NodeVector23handle_degenerate_casesERN4Rcpp6VectorILi14ENS0_15PreserveStorageEEEdb"
 "_ZN10NodeVector24process_into_clusterlistERN4Rcpp6VectorILi14ENS0_15PreserveStorageEEEdb"
 "_ZN10NodeVector7closestEi"
 "_ZN10NodeVector8fwd_distEii"
 "_ZN10NodeVector9geod_distEiii"
 "_ZN10NodeVectoraSEOS_"
 "_ZN10NodeVectorC1ERKSt6vectorIdSaIdEEi"
 "_ZN10NodeVectorC1ESt6vectorI4NodeSaIS1_EE"
 "_ZN10NodeVectorD1Ev"
 "_ZN10tinyformat10FormatListC2EPNS_6detail9FormatArgEi"
 "_ZN10tinyformat11formatValueIiEEvRSoPKcS3_iRKT_"
 "_ZN10tinyformat11formatValueIPKcEEvRSoS2_S2_iRKT_"
 "_ZN10tinyformat14makeFormatListIJEEENS_6detail11FormatListNIXsZT_EEEDpRKT_"
 "_ZN10tinyformat14makeFormatListIJiEEENS_6detail11FormatListNIXsZT_EEEDpRKT_"
 "_ZN10tinyformat14makeFormatListIJPKcEEENS_6detail11FormatListNIXsZT_EEEDpRKT_"
 "_ZN10tinyformat6detail10formatImplERSoPKcPKNS0_9FormatArgEi"
 "_ZN10tinyformat6detail11FormatListNILi0EEC1Ev"
 "_ZN10tinyformat6detail11FormatListNILi1EEC1IJiEEEDpRKT_"
 "_ZN10tinyformat6detail11FormatListNILi1EEC1IJPKcEEEDpRKT_"
 "_ZN10tinyformat6detail12convertToIntIiLb1EE6invokeERKi"
 "_ZN10tinyformat6detail12convertToIntIPKcLb0EE6invokeERKS3_"
 "_ZN10tinyformat6detail15formatTruncatedERSoPKci"
 "_ZN10tinyformat6detail15formatTruncatedIiEEvRSoRKT_i"
 "_ZN10tinyformat6detail17formatValueAsTypeIicLb1EE6invokeERSoRKi"
 "_ZN10tinyformat6detail17formatValueAsTypeIPKcPKvLb1EE6invokeERSoRKS3_"
 "_ZN10tinyformat6detail18parseIntAndAdvanceERPKc"
 "_ZN10tinyformat6detail21streamStateFromFormatERSoRbRiPKcPKNS0_9FormatArgES3_i"
 "_ZN10tinyformat6detail24printFormatStringLiteralERSoPKc"
 "_ZN10tinyformat6detail9FormatArg10formatImplIiEEvRSoPKcS5_iPKv"
 "_ZN10tinyformat6detail9FormatArg10formatImplIPKcEEvRSoS4_S4_iPKv"
 "_ZN10tinyformat6detail9FormatArg9toIntImplIiEEiPKv"
 "_ZN10tinyformat6detail9FormatArg9toIntImplIPKcEEiPKv"
 "_ZN10tinyformat6detail9FormatArgC1IiEERKT_"
 "_ZN10tinyformat6detail9FormatArgC1IPKcEERKT_"
 "_ZN10tinyformat6formatIJEEENSt7__cxx1112basic_stringIcSt11char_traitsIcESaIcEEEPKcDpRKT_"
 "_ZN10tinyformat6formatIJEEEvRSoPKcDpRKT_"
 "_ZN10tinyformat6formatIJiEEENSt7__cxx1112basic_stringIcSt11char_traitsIcESaIcEEEPKcDpRKT_"
 "_ZN10tinyformat6formatIJiEEEvRSoPKcDpRKT_"
 "_ZN10tinyformat6formatIJPKcEEENSt7__cxx1112basic_stringIcSt11char_traitsIcESaIcEEES2_DpRKT_"
 "_ZN10tinyformat6formatIJPKcEEEvRSoS2_DpRKT_"
 "_ZN10tinyformat7vformatERSoPKcRKNS_10FormatListE"
 "_ZN4NodeC1Eddd"
 "_ZN4Rcpp10RstreambufILb0EE4syncEv"
 "_ZN4Rcpp10RstreambufILb0EE6xsputnEPKcx"
 "_ZN4Rcpp10RstreambufILb0EE8overflowEi"
 "_ZN4Rcpp10RstreambufILb0EEC1Ev"
 "_ZN4Rcpp10RstreambufILb0EED0Ev"
 "_ZN4Rcpp10RstreambufILb0EED1Ev"
 "_ZN4Rcpp10RstreambufILb1EE4syncEv"
 "_ZN4Rcpp10RstreambufILb1EE6xsputnEPKcx"
 "_ZN4Rcpp10RstreambufILb1EE8overflowEi"
 "_ZN4Rcpp10RstreambufILb1EEC1Ev"
 "_ZN4Rcpp10RstreambufILb1EED0Ev"
 "_ZN4Rcpp10RstreambufILb1EED1Ev"
 "_ZN4Rcpp12Rcpp_protectEP7SEXPREC"
 "_ZN4Rcpp13unwindProtectEPFP7SEXPRECPvES2_"
 "_ZN4Rcpp14not_compatibleC1IJiEEEPKcDpOT_"
 "_ZN4Rcpp14not_compatibleC1IJRKPKcEEES3_DpOT_"
 "_ZN4Rcpp14not_compatibleD0Ev"
 "_ZN4Rcpp14not_compatibleD1Ev"
 "_ZN4Rcpp14Rcpp_fast_evalEP7SEXPRECS1_"
 "_ZN4Rcpp14Rcpp_unprotectEi"
 "_ZN4Rcpp15PreserveStorageINS_6VectorILi14ES0_EEE5set__EP7SEXPREC"
 "_ZN4Rcpp15PreserveStorageINS_6VectorILi14ES0_EEE6copy__IS2_EERT_RKS5_"
 "_ZN4Rcpp15PreserveStorageINS_6VectorILi14ES0_EEEC2Ev"
 "_ZN4Rcpp15PreserveStorageINS_6VectorILi14ES0_EEED2Ev"
 "_ZN4Rcpp15PreserveStorageINS_6VectorILi19ES0_EEE5set__EP7SEXPREC"
 "_ZN4Rcpp15PreserveStorageINS_6VectorILi19ES0_EEE6copy__IS2_EERT_RKS5_"
 "_ZN4Rcpp15PreserveStorageINS_6VectorILi19ES0_EEEC2Ev"
 "_ZN4Rcpp15PreserveStorageINS_6VectorILi19ES0_EEED2Ev"
 "_ZN4Rcpp16wrap_extra_stepsIdEEP7SEXPRECS2_"
 "_ZN4Rcpp17LongjumpExceptionC1EP7SEXPREC"
 "_ZN4Rcpp20AttributeProxyPolicyINS_6VectorILi19ENS_15PreserveStorageEEEE14AttributeProxy3setEP7SEXPREC"
 "_ZN4Rcpp20AttributeProxyPolicyINS_6VectorILi19ENS_15PreserveStorageEEEE14AttributeProxyaSINS_6ShieldIP7SEXPRECEEEERS5_RKT_"
 "_ZN4Rcpp20AttributeProxyPolicyINS_6VectorILi19ENS_15PreserveStorageEEEE14AttributeProxyC1ERS3_RKNSt7__cxx1112basic_stringIcSt11char_traitsIcESaIcEEE"
 "_ZN4Rcpp20AttributeProxyPolicyINS_6VectorILi19ENS_15PreserveStorageEEEE4attrERKNSt7__cxx1112basic_stringIcSt11char_traitsIcESaIcEEE"
 "_ZN4Rcpp20Rcpp_precious_removeEP7SEXPREC"
 "_ZN4Rcpp20Rcpp_PreciousReleaseEP7SEXPREC"
 "_ZN4Rcpp21Rcpp_PreciousPreserveEP7SEXPREC"
 "_ZN4Rcpp22Rcpp_precious_preserveEP7SEXPREC"
 "_ZN4Rcpp2asIdEET_P7SEXPREC"
 "_ZN4Rcpp2asINS_6VectorILi14ENS_15PreserveStorageEEEEET_P7SEXPREC"
 "_ZN4Rcpp2asINS_6VectorILi19ENS_15PreserveStorageEEEEET_P7SEXPREC"
 "_ZN4Rcpp2asISt6vectorIdSaIdEEEET_P7SEXPREC"
 "_ZN4Rcpp4stopERKNSt7__cxx1112basic_stringIcSt11char_traitsIcESaIcEEE"
 "_ZN4Rcpp4stopIJEEEvPKcDpOT_"
 "_ZN4Rcpp4wrapIdEEP7SEXPRECRKT_"
 "_ZN4Rcpp4wrapINS_6ShieldIP7SEXPRECEEEES3_RKT_"
 "_ZN4Rcpp4wrapINS_6VectorILi14ENS_15PreserveStorageEEEEEP7SEXPRECRKT_"
 "_ZN4Rcpp4wrapINS_8internal13generic_proxyILi19ENS_15PreserveStorageEEEEEP7SEXPRECRKT_"
 "_ZN4Rcpp4wrapIP7SEXPRECEES2_RKT_"
 "_ZN4Rcpp4wrapIPKdEEP7SEXPRECT_S5_"
 "_ZN4Rcpp4wrapISt6vectorIdSaIdEEEEP7SEXPRECRKT_"
 "_ZN4Rcpp5ArmorIP7SEXPRECE4initES2_"
 "_ZN4Rcpp5ArmorIP7SEXPRECEaSIS2_EERS3_RKT_"
 "_ZN4Rcpp5ArmorIP7SEXPRECEC1Ev"
 "_ZN4Rcpp5ArmorIP7SEXPRECED1Ev"
 "_ZN4Rcpp6r_castILi14EEEP7SEXPRECS2_"
 "_ZN4Rcpp6r_castILi19EEEP7SEXPRECS2_"
 "_ZN4Rcpp6ShieldIP7SEXPRECEC1ES2_"
 "_ZN4Rcpp6ShieldIP7SEXPRECED1Ev"
 "_ZN4Rcpp6traits11proxy_cacheILi19ENS_15PreserveStorageEE3refEx"
 "_ZN4Rcpp6traits11proxy_cacheILi19ENS_15PreserveStorageEE6updateERKNS_6VectorILi19ES2_EE"
 "_ZN4Rcpp6traits11proxy_cacheILi19ENS_15PreserveStorageEEC1Ev"
 "_ZN4Rcpp6traits11proxy_cacheILi19ENS_15PreserveStorageEED1Ev"
 "_ZN4Rcpp6traits12named_objectIdEC1ERKNSt7__cxx1112basic_stringIcSt11char_traitsIcESaIcEEERKd"
 "_ZN4Rcpp6traits12named_objectINS_6VectorILi14ENS_15PreserveStorageEEEEC1ERKNSt7__cxx1112basic_stringIcSt11char_traitsIcESaIcEEERKS4_"
 "_ZN4Rcpp6traits14r_vector_cacheILi14ENS_15PreserveStorageEE3refEx"
 "_ZN4Rcpp6traits14r_vector_cacheILi14ENS_15PreserveStorageEE6updateERKNS_6VectorILi14ES2_EE"
 "_ZN4Rcpp6traits14r_vector_cacheILi14ENS_15PreserveStorageEEC1Ev"
 "_ZN4Rcpp6traits17ContainerExporterISt6vectordE3getEv"
 "_ZN4Rcpp6traits17ContainerExporterISt6vectordEC2EP7SEXPREC"
 "_ZN4Rcpp6traits17ContainerExporterISt6vectordED2Ev"
 "_ZN4Rcpp6traits8ExporterINS_6VectorILi14ENS_15PreserveStorageEEEE3getEv"
 "_ZN4Rcpp6traits8ExporterINS_6VectorILi14ENS_15PreserveStorageEEEEC1EP7SEXPREC"
 "_ZN4Rcpp6traits8ExporterINS_6VectorILi14ENS_15PreserveStorageEEEED1Ev"
 "_ZN4Rcpp6traits8ExporterINS_6VectorILi19ENS_15PreserveStorageEEEE3getEv"
 "_ZN4Rcpp6traits8ExporterINS_6VectorILi19ENS_15PreserveStorageEEEEC1EP7SEXPREC"
 "_ZN4Rcpp6traits8ExporterINS_6VectorILi19ENS_15PreserveStorageEEEED1Ev"
 "_ZN4Rcpp6traits8ExporterISt6vectorIdSaIdEEEC1EP7SEXPREC"
 "_ZN4Rcpp6traits8ExporterISt6vectorIdSaIdEEED1Ev"
 "_ZN4Rcpp6VectorILi14ENS_15PreserveStorageEE13assign_objectINS_8internal13generic_proxyILi19ES1_EEEEvRKT_NS_6traits17integral_constantIbLb0EEE"
 "_ZN4Rcpp6VectorILi14ENS_15PreserveStorageEE16create__dispatchIddEES2_NS_6traits17integral_constantIbLb0EEERKT_RKT0_"
 "_ZN4Rcpp6VectorILi14ENS_15PreserveStorageEE16create__dispatchIdEES2_NS_6traits17integral_constantIbLb0EEERKT_"
 "_ZN4Rcpp6VectorILi14ENS_15PreserveStorageEE4initEv"
 "_ZN4Rcpp6VectorILi14ENS_15PreserveStorageEE5beginEv"
 "_ZN4Rcpp6VectorILi14ENS_15PreserveStorageEE6assignIPKdEEvT_S6_"
 "_ZN4Rcpp6VectorILi14ENS_15PreserveStorageEE6createIddEES2_RKT_RKT0_"
 "_ZN4Rcpp6VectorILi14ENS_15PreserveStorageEE6createIdEES2_RKT_"
 "_ZN4Rcpp6VectorILi14ENS_15PreserveStorageEE6updateEP7SEXPREC"
 "_ZN4Rcpp6VectorILi14ENS_15PreserveStorageEEaSERKS2_"
 "_ZN4Rcpp6VectorILi14ENS_15PreserveStorageEEaSINS_8internal13generic_proxyILi19ES1_EEEERS2_RKT_"
 "_ZN4Rcpp6VectorILi14ENS_15PreserveStorageEEC1EP7SEXPREC"
 "_ZN4Rcpp6VectorILi14ENS_15PreserveStorageEEC1ERKi"
 "_ZN4Rcpp6VectorILi14ENS_15PreserveStorageEEC1ERKS2_"
 "_ZN4Rcpp6VectorILi14ENS_15PreserveStorageEEC1ESt16initializer_listIdE"
 "_ZN4Rcpp6VectorILi14ENS_15PreserveStorageEEC1Ev"
 "_ZN4Rcpp6VectorILi14ENS_15PreserveStorageEED1Ev"
 "_ZN4Rcpp6VectorILi14ENS_15PreserveStorageEEixEx"
 "_ZN4Rcpp6VectorILi19ENS_15PreserveStorageEE15replace_elementINS_6traits12named_objectIdEEEEvNS_8internal14Proxy_IteratorINS7_13generic_proxyILi19ES1_EEEEP7SEXPRECxRKT_"
 "_ZN4Rcpp6VectorILi19ENS_15PreserveStorageEE15replace_elementINS_6traits12named_objectINS0_ILi14ES1_EEEEEEvNS_8internal14Proxy_IteratorINS8_13generic_proxyILi19ES1_EEEEP7SEXPRECxRKT_"
 "_ZN4Rcpp6VectorILi19ENS_15PreserveStorageEE16create__dispatchINS_6traits12named_objectINS0_ILi14ES1_EEEES7_S7_S7_NS5_IdEEEES2_NS4_17integral_constantIbLb1EEERKT_RKT0_RKT1_RKT2_RKT3_"
 "_ZN4Rcpp6VectorILi19ENS_15PreserveStorageEE25replace_element__dispatchINS_6traits12named_objectIdEEEEvNS4_17integral_constantIbLb1EEENS_8internal14Proxy_IteratorINS9_13generic_proxyILi19ES1_EEEEP7SEXPRECxRKT_"
 "_ZN4Rcpp6VectorILi19ENS_15PreserveStorageEE25replace_element__dispatchINS_6traits12named_objectINS0_ILi14ES1_EEEEEEvNS4_17integral_constantIbLb1EEENS_8internal14Proxy_IteratorINSA_13generic_proxyILi19ES1_EEEEP7SEXPRECxRKT_"
 "_ZN4Rcpp6VectorILi19ENS_15PreserveStorageEE37replace_element__dispatch__isArgumentINS_6traits12named_objectIdEEEEvNS4_17integral_constantIbLb0EEENS_8internal14Proxy_IteratorINS9_13generic_proxyILi19ES1_EEEEP7SEXPRECxRKT_"
 "_ZN4Rcpp6VectorILi19ENS_15PreserveStorageEE37replace_element__dispatch__isArgumentINS_6traits12named_objectINS0_ILi14ES1_EEEEEEvNS4_17integral_constantIbLb0EEENS_8internal14Proxy_IteratorINSA_13generic_proxyILi19ES1_EEEEP7SEXPRECxRKT_"
 "_ZN4Rcpp6VectorILi19ENS_15PreserveStorageEE4initEv"
 "_ZN4Rcpp6VectorILi19ENS_15PreserveStorageEE5beginEv"
 "_ZN4Rcpp6VectorILi19ENS_15PreserveStorageEE6createEv"
 "_ZN4Rcpp6VectorILi19ENS_15PreserveStorageEE6createINS_6traits12named_objectINS0_ILi14ES1_EEEES7_S7_S7_NS5_IdEEEES2_RKT_RKT0_RKT1_RKT2_RKT3_"
 "_ZN4Rcpp6VectorILi19ENS_15PreserveStorageEE6updateEP7SEXPREC"
 "_ZN4Rcpp6VectorILi19ENS_15PreserveStorageEEaSERKS2_"
 "_ZN4Rcpp6VectorILi19ENS_15PreserveStorageEEC1EP7SEXPREC"
 "_ZN4Rcpp6VectorILi19ENS_15PreserveStorageEEC1ERKi"
 "_ZN4Rcpp6VectorILi19ENS_15PreserveStorageEEC1ERKS2_"
 "_ZN4Rcpp6VectorILi19ENS_15PreserveStorageEED1Ev"
 "_ZN4Rcpp6VectorILi19ENS_15PreserveStorageEEixEx"
 "_ZN4Rcpp8ArgumentaSIdEENS_6traits12named_objectIT_EERKS4_"
 "_ZN4Rcpp8ArgumentaSINS_6VectorILi14ENS_15PreserveStorageEEEEENS_6traits12named_objectIT_EERKS7_"
 "_ZN4Rcpp8ArgumentC1ERKNSt7__cxx1112basic_stringIcSt11char_traitsIcESaIcEEE"
 "_ZN4Rcpp8ArgumentD1Ev"
 "_ZN4Rcpp8internal10basic_castILi14EEEP7SEXPRECS3_"
 "_ZN4Rcpp8internal10range_wrapIN9__gnu_cxx17__normal_iteratorIPKdSt6vectorIdSaIdEEEEEEP7SEXPRECT_SC_"
 "_ZN4Rcpp8internal10range_wrapIPKdEEP7SEXPRECT_S6_"
 "_ZN4Rcpp8internal11r_true_castILi14EEEP7SEXPRECS3_"
 "_ZN4Rcpp8internal11r_true_castILi19EEEP7SEXPRECS3_"
 "_ZN4Rcpp8internal12export_rangeIN9__gnu_cxx17__normal_iteratorIPdSt6vectorIdSaIdEEEEEEvP7SEXPRECT_"
 "_ZN4Rcpp8internal12primitive_asIdEET_P7SEXPREC"
 "_ZN4Rcpp8internal13generic_proxyILi19ENS_15PreserveStorageEE3setEP7SEXPREC"
 "_ZN4Rcpp8internal13generic_proxyILi19ENS_15PreserveStorageEE4moveEx"
 "_ZN4Rcpp8internal13generic_proxyILi19ENS_15PreserveStorageEEaSEP7SEXPREC"
 "_ZN4Rcpp8internal13generic_proxyILi19ENS_15PreserveStorageEEaSISt6vectorIdSaIdEEEERS3_RKT_"
 "_ZN4Rcpp8internal13generic_proxyILi19ENS_15PreserveStorageEEC1ERKS3_"
 "_ZN4Rcpp8internal13generic_proxyILi19ENS_15PreserveStorageEEC1ERNS_6VectorILi19ES2_EEx"
 "_ZN4Rcpp8internal13r_init_vectorILi14EEEvP7SEXPREC"
 "_ZN4Rcpp8internal13r_init_vectorILi19EEEvP7SEXPREC"
 "_ZN4Rcpp8internal13wrap_dispatchIdEEP7SEXPRECRKT_NS_6traits23wrap_type_primitive_tagE"
 "_ZN4Rcpp8internal13wrap_dispatchINS_6ShieldIP7SEXPRECEEEES4_RKT_NS_6traits21wrap_type_unknown_tagE"
 "_ZN4Rcpp8internal13wrap_dispatchINS_6VectorILi14ENS_15PreserveStorageEEEEEP7SEXPRECRKT_NS_6traits21wrap_type_unknown_tagE"
 "_ZN4Rcpp8internal13wrap_dispatchINS0_13generic_proxyILi19ENS_15PreserveStorageEEEEEP7SEXPRECRKT_NS_6traits21wrap_type_unknown_tagE"
 "_ZN4Rcpp8internal13wrap_dispatchIP7SEXPRECEES3_RKT_NS_6traits21wrap_type_unknown_tagE"
 "_ZN4Rcpp8internal13wrap_dispatchISt6vectorIdSaIdEEEEP7SEXPRECRKT_NS_6traits21wrap_type_unknown_tagE"
 "_ZN4Rcpp8internal14primitive_wrapIdEEP7SEXPRECRKT_"
 "_ZN4Rcpp8internal14Proxy_IteratorINS0_13generic_proxyILi19ENS_15PreserveStorageEEEEC1ERKS4_"
 "_ZN4Rcpp8internal14Proxy_IteratorINS0_13generic_proxyILi19ENS_15PreserveStorageEEEEC1ERKS5_"
 "_ZN4Rcpp8internal14Proxy_IteratorINS0_13generic_proxyILi19ENS_15PreserveStorageEEEEdeEv"
 "_ZN4Rcpp8internal14Proxy_IteratorINS0_13generic_proxyILi19ENS_15PreserveStorageEEEEppEv"
 "_ZN4Rcpp8internal14r_vector_startILi14EEEPNS_6traits12storage_typeIXT_EE4typeEP7SEXPREC"
 "_ZN4Rcpp8internal16getLongjumpTokenEP7SEXPREC"
 "_ZN4Rcpp8internal16NamedPlaceHolderC1Ev"
 "_ZN4Rcpp8internal16NamedPlaceHolderD1Ev"
 "_ZN4Rcpp8internal17element_converterILi14EE3getERKd"
 "_ZN4Rcpp8internal18export_range__implIN9__gnu_cxx17__normal_iteratorIPdSt6vectorIdSaIdEEEEdEEvP7SEXPRECT_NS_6traits17integral_constantIbLb0EEE"
 "_ZN4Rcpp8internal18isLongjumpSentinelEP7SEXPREC"
 "_ZN4Rcpp8internal19range_wrap_dispatchIN9__gnu_cxx17__normal_iteratorIPKdSt6vectorIdSaIdEEEEdEEP7SEXPRECT_SC_"
 "_ZN4Rcpp8internal19range_wrap_dispatchIPKddEEP7SEXPRECT_S6_"
 "_ZN4Rcpp8internal19Rcpp_protected_evalEPv"
 "_ZN4Rcpp8internal19wrap_dispatch_eigenINS_6ShieldIP7SEXPRECEEEES4_RKT_NS_6traits17integral_constantIbLb0EEE"
 "_ZN4Rcpp8internal19wrap_dispatch_eigenINS_6VectorILi14ENS_15PreserveStorageEEEEEP7SEXPRECRKT_NS_6traits17integral_constantIbLb0EEE"
 "_ZN4Rcpp8internal19wrap_dispatch_eigenINS0_13generic_proxyILi19ENS_15PreserveStorageEEEEEP7SEXPRECRKT_NS_6traits17integral_constantIbLb0EEE"
 "_ZN4Rcpp8internal19wrap_dispatch_eigenIP7SEXPRECEES3_RKT_NS_6traits17integral_constantIbLb0EEE"
 "_ZN4Rcpp8internal19wrap_dispatch_eigenISt6vectorIdSaIdEEEEP7SEXPRECRKT_NS_6traits17integral_constantIbLb0EEE"
 "_ZN4Rcpp8internal20primitive_wrap__implIdEEP7SEXPRECRKT_NS_6traits20r_type_primitive_tagE"
 "_ZN4Rcpp8internal21wrap_dispatch_unknownINS_6ShieldIP7SEXPRECEEEES4_RKT_NS_6traits17integral_constantIbLb1EEE"
 "_ZN4Rcpp8internal21wrap_dispatch_unknownINS_6VectorILi14ENS_15PreserveStorageEEEEEP7SEXPRECRKT_NS_6traits17integral_constantIbLb1EEE"
 "_ZN4Rcpp8internal21wrap_dispatch_unknownINS0_13generic_proxyILi19ENS_15PreserveStorageEEEEEP7SEXPRECRKT_NS_6traits17integral_constantIbLb1EEE"
 "_ZN4Rcpp8internal21wrap_dispatch_unknownIP7SEXPRECEES3_RKT_NS_6traits17integral_constantIbLb1EEE"
 "_ZN4Rcpp8internal21wrap_dispatch_unknownISt6vectorIdSaIdEEEEP7SEXPRECRKT_NS_6traits17integral_constantIbLb0EEE"
 "_ZN4Rcpp8internal22export_range__dispatchIN9__gnu_cxx17__normal_iteratorIPdSt6vectorIdSaIdEEEEdEEvP7SEXPRECT_NS_6traits20r_type_primitive_tagE"
 "_ZN4Rcpp8internal23convert_using_rfunctionEP7SEXPRECPKc"
 "_ZN4Rcpp8internal25generic_element_converterILi19EE3getIdEEP7SEXPRECRKT_"
 "_ZN4Rcpp8internal25generic_element_converterILi19EE3getINS_6VectorILi14ENS_15PreserveStorageEEEEEP7SEXPRECRKT_"
 "_ZN4Rcpp8internal26primitive_range_wrap__implIN9__gnu_cxx17__normal_iteratorIPKdSt6vectorIdSaIdEEEEdEEP7SEXPRECT_SC_NS_6traits17integral_constantIbLb0EEE"
 "_ZN4Rcpp8internal26primitive_range_wrap__implIPKddEEP7SEXPRECT_S6_NS_6traits17integral_constantIbLb0EEE"
 "_ZN4Rcpp8internal26primitive_wrap__impl__castIdEEP7SEXPRECRKT_NS_6traits17integral_constantIbLb0EEE"
 "_ZN4Rcpp8internal26range_wrap_dispatch___implIN9__gnu_cxx17__normal_iteratorIPKdSt6vectorIdSaIdEEEEdEEP7SEXPRECT_SC_NS_6traits20r_type_primitive_tagE"
 "_ZN4Rcpp8internal26range_wrap_dispatch___implIPKddEEP7SEXPRECT_S6_NS_6traits20r_type_primitive_tagE"
 "_ZN4Rcpp8internal27wrap_range_sugar_expressionISt6vectorIdSaIdEEEEP7SEXPRECRKT_NS_6traits17integral_constantIbLb0EEE"
 "_ZN4Rcpp8internal2asIdEET_P7SEXPRECNS_6traits20r_type_primitive_tagE"
 "_ZN4Rcpp8internal2asINS_6VectorILi14ENS_15PreserveStorageEEEEET_P7SEXPRECNS_6traits18r_type_generic_tagE"
 "_ZN4Rcpp8internal2asINS_6VectorILi19ENS_15PreserveStorageEEEEET_P7SEXPRECNS_6traits18r_type_generic_tagE"
 "_ZN4Rcpp8internal2asISt6vectorIdSaIdEEEET_P7SEXPRECNS_6traits18r_type_generic_tagE"
 "_ZN4Rcpp8internal30wrap_dispatch_unknown_iterableISt6vectorIdSaIdEEEEP7SEXPRECRKT_NS_6traits17integral_constantIbLb1EEE"
 "_ZN4Rcpp8internal32wrap_dispatch_unknown_importableINS_6ShieldIP7SEXPRECEEEES4_RKT_NS_6traits17integral_constantIbLb0EEE"
 "_ZN4Rcpp8internal32wrap_dispatch_unknown_importableINS_6VectorILi14ENS_15PreserveStorageEEEEEP7SEXPRECRKT_NS_6traits17integral_constantIbLb0EEE"
 "_ZN4Rcpp8internal32wrap_dispatch_unknown_importableINS0_13generic_proxyILi19ENS_15PreserveStorageEEEEEP7SEXPRECRKT_NS_6traits17integral_constantIbLb0EEE"
 "_ZN4Rcpp8internal32wrap_dispatch_unknown_importableIP7SEXPRECEES3_RKT_NS_6traits17integral_constantIbLb0EEE"
 "_ZN4Rcpp8internal32wrap_dispatch_unknown_importableISt6vectorIdSaIdEEEEP7SEXPRECRKT_NS_6traits17integral_constantIbLb0EEE"
 "_ZN4Rcpp8internal34primitive_range_wrap__impl__nocastIN9__gnu_cxx17__normal_iteratorIPKdSt6vectorIdSaIdEEEEdEEP7SEXPRECT_SC_St26random_access_iterator_tag"
 "_ZN4Rcpp8internal34primitive_range_wrap__impl__nocastIPKddEEP7SEXPRECT_S6_St26random_access_iterator_tag"
 "_ZN4Rcpp8internal39wrap_dispatch_unknown_iterable__logicalISt6vectorIdSaIdEEEEP7SEXPRECRKT_NS_6traits17integral_constantIbLb0EEE"
 "_ZN4Rcpp8internal48wrap_dispatch_unknown_iterable__matrix_interfaceISt6vectorIdSaIdEEEEP7SEXPRECRKT_NS_6traits17integral_constantIbLb0EEE"
 "_ZN4Rcpp8internal6casterIddEET0_T_"
 "_ZN4Rcpp8internal8EvalDataC1EP7SEXPRECS3_"
 "_ZN4Rcpp8internal8get_zeroILi14EdEET0_v"
 "_ZN4Rcpp8internal9maybeJumpEPv8Rboolean"
 "_ZN4Rcpp8RostreamILb0EEC1Ev"
 "_ZN4Rcpp8RostreamILb0EED0Ev"
 "_ZN4Rcpp8RostreamILb0EED1Ev"
 "_ZN4Rcpp8RostreamILb1EEC1Ev"
 "_ZN4Rcpp8RostreamILb1EED0Ev"
 "_ZN4Rcpp8RostreamILb1EED1Ev"
 "_ZN4Rcpp9exception18record_stack_traceEv"
 "_ZN4Rcpp9exceptionC1EPKcb"
 "_ZN4Rcpp9exceptionD0Ev"
 "_ZN4Rcpp9exceptionD1Ev"
 "_ZN5Catch11NameAndDescC1EPKcS2_"
 "_ZN5Catch11SectionInfoD1Ev"
 "_ZN5Catch13ExpressionLhsIbE13endExpressionEv"
 "_ZN5Catch13ExpressionLhsIbEC1ERNS_13ResultBuilderEb"
 "_ZN5Catch13ExpressionLhsIbED0Ev"
 "_ZN5Catch13ExpressionLhsIbED1Ev"
 "_ZN5Catch13ExpressionLhsIRKdEC1ERNS_13ResultBuilderES2_"
 "_ZN5Catch13ExpressionLhsIRKdED0Ev"
 "_ZN5Catch13ExpressionLhsIRKdED1Ev"
 "_ZN5Catch13ExpressionLhsIRKdEeqIiEENS_16BinaryExpressionIS2_LNS_8Internal8OperatorE0ERKT_EESA_"
 "_ZN5Catch13ExpressionLhsIRKiEC1ERNS_13ResultBuilderES2_"
 "_ZN5Catch13ExpressionLhsIRKiED0Ev"
 "_ZN5Catch13ExpressionLhsIRKiED1Ev"
 "_ZN5Catch13ExpressionLhsIRKiEeqIiEENS_16BinaryExpressionIS2_LNS_8Internal8OperatorE0ERKT_EESA_"
 "_ZN5Catch13ExpressionLhsIRKSt4pairIiiEEC1ERNS_13ResultBuilderES4_"
 "_ZN5Catch13ExpressionLhsIRKSt4pairIiiEED0Ev"
 "_ZN5Catch13ExpressionLhsIRKSt4pairIiiEED1Ev"
 "_ZN5Catch13ExpressionLhsIRKSt4pairIiiEEeqIS2_EENS_16BinaryExpressionIS4_LNS_8Internal8OperatorE0ERKT_EESC_"
 "_ZN5Catch13ExpressionLhsIRKSt6vectorIiSaIiEEEC1ERNS_13ResultBuilderES5_"
 "_ZN5Catch13ExpressionLhsIRKSt6vectorIiSaIiEEED0Ev"
 "_ZN5Catch13ExpressionLhsIRKSt6vectorIiSaIiEEED1Ev"
 "_ZN5Catch13ExpressionLhsIRKSt6vectorIiSaIiEEEeqIS3_EENS_16BinaryExpressionIS5_LNS_8Internal8OperatorE0ERKT_EESD_"
 "_ZN5Catch13ResultBuilderleEb"
 "_ZN5Catch13ResultBuilderleIdEENS_13ExpressionLhsIRKT_EES5_"
 "_ZN5Catch13ResultBuilderleIiEENS_13ExpressionLhsIRKT_EES5_"
 "_ZN5Catch13ResultBuilderleISt4pairIiiEEENS_13ExpressionLhsIRKT_EES7_"
 "_ZN5Catch13ResultBuilderleISt6vectorIiSaIiEEEENS_13ExpressionLhsIRKT_EES8_"
 "_ZN5Catch16BinaryExpressionIRKdLNS_8Internal8OperatorE0ERKiEC1ERNS_13ResultBuilderES2_S6_"
 "_ZN5Catch16BinaryExpressionIRKdLNS_8Internal8OperatorE0ERKiED0Ev"
 "_ZN5Catch16BinaryExpressionIRKdLNS_8Internal8OperatorE0ERKiED1Ev"
 "_ZN5Catch16BinaryExpressionIRKiLNS_8Internal8OperatorE0ES2_EC1ERNS_13ResultBuilderES2_S2_"
 "_ZN5Catch16BinaryExpressionIRKiLNS_8Internal8OperatorE0ES2_ED0Ev"
 "_ZN5Catch16BinaryExpressionIRKiLNS_8Internal8OperatorE0ES2_ED1Ev"
 "_ZN5Catch16BinaryExpressionIRKSt4pairIiiELNS_8Internal8OperatorE0ES4_EC1ERNS_13ResultBuilderES4_S4_"
 "_ZN5Catch16BinaryExpressionIRKSt4pairIiiELNS_8Internal8OperatorE0ES4_ED0Ev"
 "_ZN5Catch16BinaryExpressionIRKSt4pairIiiELNS_8Internal8OperatorE0ES4_ED1Ev"
 "_ZN5Catch16BinaryExpressionIRKSt6vectorIiSaIiEELNS_8Internal8OperatorE0ES5_EC1ERNS_13ResultBuilderES5_S5_"
 "_ZN5Catch16BinaryExpressionIRKSt6vectorIiSaIiEELNS_8Internal8OperatorE0ES5_ED0Ev"
 "_ZN5Catch16BinaryExpressionIRKSt6vectorIiSaIiEELNS_8Internal8OperatorE0ES5_ED1Ev"
 "_ZN5Catch20DecomposedExpressionC2Ev"
 "_ZN5Catch20DecomposedExpressionD2Ev"
 "_ZN5Catch6Detail13rangeToStringIN9__gnu_cxx17__normal_iteratorIPKiSt6vectorIiSaIiEEEEEENSt7__cxx1112basic_stringIcSt11char_traitsIcESaIcEEET_SG_"
 "_ZN5Catch6Detail15EnumStringMakerISt4pairIiiELb0EE7convertB5cxx11ERKS3_"
 "_ZN5Catch6Detail15StringMakerBaseILb0EE7convertISt4pairIiiEEENSt7__cxx1112basic_stringIcSt11char_traitsIcESaIcEEERKT_"
 "_ZN5Catch6isTrueEb"
 "_ZN5Catch8Internal14OperatorTraitsILNS0_8OperatorE0EE7getNameEv"
 "_ZN5Catch8Internal6opCastIdEERT_RKS2_"
 "_ZN5Catch8Internal6opCastIiEERT_RKS2_"
 "_ZN5Catch8Internal6opCastISt4pairIiiEEERT_RKS4_"
 "_ZN5Catch8Internal6opCastISt6vectorIiSaIiEEEERT_RKS5_"
 "_ZN5Catch8Internal7compareILNS0_8OperatorE0EdiEEbRKT0_RKT1_"
 "_ZN5Catch8Internal7compareILNS0_8OperatorE0EiiEEbRKT0_RKT1_"
 "_ZN5Catch8Internal7compareILNS0_8OperatorE0ESt4pairIiiES4_EEbRKT0_RKT1_"
 "_ZN5Catch8Internal7compareILNS0_8OperatorE0ESt6vectorIiSaIiEES5_EEbRKT0_RKT1_"
 "_ZN5Catch8Internal9EvaluatorIdiLNS0_8OperatorE0EE8evaluateERKdRKi"
 "_ZN5Catch8Internal9EvaluatorIiiLNS0_8OperatorE0EE8evaluateERKiS5_"
 "_ZN5Catch8Internal9EvaluatorISt4pairIiiES3_LNS0_8OperatorE0EE8evaluateERKS3_S7_"
 "_ZN5Catch8Internal9EvaluatorISt6vectorIiSaIiEES4_LNS0_8OperatorE0EE8evaluateERKS4_S8_"
 "_ZN5Catch8toStringIiSaIiEEENSt7__cxx1112basic_stringIcSt11char_traitsIcESaIcEEERKSt6vectorIT_T0_E"
 "_ZN5Catch8toStringISt4pairIiiEEENSt7__cxx1112basic_stringIcSt11char_traitsIcESaIcEEERKT_"
 "_ZN5CatchorENS_17ResultDisposition5FlagsES1_"
 "_ZN9__gnu_cxx13new_allocatorI4NodeE10deallocateEPS1_y"
 "_ZN9__gnu_cxx13new_allocatorI4NodeE7destroyIS1_EEvPT_"
 "_ZN9__gnu_cxx13new_allocatorI4NodeE8allocateEyPKv"
 "_ZN9__gnu_cxx13new_allocatorI4NodeE9constructIS1_JS1_EEEvPT_DpOT0_"
 "_ZN9__gnu_cxx13new_allocatorI4NodeEC2ERKS2_"
 "_ZN9__gnu_cxx13new_allocatorI4NodeEC2Ev"
 "_ZN9__gnu_cxx13new_allocatorI4NodeED2Ev"
 "_ZN9__gnu_cxx13new_allocatorIdE10deallocateEPdy"
 "_ZN9__gnu_cxx13new_allocatorIdE8allocateEyPKv"
 "_ZN9__gnu_cxx13new_allocatorIdEC2ERKS1_"
 "_ZN9__gnu_cxx13new_allocatorIdEC2Ev"
 "_ZN9__gnu_cxx13new_allocatorIdED2Ev"
 "_ZN9__gnu_cxx13new_allocatorIiE10deallocateEPiy"
 "_ZN9__gnu_cxx13new_allocatorIiE7destroyIiEEvPT_"
 "_ZN9__gnu_cxx13new_allocatorIiE8allocateEyPKv"
 "_ZN9__gnu_cxx13new_allocatorIiE9constructIiJRKiEEEvPT_DpOT0_"
 "_ZN9__gnu_cxx13new_allocatorIiEC2ERKS1_"
 "_ZN9__gnu_cxx13new_allocatorIiEC2Ev"
 "_ZN9__gnu_cxx13new_allocatorIiED2Ev"
 "_ZN9__gnu_cxx13new_allocatorINSt7__cxx1112basic_stringIcSt11char_traitsIcESaIcEEEE10deallocateEPS6_y"
 "_ZN9__gnu_cxx13new_allocatorINSt7__cxx1112basic_stringIcSt11char_traitsIcESaIcEEEEC2Ev"
 "_ZN9__gnu_cxx13new_allocatorINSt7__cxx1112basic_stringIcSt11char_traitsIcESaIcEEEED2Ev"
 "_ZN9__gnu_cxx13new_allocatorINSt8__detail10_Hash_nodeIdLb0EEEE10deallocateEPS3_y"
 "_ZN9__gnu_cxx13new_allocatorINSt8__detail10_Hash_nodeIdLb0EEEE7destroyIdEEvPT_"
 "_ZN9__gnu_cxx13new_allocatorINSt8__detail10_Hash_nodeIdLb0EEEE8allocateEyPKv"
 "_ZN9__gnu_cxx13new_allocatorINSt8__detail10_Hash_nodeIdLb0EEEE9constructIdJRKdEEEvPT_DpOT0_"
 "_ZN9__gnu_cxx13new_allocatorINSt8__detail10_Hash_nodeIdLb0EEEEC2Ev"
 "_ZN9__gnu_cxx13new_allocatorINSt8__detail10_Hash_nodeIdLb0EEEED2Ev"
 "_ZN9__gnu_cxx13new_allocatorIPNSt8__detail15_Hash_node_baseEE10deallocateEPS3_y"
 "_ZN9__gnu_cxx13new_allocatorIPNSt8__detail15_Hash_node_baseEE8allocateEyPKv"
 "_ZN9__gnu_cxx13new_allocatorIPNSt8__detail15_Hash_node_baseEEC2Ev"
 "_ZN9__gnu_cxx13new_allocatorIPNSt8__detail15_Hash_node_baseEED2Ev"
 "_ZN9__gnu_cxx14__alloc_traitsISaI4NodeES1_E15_S_always_equalEv"
 "_ZN9__gnu_cxx14__alloc_traitsISaI4NodeES1_E27_S_propagate_on_copy_assignEv"
 "_ZN9__gnu_cxx14__alloc_traitsISaIdEdE17_S_select_on_copyERKS1_"
 "_ZN9__gnu_cxx16__aligned_bufferIdE6_M_ptrEv"
 "_ZN9__gnu_cxx16__aligned_bufferIdE7_M_addrEv"
 "_ZN9__gnu_cxx17__normal_iteratorIP4NodeSt6vectorIS1_SaIS1_EEEC1ERKS2_"
 "_ZN9__gnu_cxx17__normal_iteratorIPdSt6vectorIdSaIdEEEC1ERKS1_"
 "_ZN9__gnu_cxx17__normal_iteratorIPiSt6vectorIiSaIiEEEC1ERKS1_"
 "_ZN9__gnu_cxx17__normal_iteratorIPK4NodeSt6vectorIS1_SaIS1_EEEC1ERKS3_"
 "_ZN9__gnu_cxx17__normal_iteratorIPK4NodeSt6vectorIS1_SaIS1_EEEppEv"
 "_ZN9__gnu_cxx17__normal_iteratorIPKdSt6vectorIdSaIdEEEC1ERKS2_"
 "_ZN9__gnu_cxx17__normal_iteratorIPKiSt6vectorIiSaIiEEEC1ERKS2_"
 "_ZN9__gnu_cxx17__normal_iteratorIPKiSt6vectorIiSaIiEEEppEv"
 "_ZN9__gnu_cxxmiIPiSt6vectorIiSaIiEEEENS_17__normal_iteratorIT_T0_E15difference_typeERKS8_SB_"
 "_ZN9__gnu_cxxmiIPKdSt6vectorIdSaIdEEEENS_17__normal_iteratorIT_T0_E15difference_typeERKS9_SC_"
 "_ZN9__gnu_cxxneIPK4NodeSt6vectorIS1_SaIS1_EEEEbRKNS_17__normal_iteratorIT_T0_EESC_"
 "_ZN9__gnu_cxxneIPKiSt6vectorIiSaIiEEEEbRKNS_17__normal_iteratorIT_T0_EESB_"
 "_ZNK10tinyformat6detail9FormatArg5toIntEv"
 "_ZNK10tinyformat6detail9FormatArg6formatERSoPKcS4_i"
 "_ZNK4Rcpp14not_compatible4whatEv"
 "_ZNK4Rcpp15PreserveStorageINS_6VectorILi14ES0_EEE5get__Ev"
 "_ZNK4Rcpp15PreserveStorageINS_6VectorILi14ES0_EEEcvP7SEXPRECEv"
 "_ZNK4Rcpp15PreserveStorageINS_6VectorILi19ES0_EEE5get__Ev"
 "_ZNK4Rcpp15PreserveStorageINS_6VectorILi19ES0_EEEcvP7SEXPRECEv"
 "_ZNK4Rcpp5ArmorIP7SEXPRECEcvS2_Ev"
 "_ZNK4Rcpp6ShieldIP7SEXPRECEcvS2_Ev"
 "_ZNK4Rcpp6traits11proxy_cacheILi19ENS_15PreserveStorageEE3getEv"
 "_ZNK4Rcpp6traits14r_vector_cacheILi14ENS_15PreserveStorageEE3getEv"
 "_ZNK4Rcpp6traits14r_vector_cacheILi14ENS_15PreserveStorageEE3refEx"
 "_ZNK4Rcpp6VectorILi14ENS_15PreserveStorageEE4sizeEv"
 "_ZNK4Rcpp6VectorILi14ENS_15PreserveStorageEEixEx"
 "_ZNK4Rcpp6VectorILi19ENS_15PreserveStorageEE4sizeEv"
 "_ZNK4Rcpp8internal13generic_proxyILi19ENS_15PreserveStorageEE3getEv"
 "_ZNK4Rcpp8internal13generic_proxyILi19ENS_15PreserveStorageEEcvP7SEXPRECEv"
 "_ZNK4Rcpp8internal13generic_proxyILi19ENS_15PreserveStorageEEcvT_IdEEv"
 "_ZNK4Rcpp8internal13generic_proxyILi19ENS_15PreserveStorageEEcvT_INS_6VectorILi14ES2_EEEEv"
 "_ZNK4Rcpp8internal13generic_proxyILi19ENS_15PreserveStorageEEcvT_INS_6VectorILi19ES2_EEEEv"
 "_ZNK4Rcpp8internal13generic_proxyILi19ENS_15PreserveStorageEEcvT_ISt6vectorIdSaIdEEEEv"
 "_ZNK4Rcpp8internal16NamedPlaceHolderixERKNSt7__cxx1112basic_stringIcSt11char_traitsIcESaIcEEE"
 "_ZNK4Rcpp9exception4whatEv"
 "_ZNK5Catch13ExpressionLhsIbE21reconstructExpressionERNSt7__cxx1112basic_stringIcSt11char_traitsIcESaIcEEE"
 "_ZNK5Catch13ExpressionLhsIRKdE17captureExpressionILNS_8Internal8OperatorE0EKiEENS_16BinaryExpressionIS2_XT_ERT0_EESA_"
 "_ZNK5Catch13ExpressionLhsIRKdE21reconstructExpressionERNSt7__cxx1112basic_stringIcSt11char_traitsIcESaIcEEE"
 "_ZNK5Catch13ExpressionLhsIRKiE17captureExpressionILNS_8Internal8OperatorE0ES1_EENS_16BinaryExpressionIS2_XT_ERT0_EES9_"
 "_ZNK5Catch13ExpressionLhsIRKiE21reconstructExpressionERNSt7__cxx1112basic_stringIcSt11char_traitsIcESaIcEEE"
 "_ZNK5Catch13ExpressionLhsIRKSt4pairIiiEE17captureExpressionILNS_8Internal8OperatorE0ES3_EENS_16BinaryExpressionIS4_XT_ERT0_EESB_"
 "_ZNK5Catch13ExpressionLhsIRKSt4pairIiiEE21reconstructExpressionERNSt7__cxx1112basic_stringIcSt11char_traitsIcESaIcEEE"
 "_ZNK5Catch13ExpressionLhsIRKSt6vectorIiSaIiEEE17captureExpressionILNS_8Internal8OperatorE0ES4_EENS_16BinaryExpressionIS5_XT_ERT0_EESC_"
 "_ZNK5Catch13ExpressionLhsIRKSt6vectorIiSaIiEEE21reconstructExpressionERNSt7__cxx1112basic_stringIcSt11char_traitsIcESaIcEEE"
 "_ZNK5Catch16BinaryExpressionIRKdLNS_8Internal8OperatorE0ERKiE13endExpressionEv"
 "_ZNK5Catch16BinaryExpressionIRKdLNS_8Internal8OperatorE0ERKiE18isBinaryExpressionEv"
 "_ZNK5Catch16BinaryExpressionIRKdLNS_8Internal8OperatorE0ERKiE21reconstructExpressionERNSt7__cxx1112basic_stringIcSt11char_traitsIcESaIcEEE"
 "_ZNK5Catch16BinaryExpressionIRKiLNS_8Internal8OperatorE0ES2_E13endExpressionEv"
 "_ZNK5Catch16BinaryExpressionIRKiLNS_8Internal8OperatorE0ES2_E18isBinaryExpressionEv"
 "_ZNK5Catch16BinaryExpressionIRKiLNS_8Internal8OperatorE0ES2_E21reconstructExpressionERNSt7__cxx1112basic_stringIcSt11char_traitsIcESaIcEEE"
 "_ZNK5Catch16BinaryExpressionIRKSt4pairIiiELNS_8Internal8OperatorE0ES4_E13endExpressionEv"
 "_ZNK5Catch16BinaryExpressionIRKSt4pairIiiELNS_8Internal8OperatorE0ES4_E18isBinaryExpressionEv"
 "_ZNK5Catch16BinaryExpressionIRKSt4pairIiiELNS_8Internal8OperatorE0ES4_E21reconstructExpressionERNSt7__cxx1112basic_stringIcSt11char_traitsIcESaIcEEE"
 "_ZNK5Catch16BinaryExpressionIRKSt6vectorIiSaIiEELNS_8Internal8OperatorE0ES5_E13endExpressionEv"
 "_ZNK5Catch16BinaryExpressionIRKSt6vectorIiSaIiEELNS_8Internal8OperatorE0ES5_E18isBinaryExpressionEv"
 "_ZNK5Catch16BinaryExpressionIRKSt6vectorIiSaIiEELNS_8Internal8OperatorE0ES5_E21reconstructExpressionERNSt7__cxx1112basic_stringIcSt11char_traitsIcESaIcEEE"
 "_ZNK5Catch20DecomposedExpression18isBinaryExpressionEv"
 "_ZNK9__gnu_cxx13new_allocatorI4NodeE11_M_max_sizeEv"
 "_ZNK9__gnu_cxx13new_allocatorI4NodeE8max_sizeEv"
 "_ZNK9__gnu_cxx13new_allocatorIdE11_M_max_sizeEv"
 "_ZNK9__gnu_cxx13new_allocatorIdE8max_sizeEv"
 "_ZNK9__gnu_cxx13new_allocatorIiE11_M_max_sizeEv"
 "_ZNK9__gnu_cxx13new_allocatorIiE8max_sizeEv"
 "_ZNK9__gnu_cxx13new_allocatorINSt8__detail10_Hash_nodeIdLb0EEEE11_M_max_sizeEv"
 "_ZNK9__gnu_cxx13new_allocatorIPNSt8__detail15_Hash_node_baseEE11_M_max_sizeEv"
 "_ZNK9__gnu_cxx16__aligned_bufferIdE6_M_ptrEv"
 "_ZNK9__gnu_cxx16__aligned_bufferIdE7_M_addrEv"
 "_ZNK9__gnu_cxx17__normal_iteratorIP4NodeSt6vectorIS1_SaIS1_EEE4baseEv"
 "_ZNK9__gnu_cxx17__normal_iteratorIP4NodeSt6vectorIS1_SaIS1_EEEplEx"
 "_ZNK9__gnu_cxx17__normal_iteratorIPdSt6vectorIdSaIdEEE4baseEv"
 "_ZNK9__gnu_cxx17__normal_iteratorIPdSt6vectorIdSaIdEEEplEx"
 "_ZNK9__gnu_cxx17__normal_iteratorIPiSt6vectorIiSaIiEEE4baseEv"
 "_ZNK9__gnu_cxx17__normal_iteratorIPK4NodeSt6vectorIS1_SaIS1_EEE4baseEv"
 "_ZNK9__gnu_cxx17__normal_iteratorIPK4NodeSt6vectorIS1_SaIS1_EEEdeEv"
 "_ZNK9__gnu_cxx17__normal_iteratorIPKdSt6vectorIdSaIdEEE4baseEv"
 "_ZNK9__gnu_cxx17__normal_iteratorIPKdSt6vectorIdSaIdEEEixEx"
 "_ZNK9__gnu_cxx17__normal_iteratorIPKiSt6vectorIiSaIiEEE4baseEv"
 "_ZNK9__gnu_cxx17__normal_iteratorIPKiSt6vectorIiSaIiEEEdeEv"
 "_ZNKSt10_HashtableIddSaIdENSt8__detail9_IdentityESt8equal_toIdESt4hashIdENS1_18_Mod_range_hashingENS1_20_Default_ranged_hashENS1_20_Prime_rehash_policyENS1_17_Hashtable_traitsILb0ELb1ELb1EEEE12_M_find_nodeEyRKdy"
 "_ZNKSt10_HashtableIddSaIdENSt8__detail9_IdentityESt8equal_toIdESt4hashIdENS1_18_Mod_range_hashingENS1_20_Default_ranged_hashENS1_20_Prime_rehash_policyENS1_17_Hashtable_traitsILb0ELb1ELb1EEEE15_M_bucket_beginEy"
 "_ZNKSt10_HashtableIddSaIdENSt8__detail9_IdentityESt8equal_toIdESt4hashIdENS1_18_Mod_range_hashingENS1_20_Default_ranged_hashENS1_20_Prime_rehash_policyENS1_17_Hashtable_traitsILb0ELb1ELb1EEEE15_M_bucket_indexEPNS1_10_Hash_nodeIdLb0EEE"
 "_ZNKSt10_HashtableIddSaIdENSt8__detail9_IdentityESt8equal_toIdESt4hashIdENS1_18_Mod_range_hashingENS1_20_Default_ranged_hashENS1_20_Prime_rehash_policyENS1_17_Hashtable_traitsILb0ELb1ELb1EEEE15_M_bucket_indexERKdy"
 "_ZNKSt10_HashtableIddSaIdENSt8__detail9_IdentityESt8equal_toIdESt4hashIdENS1_18_Mod_range_hashingENS1_20_Default_ranged_hashENS1_20_Prime_rehash_policyENS1_17_Hashtable_traitsILb0ELb1ELb1EEEE19_M_find_before_nodeEyRKdy"
 "_ZNKSt10_HashtableIddSaIdENSt8__detail9_IdentityESt8equal_toIdESt4hashIdENS1_18_Mod_range_hashingENS1_20_Default_ranged_hashENS1_20_Prime_rehash_policyENS1_17_Hashtable_traitsILb0ELb1ELb1EEEE21_M_uses_single_bucketEPPNS1_15_Hash_node_baseE"
 "_ZNKSt10_HashtableIddSaIdENSt8__detail9_IdentityESt8equal_toIdESt4hashIdENS1_18_Mod_range_hashingENS1_20_Default_ranged_hashENS1_20_Prime_rehash_policyENS1_17_Hashtable_traitsILb0ELb1ELb1EEEE5countERKd"
 "_ZNKSt10_HashtableIddSaIdENSt8__detail9_IdentityESt8equal_toIdESt4hashIdENS1_18_Mod_range_hashingENS1_20_Default_ranged_hashENS1_20_Prime_rehash_policyENS1_17_Hashtable_traitsILb0ELb1ELb1EEEE8_M_beginEv"
 "_ZNKSt12_Vector_baseI4NodeSaIS0_EE13get_allocatorEv"
 "_ZNKSt12_Vector_baseI4NodeSaIS0_EE19_M_get_Tp_allocatorEv"
 "_ZNKSt12_Vector_baseIdSaIdEE19_M_get_Tp_allocatorEv"
 "_ZNKSt12_Vector_baseIiSaIiEE19_M_get_Tp_allocatorEv"
 "_ZNKSt13move_iteratorIP4NodeE4baseEv"
 "_ZNKSt13move_iteratorIP4NodeEdeEv"
 "_ZNKSt13move_iteratorIPiE4baseEv"
 "_ZNKSt13unordered_setIdSt4hashIdESt8equal_toIdESaIdEE5countERKd"
 "_ZNKSt16initializer_listI4NodeE3endEv"
 "_ZNKSt16initializer_listI4NodeE4sizeEv"
 "_ZNKSt16initializer_listI4NodeE5beginEv"
 "_ZNKSt16initializer_listIdE3endEv"
 "_ZNKSt16initializer_listIdE4sizeEv"
 "_ZNKSt16initializer_listIdE5beginEv"
 "_ZNKSt16initializer_listIiE3endEv"
 "_ZNKSt16initializer_listIiE4sizeEv"
 "_ZNKSt16initializer_listIiE5beginEv"
 "_ZNKSt4hashIdEclEd"
 "_ZNKSt6vectorI4NodeSaIS0_EE12_M_check_lenEyPKc"
 "_ZNKSt6vectorI4NodeSaIS0_EE3endEv"
 "_ZNKSt6vectorI4NodeSaIS0_EE4sizeEv"
 "_ZNKSt6vectorI4NodeSaIS0_EE5beginEv"
 "_ZNKSt6vectorI4NodeSaIS0_EE8capacityEv"
 "_ZNKSt6vectorI4NodeSaIS0_EE8max_sizeEv"
 "_ZNKSt6vectorIdSaIdEE3endEv"
 "_ZNKSt6vectorIdSaIdEE4sizeEv"
 "_ZNKSt6vectorIdSaIdEE5beginEv"
 "_ZNKSt6vectorIdSaIdEE8capacityEv"
 "_ZNKSt6vectorIdSaIdEEixEy"
 "_ZNKSt6vectorIiSaIiEE12_M_check_lenEyPKc"
 "_ZNKSt6vectorIiSaIiEE3endEv"
 "_ZNKSt6vectorIiSaIiEE4sizeEv"
 "_ZNKSt6vectorIiSaIiEE5beginEv"
 "_ZNKSt6vectorIiSaIiEE8max_sizeEv"
 "_ZNKSt8__detail10_AllocNodeISaINS_10_Hash_nodeIdLb0EEEEEclIRKdEEPS2_OT_"
 "_ZNKSt8__detail10_Hash_nodeIdLb0EE7_M_nextEv"
 "_ZNKSt8__detail15_Hash_code_baseIddNS_9_IdentityESt4hashIdENS_18_Mod_range_hashingENS_20_Default_ranged_hashELb0EE10_M_extractEv"
 "_ZNKSt8__detail15_Hash_code_baseIddNS_9_IdentityESt4hashIdENS_18_Mod_range_hashingENS_20_Default_ranged_hashELb0EE12_M_hash_codeERKd"
 "_ZNKSt8__detail15_Hash_code_baseIddNS_9_IdentityESt4hashIdENS_18_Mod_range_hashingENS_20_Default_ranged_hashELb0EE13_M_store_codeEPNS_10_Hash_nodeIdLb0EEEy"
 "_ZNKSt8__detail15_Hash_code_baseIddNS_9_IdentityESt4hashIdENS_18_Mod_range_hashingENS_20_Default_ranged_hashELb0EE15_M_bucket_indexEPKNS_10_Hash_nodeIdLb0EEEy"
 "_ZNKSt8__detail15_Hash_code_baseIddNS_9_IdentityESt4hashIdENS_18_Mod_range_hashingENS_20_Default_ranged_hashELb0EE15_M_bucket_indexERKdyy"
 "_ZNKSt8__detail15_Hash_code_baseIddNS_9_IdentityESt4hashIdENS_18_Mod_range_hashingENS_20_Default_ranged_hashELb0EE5_M_h1Ev"
 "_ZNKSt8__detail15_Hash_code_baseIddNS_9_IdentityESt4hashIdENS_18_Mod_range_hashingENS_20_Default_ranged_hashELb0EE5_M_h2Ev"
 "_ZNKSt8__detail15_Hashtable_baseIddNS_9_IdentityESt8equal_toIdESt4hashIdENS_18_Mod_range_hashingENS_20_Default_ranged_hashENS_17_Hashtable_traitsILb0ELb1ELb1EEEE5_M_eqEv"
 "_ZNKSt8__detail15_Hashtable_baseIddNS_9_IdentityESt8equal_toIdESt4hashIdENS_18_Mod_range_hashingENS_20_Default_ranged_hashENS_17_Hashtable_traitsILb0ELb1ELb1EEEE9_M_equalsERKdyPNS_10_Hash_nodeIdLb0EEE"
 "_ZNKSt8__detail18_Mod_range_hashingclEyy"
 "_ZNKSt8__detail20_Prime_rehash_policy8_M_stateEv"
 "_ZNKSt8__detail21_Hash_node_value_baseIdE4_M_vEv"
 "_ZNKSt8__detail21_Hash_node_value_baseIdE9_M_valptrEv"
 "_ZNKSt8__detail21_Hashtable_ebo_helperILi0ENS_9_IdentityELb1EE7_M_cgetEv"
 "_ZNKSt8__detail21_Hashtable_ebo_helperILi0ESt8equal_toIdELb1EE7_M_cgetEv"
 "_ZNKSt8__detail21_Hashtable_ebo_helperILi1ESt4hashIdELb1EE7_M_cgetEv"
 "_ZNKSt8__detail21_Hashtable_ebo_helperILi2ENS_18_Mod_range_hashingELb1EE7_M_cgetEv"
 "_ZNKSt8__detail9_IdentityclIRdEEOT_S4_"
 "_ZNKSt8__detail9_IdentityclIRKdEEOT_S5_"
 "_ZNKSt8equal_toIdEclERKdS2_"
 "_ZNKSt8ios_base5flagsEv"
 "_ZNKSt8ios_base5widthEv"
 "_ZNKSt8ios_base9precisionEv"
 "_ZNSaI4NodeEC1ERKS0_"
 "_ZNSaI4NodeEC1Ev"
 "_ZNSaI4NodeEC2ERKS0_"
 "_ZNSaI4NodeEC2Ev"
 "_ZNSaI4NodeED1Ev"
 "_ZNSaI4NodeED2Ev"
 "_ZNSaIdEC1ERKS_"
 "_ZNSaIdEC1Ev"
 "_ZNSaIdEC2ERKS_"
 "_ZNSaIdED1Ev"
 "_ZNSaIdED2Ev"
 "_ZNSaIiEC1ERKS_"
 "_ZNSaIiEC1Ev"
 "_ZNSaIiEC2ERKS_"
 "_ZNSaIiEC2Ev"
 "_ZNSaIiED1Ev"
 "_ZNSaIiED2Ev"
 "_ZNSaINSt7__cxx1112basic_stringIcSt11char_traitsIcESaIcEEEEC2Ev"
 "_ZNSaINSt7__cxx1112basic_stringIcSt11char_traitsIcESaIcEEEED2Ev"
 "_ZNSaINSt8__detail10_Hash_nodeIdLb0EEEEC2Ev"
 "_ZNSaINSt8__detail10_Hash_nodeIdLb0EEEED2Ev"
 "_ZNSaIPNSt8__detail15_Hash_node_baseEEC1INS_10_Hash_nodeIdLb0EEEEERKSaIT_E"
 "_ZNSaIPNSt8__detail15_Hash_node_baseEED1Ev"
 "_ZNSt10_Hash_impl4hashEPKvyy"
 "_ZNSt10_Hash_impl4hashIdEEyRKT_"
 "_ZNSt10_HashtableIddSaIdENSt8__detail9_IdentityESt8equal_toIdESt4hashIdENS1_18_Mod_range_hashingENS1_20_Default_ranged_hashENS1_20_Prime_rehash_policyENS1_17_Hashtable_traitsILb0ELb1ELb1EEEE12_Scoped_nodeC1EPNS1_10_Hash_nodeIdLb0EEEPNS1_16_Hashtable_allocISaISF_EEE"
 "_ZNSt10_HashtableIddSaIdENSt8__detail9_IdentityESt8equal_toIdESt4hashIdENS1_18_Mod_range_hashingENS1_20_Default_ranged_hashENS1_20_Prime_rehash_policyENS1_17_Hashtable_traitsILb0ELb1ELb1EEEE12_Scoped_nodeD1Ev"
 "_ZNSt10_HashtableIddSaIdENSt8__detail9_IdentityESt8equal_toIdESt4hashIdENS1_18_Mod_range_hashingENS1_20_Default_ranged_hashENS1_20_Prime_rehash_policyENS1_17_Hashtable_traitsILb0ELb1ELb1EEEE13_M_rehash_auxEySt17integral_constantIbLb1EE"
 "_ZNSt10_HashtableIddSaIdENSt8__detail9_IdentityESt8equal_toIdESt4hashIdENS1_18_Mod_range_hashingENS1_20_Default_ranged_hashENS1_20_Prime_rehash_policyENS1_17_Hashtable_traitsILb0ELb1ELb1EEEE19_M_allocate_bucketsEy"
 "_ZNSt10_HashtableIddSaIdENSt8__detail9_IdentityESt8equal_toIdESt4hashIdENS1_18_Mod_range_hashingENS1_20_Default_ranged_hashENS1_20_Prime_rehash_policyENS1_17_Hashtable_traitsILb0ELb1ELb1EEEE21_M_deallocate_bucketsEPPNS1_15_Hash_node_baseEy"
 "_ZNSt10_HashtableIddSaIdENSt8__detail9_IdentityESt8equal_toIdESt4hashIdENS1_18_Mod_range_hashingENS1_20_Default_ranged_hashENS1_20_Prime_rehash_policyENS1_17_Hashtable_traitsILb0ELb1ELb1EEEE21_M_deallocate_bucketsEv"
 "_ZNSt10_HashtableIddSaIdENSt8__detail9_IdentityESt8equal_toIdESt4hashIdENS1_18_Mod_range_hashingENS1_20_Default_ranged_hashENS1_20_Prime_rehash_policyENS1_17_Hashtable_traitsILb0ELb1ELb1EEEE21_M_insert_unique_nodeERKdyyPNS1_10_Hash_nodeIdLb0EEEy"
 "_ZNSt10_HashtableIddSaIdENSt8__detail9_IdentityESt8equal_toIdESt4hashIdENS1_18_Mod_range_hashingENS1_20_Default_ranged_hashENS1_20_Prime_rehash_policyENS1_17_Hashtable_traitsILb0ELb1ELb1EEEE22_M_insert_bucket_beginEyPNS1_10_Hash_nodeIdLb0EEE"
 "_ZNSt10_HashtableIddSaIdENSt8__detail9_IdentityESt8equal_toIdESt4hashIdENS1_18_Mod_range_hashingENS1_20_Default_ranged_hashENS1_20_Prime_rehash_policyENS1_17_Hashtable_traitsILb0ELb1ELb1EEEE5clearEv"
 "_ZNSt10_HashtableIddSaIdENSt8__detail9_IdentityESt8equal_toIdESt4hashIdENS1_18_Mod_range_hashingENS1_20_Default_ranged_hashENS1_20_Prime_rehash_policyENS1_17_Hashtable_traitsILb0ELb1ELb1EEEE9_M_insertIRKdNS1_10_AllocNodeISaINS1_10_Hash_nodeIdLb0EEEEEEEESt4pairINS1_14_Node_iteratorIdLb1ELb0EEEbEOT_RKT0_St17integral_constantIbLb1EEy"
 "_ZNSt10_HashtableIddSaIdENSt8__detail9_IdentityESt8equal_toIdESt4hashIdENS1_18_Mod_range_hashingENS1_20_Default_ranged_hashENS1_20_Prime_rehash_policyENS1_17_Hashtable_traitsILb0ELb1ELb1EEEE9_M_rehashEyRKy"
 "_ZNSt10_HashtableIddSaIdENSt8__detail9_IdentityESt8equal_toIdESt4hashIdENS1_18_Mod_range_hashingENS1_20_Default_ranged_hashENS1_20_Prime_rehash_policyENS1_17_Hashtable_traitsILb0ELb1ELb1EEEEC1Ev"
 "_ZNSt10_HashtableIddSaIdENSt8__detail9_IdentityESt8equal_toIdESt4hashIdENS1_18_Mod_range_hashingENS1_20_Default_ranged_hashENS1_20_Prime_rehash_policyENS1_17_Hashtable_traitsILb0ELb1ELb1EEEED1Ev"
 "_ZNSt11__copy_moveILb0ELb1ESt26random_access_iterator_tagE8__copy_mI4NodeEEPT_PKS4_S7_S5_"
 "_ZNSt11__copy_moveILb0ELb1ESt26random_access_iterator_tagE8__copy_mIdEEPT_PKS3_S6_S4_"
 "_ZNSt11__copy_moveILb0ELb1ESt26random_access_iterator_tagE8__copy_mIiEEPT_PKS3_S6_S4_"
 "_ZNSt11__copy_moveILb1ELb1ESt26random_access_iterator_tagE8__copy_mIiEEPT_PKS3_S6_S4_"
 "_ZNSt11char_traitsIcE12to_char_typeERKi"
 "_ZNSt11char_traitsIcE3eofEv"
 "_ZNSt12_Destroy_auxILb0EE9__destroyIPNSt7__cxx1112basic_stringIcSt11char_traitsIcESaIcEEEEEvT_S9_"
 "_ZNSt12_Destroy_auxILb1EE9__destroyIN9__gnu_cxx17__normal_iteratorIP4NodeSt6vectorIS4_SaIS4_EEEEEEvT_SA_"
 "_ZNSt12_Destroy_auxILb1EE9__destroyIP4NodeEEvT_S4_"
 "_ZNSt12_Destroy_auxILb1EE9__destroyIPdEEvT_S3_"
 "_ZNSt12_Destroy_auxILb1EE9__destroyIPiEEvT_S3_"
 "_ZNSt12_Vector_baseI4NodeSaIS0_EE11_M_allocateEy"
 "_ZNSt12_Vector_baseI4NodeSaIS0_EE12_Vector_implC1ERKS1_"
 "_ZNSt12_Vector_baseI4NodeSaIS0_EE12_Vector_implC1Ev"
 "_ZNSt12_Vector_baseI4NodeSaIS0_EE12_Vector_implD1Ev"
 "_ZNSt12_Vector_baseI4NodeSaIS0_EE13_M_deallocateEPS0_y"
 "_ZNSt12_Vector_baseI4NodeSaIS0_EE17_Vector_impl_data12_M_copy_dataERKS3_"
 "_ZNSt12_Vector_baseI4NodeSaIS0_EE17_Vector_impl_data12_M_swap_dataERS3_"
 "_ZNSt12_Vector_baseI4NodeSaIS0_EE17_Vector_impl_dataC1Ev"
 "_ZNSt12_Vector_baseI4NodeSaIS0_EE17_Vector_impl_dataC2Ev"
 "_ZNSt12_Vector_baseI4NodeSaIS0_EE19_M_get_Tp_allocatorEv"
 "_ZNSt12_Vector_baseI4NodeSaIS0_EEC2ERKS1_"
 "_ZNSt12_Vector_baseI4NodeSaIS0_EEC2Ev"
 "_ZNSt12_Vector_baseI4NodeSaIS0_EED2Ev"
 "_ZNSt12_Vector_baseIdSaIdEE11_M_allocateEy"
 "_ZNSt12_Vector_baseIdSaIdEE12_Vector_implC1EOS2_"
 "_ZNSt12_Vector_baseIdSaIdEE12_Vector_implC1ERKS0_"
 "_ZNSt12_Vector_baseIdSaIdEE12_Vector_implD1Ev"
 "_ZNSt12_Vector_baseIdSaIdEE13_M_deallocateEPdy"
 "_ZNSt12_Vector_baseIdSaIdEE17_M_create_storageEy"
 "_ZNSt12_Vector_baseIdSaIdEE17_Vector_impl_dataC2EOS2_"
 "_ZNSt12_Vector_baseIdSaIdEE17_Vector_impl_dataC2Ev"
 "_ZNSt12_Vector_baseIdSaIdEE19_M_get_Tp_allocatorEv"
 "_ZNSt12_Vector_baseIdSaIdEEC2EOS1_"
 "_ZNSt12_Vector_baseIdSaIdEEC2ERKS0_"
 "_ZNSt12_Vector_baseIdSaIdEEC2EyRKS0_"
 "_ZNSt12_Vector_baseIdSaIdEED2Ev"
 "_ZNSt12_Vector_baseIiSaIiEE11_M_allocateEy"
 "_ZNSt12_Vector_baseIiSaIiEE12_Vector_implC1ERKS0_"
 "_ZNSt12_Vector_baseIiSaIiEE12_Vector_implC1Ev"
 "_ZNSt12_Vector_baseIiSaIiEE12_Vector_implD1Ev"
 "_ZNSt12_Vector_baseIiSaIiEE13_M_deallocateEPiy"
 "_ZNSt12_Vector_baseIiSaIiEE17_Vector_impl_dataC2Ev"
 "_ZNSt12_Vector_baseIiSaIiEE19_M_get_Tp_allocatorEv"
 "_ZNSt12_Vector_baseIiSaIiEEC2ERKS0_"
 "_ZNSt12_Vector_baseIiSaIiEEC2Ev"
 "_ZNSt12_Vector_baseIiSaIiEED2Ev"
 "_ZNSt12_Vector_baseINSt7__cxx1112basic_stringIcSt11char_traitsIcESaIcEEESaIS5_EE12_Vector_implC1Ev"
 "_ZNSt12_Vector_baseINSt7__cxx1112basic_stringIcSt11char_traitsIcESaIcEEESaIS5_EE12_Vector_implD1Ev"
 "_ZNSt12_Vector_baseINSt7__cxx1112basic_stringIcSt11char_traitsIcESaIcEEESaIS5_EE13_M_deallocateEPS5_y"
 "_ZNSt12_Vector_baseINSt7__cxx1112basic_stringIcSt11char_traitsIcESaIcEEESaIS5_EE17_Vector_impl_dataC2Ev"
 "_ZNSt12_Vector_baseINSt7__cxx1112basic_stringIcSt11char_traitsIcESaIcEEESaIS5_EE19_M_get_Tp_allocatorEv"
 "_ZNSt12_Vector_baseINSt7__cxx1112basic_stringIcSt11char_traitsIcESaIcEEESaIS5_EEC2Ev"
 "_ZNSt12_Vector_baseINSt7__cxx1112basic_stringIcSt11char_traitsIcESaIcEEESaIS5_EED2Ev"
 "_ZNSt13move_iteratorIP4NodeEC1ES1_"
 "_ZNSt13move_iteratorIP4NodeEppEv"
 "_ZNSt13move_iteratorIPiEC1ES0_"
 "_ZNSt13unordered_setIdSt4hashIdESt8equal_toIdESaIdEE6insertERKd"
 "_ZNSt13unordered_setIdSt4hashIdESt8equal_toIdESaIdEEC1Ev"
 "_ZNSt13unordered_setIdSt4hashIdESt8equal_toIdESaIdEED1Ev"
 "_ZNSt14pointer_traitsIPNSt8__detail10_Hash_nodeIdLb0EEEE10pointer_toERS2_"
 "_ZNSt14pointer_traitsIPPNSt8__detail15_Hash_node_baseEE10pointer_toERS2_"
 "_ZNSt16allocator_traitsISaI4NodeEE10deallocateERS1_PS0_y"
 "_ZNSt16allocator_traitsISaI4NodeEE7destroyIS0_EEvRS1_PT_"
 "_ZNSt16allocator_traitsISaI4NodeEE8allocateERS1_y"
 "_ZNSt16allocator_traitsISaI4NodeEE8max_sizeERKS1_"
 "_ZNSt16allocator_traitsISaI4NodeEE9constructIS0_JS0_EEEvRS1_PT_DpOT0_"
 "_ZNSt16allocator_traitsISaIdEE10deallocateERS0_Pdy"
 "_ZNSt16allocator_traitsISaIdEE37select_on_container_copy_constructionERKS0_"
 "_ZNSt16allocator_traitsISaIdEE8allocateERS0_y"
 "_ZNSt16allocator_traitsISaIdEE8max_sizeERKS0_"
 "_ZNSt16allocator_traitsISaIiEE10deallocateERS0_Piy"
 "_ZNSt16allocator_traitsISaIiEE7destroyIiEEvRS0_PT_"
 "_ZNSt16allocator_traitsISaIiEE8allocateERS0_y"
 "_ZNSt16allocator_traitsISaIiEE8max_sizeERKS0_"
 "_ZNSt16allocator_traitsISaIiEE9constructIiJRKiEEEvRS0_PT_DpOT0_"
 "_ZNSt16allocator_traitsISaINSt7__cxx1112basic_stringIcSt11char_traitsIcESaIcEEEEE10deallocateERS6_PS5_y"
 "_ZNSt16allocator_traitsISaINSt8__detail10_Hash_nodeIdLb0EEEEE10deallocateERS3_PS2_y"
 "_ZNSt16allocator_traitsISaINSt8__detail10_Hash_nodeIdLb0EEEEE7destroyIdEEvRS3_PT_"
 "_ZNSt16allocator_traitsISaINSt8__detail10_Hash_nodeIdLb0EEEEE8allocateERS3_y"
 "_ZNSt16allocator_traitsISaINSt8__detail10_Hash_nodeIdLb0EEEEE9constructIdJRKdEEEvRS3_PT_DpOT0_"
 "_ZNSt16allocator_traitsISaIPNSt8__detail15_Hash_node_baseEEE10deallocateERS3_PS2_y"
 "_ZNSt16allocator_traitsISaIPNSt8__detail15_Hash_node_baseEEE8allocateERS3_y"
 "_ZNSt20__uninitialized_copyILb0EE13__uninit_copyIN9__gnu_cxx17__normal_iteratorIPK4NodeSt6vectorIS4_SaIS4_EEEEPS4_EET0_T_SD_SC_"
 "_ZNSt20__uninitialized_copyILb0EE13__uninit_copyIP4NodeS3_EET0_T_S5_S4_"
 "_ZNSt20__uninitialized_copyILb0EE13__uninit_copyIPK4NodePS2_EET0_T_S7_S6_"
 "_ZNSt20__uninitialized_copyILb0EE13__uninit_copyISt13move_iteratorIP4NodeES4_EET0_T_S7_S6_"
 "_ZNSt20__uninitialized_copyILb1EE13__uninit_copyIN9__gnu_cxx17__normal_iteratorIPKdSt6vectorIdSaIdEEEEPdEET0_T_SC_SB_"
 "_ZNSt20__uninitialized_copyILb1EE13__uninit_copyIPdS2_EET0_T_S4_S3_"
 "_ZNSt20__uninitialized_copyILb1EE13__uninit_copyIPKdPdEET0_T_S6_S5_"
 "_ZNSt20__uninitialized_copyILb1EE13__uninit_copyIPKiPiEET0_T_S6_S5_"
 "_ZNSt20__uninitialized_copyILb1EE13__uninit_copyISt13move_iteratorIPiES3_EET0_T_S6_S5_"
 "_ZNSt27__uninitialized_default_n_1ILb0EE18__uninit_default_nIP4NodeyEET_S4_T0_"
 "_ZNSt27__uninitialized_default_n_1ILb1EE18__uninit_default_nIPdyEET_S3_T0_"
 "_ZNSt4pairIiiEaSEOS0_"
 "_ZNSt4pairIiiEC1IiiLb1EEEOT_OT0_"
 "_ZNSt4pairIiiEC1IRiS2_Lb1EEEOT_OT0_"
 "_ZNSt4pairINSt8__detail14_Node_iteratorIdLb1ELb0EEEbEC1IRS2_bLb1EEEOT_OT0_"
 "_ZNSt4pairINSt8__detail14_Node_iteratorIdLb1ELb0EEEbEC1IS2_bLb1EEEOT_OT0_"
 "_ZNSt6vectorI4NodeSaIS0_EE11_S_max_sizeERKS1_"
 "_ZNSt6vectorI4NodeSaIS0_EE11_S_relocateEPS0_S3_S3_RS1_"
 "_ZNSt6vectorI4NodeSaIS0_EE14_M_move_assignEOS2_St17integral_constantIbLb1EE"
 "_ZNSt6vectorI4NodeSaIS0_EE14_S_do_relocateEPS0_S3_S3_RS1_St17integral_constantIbLb1EE"
 "_ZNSt6vectorI4NodeSaIS0_EE15_M_erase_at_endEPS0_"
 "_ZNSt6vectorI4NodeSaIS0_EE15_S_use_relocateEv"
 "_ZNSt6vectorI4NodeSaIS0_EE17_M_default_appendEy"
 "_ZNSt6vectorI4NodeSaIS0_EE17_S_check_init_lenEyRKS1_"
 "_ZNSt6vectorI4NodeSaIS0_EE19_M_range_initializeIPKS0_EEvT_S6_St20forward_iterator_tag"
 "_ZNSt6vectorI4NodeSaIS0_EE19_S_nothrow_relocateESt17integral_constantIbLb1EE"
 "_ZNSt6vectorI4NodeSaIS0_EE20_M_allocate_and_copyIN9__gnu_cxx17__normal_iteratorIPKS0_S2_EEEEPS0_yT_SA_"
 "_ZNSt6vectorI4NodeSaIS0_EE3endEv"
 "_ZNSt6vectorI4NodeSaIS0_EE5beginEv"
 "_ZNSt6vectorI4NodeSaIS0_EE5clearEv"
 "_ZNSt6vectorI4NodeSaIS0_EE6resizeEy"
 "_ZNSt6vectorI4NodeSaIS0_EEaSEOS2_"
 "_ZNSt6vectorI4NodeSaIS0_EEaSERKS2_"
 "_ZNSt6vectorI4NodeSaIS0_EEC1ERKS1_"
 "_ZNSt6vectorI4NodeSaIS0_EEC1ESt16initializer_listIS0_ERKS1_"
 "_ZNSt6vectorI4NodeSaIS0_EEC1Ev"
 "_ZNSt6vectorI4NodeSaIS0_EED1Ev"
 "_ZNSt6vectorI4NodeSaIS0_EEixEy"
 "_ZNSt6vectorIdSaIdEE11_S_max_sizeERKS0_"
 "_ZNSt6vectorIdSaIdEE13_M_assign_auxIPKdEEvT_S5_St20forward_iterator_tag"
 "_ZNSt6vectorIdSaIdEE15_M_erase_at_endEPd"
 "_ZNSt6vectorIdSaIdEE17_S_check_init_lenEyRKS0_"
 "_ZNSt6vectorIdSaIdEE19_M_range_initializeIPdEEvT_S4_St20forward_iterator_tag"
 "_ZNSt6vectorIdSaIdEE19_M_range_initializeIPKdEEvT_S5_St20forward_iterator_tag"
 "_ZNSt6vectorIdSaIdEE20_M_allocate_and_copyIPKdEEPdyT_S6_"
 "_ZNSt6vectorIdSaIdEE21_M_default_initializeEy"
 "_ZNSt6vectorIdSaIdEE5beginEv"
 "_ZNSt6vectorIdSaIdEEaSESt16initializer_listIdE"
 "_ZNSt6vectorIdSaIdEEC1EOS1_"
 "_ZNSt6vectorIdSaIdEEC1ERKS1_"
 "_ZNSt6vectorIdSaIdEEC1ESt16initializer_listIdERKS0_"
 "_ZNSt6vectorIdSaIdEEC1EyRKS0_"
 "_ZNSt6vectorIdSaIdEEC1IPdvEET_S4_RKS0_"
 "_ZNSt6vectorIdSaIdEED1Ev"
 "_ZNSt6vectorIdSaIdEEixEy"
 "_ZNSt6vectorIiSaIiEE11_S_max_sizeERKS0_"
 "_ZNSt6vectorIiSaIiEE11_S_relocateEPiS2_S2_RS0_"
 "_ZNSt6vectorIiSaIiEE14_S_do_relocateEPiS2_S2_RS0_St17integral_constantIbLb1EE"
 "_ZNSt6vectorIiSaIiEE15_S_use_relocateEv"
 "_ZNSt6vectorIiSaIiEE17_M_realloc_insertIJRKiEEEvN9__gnu_cxx17__normal_iteratorIPiS1_EEDpOT_"
 "_ZNSt6vectorIiSaIiEE17_S_check_init_lenEyRKS0_"
 "_ZNSt6vectorIiSaIiEE19_M_range_initializeIPKiEEvT_S5_St20forward_iterator_tag"
 "_ZNSt6vectorIiSaIiEE19_S_nothrow_relocateESt17integral_constantIbLb1EE"
 "_ZNSt6vectorIiSaIiEE3endEv"
 "_ZNSt6vectorIiSaIiEE5beginEv"
 "_ZNSt6vectorIiSaIiEE9push_backERKi"
 "_ZNSt6vectorIiSaIiEEC1ESt16initializer_listIiERKS0_"
 "_ZNSt6vectorIiSaIiEEC1Ev"
 "_ZNSt6vectorIiSaIiEED1Ev"
 "_ZNSt6vectorIiSaIiEEixEy"
 "_ZNSt6vectorINSt7__cxx1112basic_stringIcSt11char_traitsIcESaIcEEESaIS5_EEC1Ev"
 "_ZNSt6vectorINSt7__cxx1112basic_stringIcSt11char_traitsIcESaIcEEESaIS5_EED1Ev"
 "_ZNSt7__cxx119to_stringEi"
 "_ZNSt7__equalILb0EE5equalIPKdS3_EEbT_S4_T0_"
 "_ZNSt7__equalILb1EE5equalIiEEbPKT_S4_S4_"
 "_ZNSt8__detail10_AllocNodeISaINS_10_Hash_nodeIdLb0EEEEEC1ERNS_16_Hashtable_allocIS3_EE"
 "_ZNSt8__detail10_Hash_nodeIdLb0EEC1Ev"
 "_ZNSt8__detail12_Insert_baseIddSaIdENS_9_IdentityESt8equal_toIdESt4hashIdENS_18_Mod_range_hashingENS_20_Default_ranged_hashENS_20_Prime_rehash_policyENS_17_Hashtable_traitsILb0ELb1ELb1EEEE20_M_conjure_hashtableEv"
 "_ZNSt8__detail12_Insert_baseIddSaIdENS_9_IdentityESt8equal_toIdESt4hashIdENS_18_Mod_range_hashingENS_20_Default_ranged_hashENS_20_Prime_rehash_policyENS_17_Hashtable_traitsILb0ELb1ELb1EEEE6insertERKd"
 "_ZNSt8__detail14__to_chars_lenIjEEjT_i"
 "_ZNSt8__detail14_Node_iteratorIdLb1ELb0EEC1EPNS_10_Hash_nodeIdLb0EEE"
 "_ZNSt8__detail15_Hash_code_baseIddNS_9_IdentityESt4hashIdENS_18_Mod_range_hashingENS_20_Default_ranged_hashELb0EEC2Ev"
 "_ZNSt8__detail15_Hash_node_baseC1Ev"
 "_ZNSt8__detail15_Hash_node_baseC2Ev"
 "_ZNSt8__detail15_Hashtable_baseIddNS_9_IdentityESt8equal_toIdESt4hashIdENS_18_Mod_range_hashingENS_20_Default_ranged_hashENS_17_Hashtable_traitsILb0ELb1ELb1EEEE16_Equal_hash_codeINS_10_Hash_nodeIdLb0EEEE9_S_equalsEyRKSD_"
 "_ZNSt8__detail15_Hashtable_baseIddNS_9_IdentityESt8equal_toIdESt4hashIdENS_18_Mod_range_hashingENS_20_Default_ranged_hashENS_17_Hashtable_traitsILb0ELb1ELb1EEEEC2Ev"
 "_ZNSt8__detail16_Hashtable_allocISaINS_10_Hash_nodeIdLb0EEEEE16_M_allocate_nodeIJRKdEEEPS2_DpOT_"
 "_ZNSt8__detail16_Hashtable_allocISaINS_10_Hash_nodeIdLb0EEEEE17_M_node_allocatorEv"
 "_ZNSt8__detail16_Hashtable_allocISaINS_10_Hash_nodeIdLb0EEEEE18_M_deallocate_nodeEPS2_"
 "_ZNSt8__detail16_Hashtable_allocISaINS_10_Hash_nodeIdLb0EEEEE19_M_allocate_bucketsEy"
 "_ZNSt8__detail16_Hashtable_allocISaINS_10_Hash_nodeIdLb0EEEEE19_M_deallocate_nodesEPS2_"
 "_ZNSt8__detail16_Hashtable_allocISaINS_10_Hash_nodeIdLb0EEEEE21_M_deallocate_bucketsEPPNS_15_Hash_node_baseEy"
 "_ZNSt8__detail16_Hashtable_allocISaINS_10_Hash_nodeIdLb0EEEEE22_M_deallocate_node_ptrEPS2_"
 "_ZNSt8__detail16_Hashtable_allocISaINS_10_Hash_nodeIdLb0EEEEEC2Ev"
 "_ZNSt8__detail16_Hashtable_allocISaINS_10_Hash_nodeIdLb0EEEEED2Ev"
 "_ZNSt8__detail18__to_chars_10_implIjEEvPcjT_"
 "_ZNSt8__detail19_Node_iterator_baseIdLb0EEC2EPNS_10_Hash_nodeIdLb0EEE"
 "_ZNSt8__detail20_Prime_rehash_policy8_M_resetEy"
 "_ZNSt8__detail20_Prime_rehash_policyC1Ef"
 "_ZNSt8__detail21_Hash_node_value_baseIdE4_M_vEv"
 "_ZNSt8__detail21_Hash_node_value_baseIdE9_M_valptrEv"
 "_ZNSt8__detail21_Hash_node_value_baseIdEC2Ev"
 "_ZNSt8__detail21_Hashtable_ebo_helperILi0ENS_9_IdentityELb1EEC2Ev"
 "_ZNSt8__detail21_Hashtable_ebo_helperILi0ESaINS_10_Hash_nodeIdLb0EEEELb1EE6_M_getEv"
 "_ZNSt8__detail21_Hashtable_ebo_helperILi0ESaINS_10_Hash_nodeIdLb0EEEELb1EEC2Ev"
 "_ZNSt8__detail21_Hashtable_ebo_helperILi0ESaINS_10_Hash_nodeIdLb0EEEELb1EED2Ev"
 "_ZNSt8__detail21_Hashtable_ebo_helperILi0ESt8equal_toIdELb1EEC2Ev"
 "_ZNSt8__detail21_Hashtable_ebo_helperILi1ESt4hashIdELb1EEC2Ev"
 "_ZNSt8__detail21_Hashtable_ebo_helperILi2ENS_18_Mod_range_hashingELb1EEC2Ev"
 "_ZNSt8ios_base4setfESt13_Ios_Fmtflags"
 "_ZNSt8ios_base4setfESt13_Ios_FmtflagsS0_"
 "_ZNSt8ios_base5flagsESt13_Ios_Fmtflags"
 "_ZNSt8ios_base5widthEx"
 "_ZNSt8ios_base6unsetfESt13_Ios_Fmtflags"
 "_ZNSt8ios_base9precisionEx"
 "_ZNSt9exceptionC2Ev"
 "_ZnwyPv"
 "_ZSt10__distanceIN9__gnu_cxx17__normal_iteratorIPKdSt6vectorIdSaIdEEEEENSt15iterator_traitsIT_E15difference_typeES9_S9_St26random_access_iterator_tag"
 "_ZSt10__distanceIPdENSt15iterator_traitsIT_E15difference_typeES2_S2_St26random_access_iterator_tag"
 "_ZSt10__distanceIPK4NodeENSt15iterator_traitsIT_E15difference_typeES4_S4_St26random_access_iterator_tag"
 "_ZSt10__distanceIPKdENSt15iterator_traitsIT_E15difference_typeES3_S3_St26random_access_iterator_tag"
 "_ZSt10__distanceIPKiENSt15iterator_traitsIT_E15difference_typeES3_S3_St26random_access_iterator_tag"
 "_ZSt10__fill_n_aIPdydET_S1_T0_RKT1_St26random_access_iterator_tag"
 "_ZSt10_ConstructI4NodeJEEvPT_DpOT0_"
 "_ZSt10_ConstructI4NodeJRKS0_EEvPT_DpOT0_"
 "_ZSt10_ConstructI4NodeJRS0_EEvPT_DpOT0_"
 "_ZSt10_ConstructI4NodeJS0_EEvPT_DpOT0_"
 "_ZSt11__addressofI4NodeEPT_RS1_"
 "_ZSt11__addressofINSt7__cxx1112basic_stringIcSt11char_traitsIcESaIcEEEEPT_RS6_"
 "_ZSt11__addressofINSt8__detail10_Hash_nodeIdLb0EEEEPT_RS3_"
 "_ZSt11__addressofIPNSt8__detail15_Hash_node_baseEEPT_RS3_"
 "_ZSt11__equal_auxIN9__gnu_cxx17__normal_iteratorIPKdSt6vectorIdSaIdEEEES7_EbT_S8_T0_"
 "_ZSt11__equal_auxIN9__gnu_cxx17__normal_iteratorIPKiSt6vectorIiSaIiEEEES7_EbT_S8_T0_"
 "_ZSt12__equal_aux1IPKdS1_EbT_S2_T0_"
 "_ZSt12__equal_aux1IPKiS1_EbT_S2_T0_"
 "_ZSt12__miter_baseIN9__gnu_cxx17__normal_iteratorIPK4NodeSt6vectorIS2_SaIS2_EEEEET_S9_"
 "_ZSt12__miter_baseIN9__gnu_cxx17__normal_iteratorIPKdSt6vectorIdSaIdEEEEET_S8_"
 "_ZSt12__miter_baseIP4NodeET_S2_"
 "_ZSt12__miter_baseIPdET_S1_"
 "_ZSt12__miter_baseIPiEDTcl12__miter_basecldtfp_4baseEEESt13move_iteratorIT_E"
 "_ZSt12__miter_baseIPiET_S1_"
 "_ZSt12__miter_baseIPKdET_S2_"
 "_ZSt12__miter_baseIPKiET_S2_"
 "_ZSt12__niter_baseIP4NodeET_S2_"
 "_ZSt12__niter_baseIP4NodeSt6vectorIS0_SaIS0_EEET_N9__gnu_cxx17__normal_iteratorIS5_T0_EE"
 "_ZSt12__niter_baseIPdET_S1_"
 "_ZSt12__niter_baseIPdSt6vectorIdSaIdEEET_N9__gnu_cxx17__normal_iteratorIS4_T0_EE"
 "_ZSt12__niter_baseIPiET_S1_"
 "_ZSt12__niter_baseIPK4NodeSt6vectorIS0_SaIS0_EEET_N9__gnu_cxx17__normal_iteratorIS6_T0_EE"
 "_ZSt12__niter_baseIPKdET_S2_"
 "_ZSt12__niter_baseIPKdSt6vectorIdSaIdEEET_N9__gnu_cxx17__normal_iteratorIS5_T0_EE"
 "_ZSt12__niter_baseIPKiET_S2_"
 "_ZSt12__niter_baseIPKiSt6vectorIiSaIiEEET_N9__gnu_cxx17__normal_iteratorIS5_T0_EE"
 "_ZSt12__niter_wrapIN9__gnu_cxx17__normal_iteratorIP4NodeSt6vectorIS2_SaIS2_EEEES3_ET_S8_T0_"
 "_ZSt12__niter_wrapIN9__gnu_cxx17__normal_iteratorIPdSt6vectorIdSaIdEEEES2_ET_S7_T0_"
 "_ZSt12__niter_wrapIP4NodeET_RKS2_S2_"
 "_ZSt12__niter_wrapIPdET_RKS1_S1_"
 "_ZSt12__niter_wrapIPiET_RKS1_S1_"
 "_ZSt12__relocate_aIP4NodeS1_SaIS0_EET0_T_S4_S3_RT1_"
 "_ZSt12__relocate_aIPiS0_SaIiEET0_T_S3_S2_RT1_"
 "_ZSt12__to_addressINSt8__detail10_Hash_nodeIdLb0EEEEPT_S4_"
 "_ZSt12__to_addressIPNSt8__detail15_Hash_node_baseEEPT_S4_"
 "_ZSt13__copy_move_aILb0EN9__gnu_cxx17__normal_iteratorIPK4NodeSt6vectorIS2_SaIS2_EEEENS1_IPS2_S7_EEET1_T0_SC_SB_"
 "_ZSt13__copy_move_aILb0EN9__gnu_cxx17__normal_iteratorIPKdSt6vectorIdSaIdEEEEPdET1_T0_SA_S9_"
 "_ZSt13__copy_move_aILb0EP4NodeS1_ET1_T0_S3_S2_"
 "_ZSt13__copy_move_aILb0EPdN9__gnu_cxx17__normal_iteratorIS0_St6vectorIdSaIdEEEEET1_T0_S8_S7_"
 "_ZSt13__copy_move_aILb0EPdS0_ET1_T0_S2_S1_"
 "_ZSt13__copy_move_aILb0EPKdPdET1_T0_S4_S3_"
 "_ZSt13__copy_move_aILb0EPKiPiET1_T0_S4_S3_"
 "_ZSt13__copy_move_aILb1EPiS0_ET1_T0_S2_S1_"
 "_ZSt14__copy_move_a1ILb0EP4NodeS1_ET1_T0_S3_S2_"
 "_ZSt14__copy_move_a1ILb0EPdS0_ET1_T0_S2_S1_"
 "_ZSt14__copy_move_a1ILb0EPK4NodePS0_ET1_T0_S5_S4_"
 "_ZSt14__copy_move_a1ILb0EPKdPdET1_T0_S4_S3_"
 "_ZSt14__copy_move_a1ILb0EPKiPiET1_T0_S4_S3_"
 "_ZSt14__copy_move_a1ILb1EPiS0_ET1_T0_S2_S1_"
 "_ZSt14__copy_move_a2ILb0EP4NodeS1_ET1_T0_S3_S2_"
 "_ZSt14__copy_move_a2ILb0EPdS0_ET1_T0_S2_S1_"
 "_ZSt14__copy_move_a2ILb0EPK4NodePS0_ET1_T0_S5_S4_"
 "_ZSt14__copy_move_a2ILb0EPKdPdET1_T0_S4_S3_"
 "_ZSt14__copy_move_a2ILb0EPKiPiET1_T0_S4_S3_"
 "_ZSt14__copy_move_a2ILb1EPiS0_ET1_T0_S2_S1_"
 "_ZSt14__relocate_a_1IiiENSt9enable_ifIXsrSt24__is_bitwise_relocatableIT_vE5valueEPS2_E4typeES4_S4_S4_RSaIT0_E"
 "_ZSt14__relocate_a_1IP4NodeS1_SaIS0_EET0_T_S4_S3_RT1_"
 "_ZSt15__alloc_on_copyISaI4NodeEEvRT_RKS2_"
 "_ZSt15__alloc_on_moveISaI4NodeEEvRT_S3_"
 "_ZSt17__size_to_integery"
 "_ZSt18__do_alloc_on_copyISaI4NodeEEvRT_RKS2_St17integral_constantIbLb0EE"
 "_ZSt18__do_alloc_on_moveISaI4NodeEEvRT_S3_St17integral_constantIbLb1EE"
 "_ZSt18uninitialized_copyIN9__gnu_cxx17__normal_iteratorIPK4NodeSt6vectorIS2_SaIS2_EEEEPS2_ET0_T_SB_SA_"
 "_ZSt18uninitialized_copyIN9__gnu_cxx17__normal_iteratorIPKdSt6vectorIdSaIdEEEEPdET0_T_SA_S9_"
 "_ZSt18uninitialized_copyIP4NodeS1_ET0_T_S3_S2_"
 "_ZSt18uninitialized_copyIPdS0_ET0_T_S2_S1_"
 "_ZSt18uninitialized_copyIPK4NodePS0_ET0_T_S5_S4_"
 "_ZSt18uninitialized_copyIPKdPdET0_T_S4_S3_"
 "_ZSt18uninitialized_copyIPKiPiET0_T_S4_S3_"
 "_ZSt18uninitialized_copyISt13move_iteratorIP4NodeES2_ET0_T_S5_S4_"
 "_ZSt18uninitialized_copyISt13move_iteratorIPiES1_ET0_T_S4_S3_"
 "_ZSt19__iterator_categoryIN9__gnu_cxx17__normal_iteratorIPKdSt6vectorIdSaIdEEEEENSt15iterator_traitsIT_E17iterator_categoryERKS9_"
 "_ZSt19__iterator_categoryIPdENSt15iterator_traitsIT_E17iterator_categoryERKS2_"
 "_ZSt19__iterator_categoryIPK4NodeENSt15iterator_traitsIT_E17iterator_categoryERKS4_"
 "_ZSt19__iterator_categoryIPKdENSt15iterator_traitsIT_E17iterator_categoryERKS3_"
 "_ZSt19__iterator_categoryIPKiENSt15iterator_traitsIT_E17iterator_categoryERKS3_"
 "_ZSt19__relocate_object_aI4NodeS0_SaIS0_EEvPT_PT0_RT1_"
 "_ZSt22__uninitialized_copy_aIN9__gnu_cxx17__normal_iteratorIPK4NodeSt6vectorIS2_SaIS2_EEEEPS2_S2_ET0_T_SB_SA_RSaIT1_E"
 "_ZSt22__uninitialized_copy_aIN9__gnu_cxx17__normal_iteratorIPKdSt6vectorIdSaIdEEEEPddET0_T_SA_S9_RSaIT1_E"
 "_ZSt22__uninitialized_copy_aIP4NodeS1_S0_ET0_T_S3_S2_RSaIT1_E"
 "_ZSt22__uninitialized_copy_aIPdS0_dET0_T_S2_S1_RSaIT1_E"
 "_ZSt22__uninitialized_copy_aIPK4NodePS0_S0_ET0_T_S5_S4_RSaIT1_E"
 "_ZSt22__uninitialized_copy_aIPKdPddET0_T_S4_S3_RSaIT1_E"
 "_ZSt22__uninitialized_copy_aIPKiPiiET0_T_S4_S3_RSaIT1_E"
 "_ZSt22__uninitialized_copy_aISt13move_iteratorIP4NodeES2_S1_ET0_T_S5_S4_RSaIT1_E"
 "_ZSt22__uninitialized_copy_aISt13move_iteratorIPiES1_iET0_T_S4_S3_RSaIT1_E"
 "_ZSt25__uninitialized_default_nIP4NodeyET_S2_T0_"
 "_ZSt25__uninitialized_default_nIPdyET_S1_T0_"
 "_ZSt27__uninitialized_default_n_aIP4NodeyS0_ET_S2_T0_RSaIT1_E"
 "_ZSt27__uninitialized_default_n_aIPdydET_S1_T0_RSaIT1_E"
 "_ZSt32__make_move_if_noexcept_iteratorI4NodeSt13move_iteratorIPS0_EET0_PT_"
 "_ZSt32__make_move_if_noexcept_iteratorIiSt13move_iteratorIPiEET0_PT_"
 "_ZSt34__uninitialized_move_if_noexcept_aIP4NodeS1_SaIS0_EET0_T_S4_S3_RT1_"
 "_ZSt34__uninitialized_move_if_noexcept_aIPiS0_SaIiEET0_T_S3_S2_RT1_"
 "_ZSt3absd"
 "_ZSt3maxIyERKT_S2_S2_"
 "_ZSt3minIiERKT_S2_S2_"
 "_ZSt3minIyERKT_S2_S2_"
 "_ZSt4copyIN9__gnu_cxx17__normal_iteratorIPK4NodeSt6vectorIS2_SaIS2_EEEENS1_IPS2_S7_EEET0_T_SC_SB_"
 "_ZSt4copyIN9__gnu_cxx17__normal_iteratorIPKdSt6vectorIdSaIdEEEEPdET0_T_SA_S9_"
 "_ZSt4copyIP4NodeS1_ET0_T_S3_S2_"
 "_ZSt4copyIPdN9__gnu_cxx17__normal_iteratorIS0_St6vectorIdSaIdEEEEET0_T_S8_S7_"
 "_ZSt4copyIPdS0_ET0_T_S2_S1_"
 "_ZSt4copyIPKdPdET0_T_S4_S3_"
 "_ZSt4copyIPKiPiET0_T_S4_S3_"
 "_ZSt4copyISt13move_iteratorIPiES1_ET0_T_S4_S3_"
 "_ZSt4fillIPddEvT_S1_RKT0_"
 "_ZSt4moveIR4NodeEONSt16remove_referenceIT_E4typeEOS3_"
 "_ZSt4moveIRNSt12_Vector_baseIdSaIdEE12_Vector_implEEONSt16remove_referenceIT_E4typeEOS6_"
 "_ZSt4moveIRNSt7__cxx1112basic_stringIcSt11char_traitsIcESaIcEEEEONSt16remove_referenceIT_E4typeEOS8_"
 "_ZSt4moveIRP4NodeEONSt16remove_referenceIT_E4typeEOS4_"
 "_ZSt4moveIRPiEONSt16remove_referenceIT_E4typeEOS3_"
 "_ZSt4moveIRSaI4NodeEEONSt16remove_referenceIT_E4typeEOS4_"
 "_ZSt4moveIRSt6vectorI4NodeSaIS1_EEEONSt16remove_referenceIT_E4typeEOS6_"
 "_ZSt5equalIN9__gnu_cxx17__normal_iteratorIPKdSt6vectorIdSaIdEEEES7_EbT_S8_T0_"
 "_ZSt5equalIN9__gnu_cxx17__normal_iteratorIPKiSt6vectorIiSaIiEEEES7_EbT_S8_T0_"
 "_ZSt6fill_nIPdydET_S1_T0_RKT1_"
 "_ZSt7advanceIPKdyEvRT_T0_"
 "_ZSt7forwardI4NodeEOT_RNSt16remove_referenceIS1_E4typeE"
 "_ZSt7forwardIbEOT_RNSt16remove_referenceIS0_E4typeE"
 "_ZSt7forwardIiEOT_RNSt16remove_referenceIS0_E4typeE"
 "_ZSt7forwardINSt8__detail14_Node_iteratorIdLb1ELb0EEEEOT_RNSt16remove_referenceIS3_E4typeE"
 "_ZSt7forwardIR4NodeEOT_RNSt16remove_referenceIS2_E4typeE"
 "_ZSt7forwardIRdEOT_RNSt16remove_referenceIS1_E4typeE"
 "_ZSt7forwardIRiEOT_RNSt16remove_referenceIS1_E4typeE"
 "_ZSt7forwardIRK4NodeEOT_RNSt16remove_referenceIS3_E4typeE"
 "_ZSt7forwardIRKdEOT_RNSt16remove_referenceIS2_E4typeE"
 "_ZSt7forwardIRKiEOT_RNSt16remove_referenceIS2_E4typeE"
 "_ZSt7forwardIRKPKcEOT_RNSt16remove_referenceIS4_E4typeE"
 "_ZSt7forwardIRNSt8__detail14_Node_iteratorIdLb1ELb0EEEEOT_RNSt16remove_referenceIS4_E4typeE"
 "_ZSt8__fill_aIPddEvT_S1_RKT0_"
 "_ZSt8__memcmpIiiEiPKT_PKT0_y"
 "_ZSt8_DestroyIN9__gnu_cxx17__normal_iteratorIP4NodeSt6vectorIS2_SaIS2_EEEEEvT_S8_"
 "_ZSt8_DestroyIN9__gnu_cxx17__normal_iteratorIP4NodeSt6vectorIS2_SaIS2_EEEES2_EvT_S8_RSaIT0_E"
 "_ZSt8_DestroyINSt7__cxx1112basic_stringIcSt11char_traitsIcESaIcEEEEvPT_"
 "_ZSt8_DestroyIP4NodeEvT_S2_"
 "_ZSt8_DestroyIP4NodeS0_EvT_S2_RSaIT0_E"
 "_ZSt8_DestroyIPddEvT_S1_RSaIT0_E"
 "_ZSt8_DestroyIPdEvT_S1_"
 "_ZSt8_DestroyIPiEvT_S1_"
 "_ZSt8_DestroyIPiiEvT_S1_RSaIT0_E"
 "_ZSt8_DestroyIPNSt7__cxx1112basic_stringIcSt11char_traitsIcESaIcEEEEvT_S7_"
 "_ZSt8_DestroyIPNSt7__cxx1112basic_stringIcSt11char_traitsIcESaIcEEES5_EvT_S7_RSaIT0_E"
 "_ZSt8distanceIN9__gnu_cxx17__normal_iteratorIPKdSt6vectorIdSaIdEEEEENSt15iterator_traitsIT_E15difference_typeES9_S9_"
 "_ZSt8distanceIPdENSt15iterator_traitsIT_E15difference_typeES2_S2_"
 "_ZSt8distanceIPK4NodeENSt15iterator_traitsIT_E15difference_typeES4_S4_"
 "_ZSt8distanceIPKdENSt15iterator_traitsIT_E15difference_typeES3_S3_"
 "_ZSt8distanceIPKiENSt15iterator_traitsIT_E15difference_typeES3_S3_"
 "_ZSt9__advanceIPKdxEvRT_T0_St26random_access_iterator_tag"
 "_ZSt9__fill_a1IPddEN9__gnu_cxx11__enable_ifIXsrSt11__is_scalarIT0_E7__valueEvE6__typeET_S8_RKS4_"
 "_ZSt9addressofINSt8__detail10_Hash_nodeIdLb0EEEEPT_RS3_"
 "_ZSt9addressofIPNSt8__detail15_Hash_node_baseEEPT_RS3_"
 "_ZSt9make_pairIiiESt4pairINSt25__strip_reference_wrapperINSt5decayIT_E4typeEE6__typeENS1_INS2_IT0_E4typeEE6__typeEEOS3_OS8_"
 "_ZSt9make_pairIRiS0_ESt4pairINSt25__strip_reference_wrapperINSt5decayIT_E4typeEE6__typeENS2_INS3_IT0_E4typeEE6__typeEEOS4_OS9_"
 "_ZStaNRSt13_Ios_FmtflagsS_"
 "_ZStanSt13_Ios_FmtflagsS_"
 "_ZStcoSt13_Ios_Fmtflags"
 "_ZSteqIdSaIdEEbRKSt6vectorIT_T0_ES6_"
 "_ZSteqIiiEbRKSt4pairIT_T0_ES5_"
 "_ZSteqIiSaIiEEbRKSt6vectorIT_T0_ES6_"
 "_ZSteqIP4NodeEbRKSt13move_iteratorIT_ES6_"
 "_ZStneIdSaIdEEbRKSt6vectorIT_T0_ES6_"
 "_ZStneIP4NodeEbRKSt13move_iteratorIT_ES6_"
 "_ZStneRKSaI4NodeES2_"
 "_ZStoRRSt13_Ios_FmtflagsS_"
 "_ZStorSt13_Ios_FmtflagsS_"
 "_ZStplIcSt11char_traitsIcESaIcEENSt7__cxx1112basic_stringIT_T0_T1_EEOS8_PKS5_"
 "_ZTCN4Rcpp8RostreamILb0EEE0_So"
 "_ZTCN4Rcpp8RostreamILb1EEE0_So"
 "_ZTIN4Rcpp10eval_errorE"
 "_ZTIN4Rcpp10RstreambufILb0EEE"
 "_ZTIN4Rcpp10RstreambufILb1EEE"
 "_ZTIN4Rcpp14not_compatibleE"
 "_ZTIN4Rcpp17LongjumpExceptionE"
 "_ZTIN4Rcpp8RostreamILb0EEE"
 "_ZTIN4Rcpp8RostreamILb1EEE"
 "_ZTIN4Rcpp9exceptionE"
 "_ZTIN5Catch13ExpressionLhsIbEE"
 "_ZTIN5Catch13ExpressionLhsIRKdEE"
 "_ZTIN5Catch13ExpressionLhsIRKiEE"
 "_ZTIN5Catch13ExpressionLhsIRKSt4pairIiiEEE"
 "_ZTIN5Catch13ExpressionLhsIRKSt6vectorIiSaIiEEEE"
 "_ZTIN5Catch16BinaryExpressionIRKdLNS_8Internal8OperatorE0ERKiEE"
 "_ZTIN5Catch16BinaryExpressionIRKiLNS_8Internal8OperatorE0ES2_EE"
 "_ZTIN5Catch16BinaryExpressionIRKSt4pairIiiELNS_8Internal8OperatorE0ES4_EE"
 "_ZTIN5Catch16BinaryExpressionIRKSt6vectorIiSaIiEELNS_8Internal8OperatorE0ES5_EE"
 "_ZTIN5Catch20DecomposedExpressionE"
 "_ZTISt9exception"
 "_ZTSN4Rcpp10eval_errorE"
 "_ZTSN4Rcpp10RstreambufILb0EEE"
 "_ZTSN4Rcpp10RstreambufILb1EEE"
 "_ZTSN4Rcpp14not_compatibleE"
 "_ZTSN4Rcpp17LongjumpExceptionE"
 "_ZTSN4Rcpp8RostreamILb0EEE"
 "_ZTSN4Rcpp8RostreamILb1EEE"
 "_ZTSN4Rcpp9exceptionE"
 "_ZTSN5Catch13ExpressionLhsIbEE"
 "_ZTSN5Catch13ExpressionLhsIRKdEE"
 "_ZTSN5Catch13ExpressionLhsIRKiEE"
 "_ZTSN5Catch13ExpressionLhsIRKSt4pairIiiEEE"
 "_ZTSN5Catch13ExpressionLhsIRKSt6vectorIiSaIiEEEE"
 "_ZTSN5Catch16BinaryExpressionIRKdLNS_8Internal8OperatorE0ERKiEE"
 "_ZTSN5Catch16BinaryExpressionIRKiLNS_8Internal8OperatorE0ES2_EE"
 "_ZTSN5Catch16BinaryExpressionIRKSt4pairIiiELNS_8Internal8OperatorE0ES4_EE"
 "_ZTSN5Catch16BinaryExpressionIRKSt6vectorIiSaIiEELNS_8Internal8OperatorE0ES5_EE"
 "_ZTSN5Catch20DecomposedExpressionE"
 "_ZTSSt9exception"
 "_ZTTN4Rcpp8RostreamILb0EEE"
 "_ZTTN4Rcpp8RostreamILb1EEE"
 "_ZTv0_n24_N4Rcpp8RostreamILb0EED0Ev"
 "_ZTv0_n24_N4Rcpp8RostreamILb0EED1Ev"
 "_ZTv0_n24_N4Rcpp8RostreamILb1EED0Ev"
 "_ZTv0_n24_N4Rcpp8RostreamILb1EED1Ev"
 "_ZTVN4Rcpp10RstreambufILb0EEE"
 "_ZTVN4Rcpp10RstreambufILb1EEE"
 "_ZTVN4Rcpp14not_compatibleE"
 "_ZTVN4Rcpp8RostreamILb0EEE"
 "_ZTVN4Rcpp8RostreamILb1EEE"
 "_ZTVN4Rcpp9exceptionE"
 "_ZTVN5Catch13ExpressionLhsIbEE"
 "_ZTVN5Catch13ExpressionLhsIRKdEE"
 "_ZTVN5Catch13ExpressionLhsIRKiEE"
 "_ZTVN5Catch13ExpressionLhsIRKSt4pairIiiEEE"
 "_ZTVN5Catch13ExpressionLhsIRKSt6vectorIiSaIiEEEE"
 "_ZTVN5Catch16BinaryExpressionIRKdLNS_8Internal8OperatorE0ERKiEE"
 "_ZTVN5Catch16BinaryExpressionIRKiLNS_8Internal8OperatorE0ES2_EE"
 "_ZTVN5Catch16BinaryExpressionIRKSt4pairIiiELNS_8Internal8OperatorE0ES4_EE"
 "_ZTVN5Catch16BinaryExpressionIRKSt6vectorIiSaIiEELNS_8Internal8OperatorE0ES5_EE"
 "_ZTVN5Catch20DecomposedExpressionE"
 "_ZZ7dataptrP7SEXPRECE3fun"
 "_ZZN4Rcpp20Rcpp_precious_removeEP7SEXPRECE3fun"
 "_ZZN4Rcpp22Rcpp_precious_preserveEP7SEXPRECE3fun"
 "_ZZNSt8__detail18__to_chars_10_implIjEEvPcjT_E8__digits"
 "_ZdlPvS_"
 "_ZGVZN5Catch13ResultBuilder8m_streamEvE1s"
 "_ZGVZN5Catch14libraryVersionEvE7version"
 "_ZGVZN5Catch4cerrEvE8instance"
 "_ZGVZN5Catch4coutEvE8instance"
 "_ZGVZN8testthat12catchSessionEvE8instance"
 "_ZN3Tbc14TextAttributes8setWidthEy"
 "_ZN3Tbc14TextAttributes9setIndentEy"
 "_ZN3Tbc14TextAttributesC1Ev"
 "_ZN3Tbc4Text10spliceLineEyRNSt7__cxx1112basic_stringIcSt11char_traitsIcESaIcEEEy"
 "_ZN3Tbc4TextC1ERKNSt7__cxx1112basic_stringIcSt11char_traitsIcESaIcEEERKNS_14TextAttributesE"
 "_ZN3Tbc4TextD1Ev"
 "_ZN5Catch10addWarningERNS_10ConfigDataERKNSt7__cxx1112basic_stringIcSt11char_traitsIcESaIcEEE"
 "_ZN5Catch10alwaysTrueEv"
 "_ZN5Catch10ConfigDataC1ERKS0_"
 "_ZN5Catch10ConfigDataC1Ev"
 "_ZN5Catch10ConfigDataD1Ev"
 "_ZN5Catch10CoutStreamC1Ev"
 "_ZN5Catch10CoutStreamC2Ev"
 "_ZN5Catch10CoutStreamD0Ev"
 "_ZN5Catch10CoutStreamD1Ev"
 "_ZN5Catch10CoutStreamD2Ev"
 "_ZN5Catch10FileStreamC1ERKNSt7__cxx1112basic_stringIcSt11char_traitsIcESaIcEEE"
 "_ZN5Catch10FileStreamC2ERKNSt7__cxx1112basic_stringIcSt11char_traitsIcESaIcEEE"
 "_ZN5Catch10FileStreamD0Ev"
 "_ZN5Catch10FileStreamD1Ev"
 "_ZN5Catch10FileStreamD2Ev"
 "_ZN5Catch10fpToStringIdEENSt7__cxx1112basic_stringIcSt11char_traitsIcESaIcEEET_i"
 "_ZN5Catch10fpToStringIfEENSt7__cxx1112basic_stringIcSt11char_traitsIcESaIcEEET_i"
 "_ZN5Catch10RunContext12sectionEndedERKNS_14SectionEndInfoE"
 "_ZN5Catch10RunContext14assertionEndedERKNS_15AssertionResultE"
 "_ZN5Catch10RunContext14runCurrentTestERNSt7__cxx1112basic_stringIcSt11char_traitsIcESaIcEEES7_"
 "_ZN5Catch10RunContext14sectionStartedERKNS_11SectionInfoERNS_6CountsE"
 "_ZN5Catch10RunContext14testGroupEndedERKNSt7__cxx1112basic_stringIcSt11char_traitsIcESaIcEEERKNS_6TotalsEyy"
 "_ZN5Catch10RunContext16popScopedMessageERKNS_11MessageInfoE"
 "_ZN5Catch10RunContext17pushScopedMessageERKNS_11MessageInfoE"
 "_ZN5Catch10RunContext17sectionEndedEarlyERKNS_14SectionEndInfoE"
 "_ZN5Catch10RunContext17testGroupStartingERKNSt7__cxx1112basic_stringIcSt11char_traitsIcESaIcEEEyy"
 "_ZN5Catch10RunContext20invokeActiveTestCaseEv"
 "_ZN5Catch10RunContext22exceptionEarlyReportedEv"
 "_ZN5Catch10RunContext24handleUnfinishedSectionsEv"
 "_ZN5Catch10RunContext24testForMissingAssertionsERNS_6CountsE"
 "_ZN5Catch10RunContext25handleFatalErrorConditionERKNSt7__cxx1112basic_stringIcSt11char_traitsIcESaIcEEE"
 "_ZN5Catch10RunContext7runTestERKNS_8TestCaseE"
 "_ZN5Catch10RunContextC1ERKNS_3PtrIKNS_7IConfigEEERKNS1_INS_18IStreamingReporterEEE"
 "_ZN5Catch10RunContextD0Ev"
 "_ZN5Catch10RunContextD1Ev"
 "_ZN5Catch10setRngSeedERNS_10ConfigDataERKNSt7__cxx1112basic_stringIcSt11char_traitsIcESaIcEEE"
 "_ZN5Catch10SharedImplINS_16IReporterFactoryEEC2Ev"
 "_ZN5Catch10SharedImplINS_16IReporterFactoryEED2Ev"
 "_ZN5Catch10SharedImplINS_18IStreamingReporterEEC2Ev"
 "_ZN5Catch10SharedImplINS_18IStreamingReporterEED2Ev"
 "_ZN5Catch10SharedImplINS_7IConfigEEC2Ev"
 "_ZN5Catch10SharedImplINS_7IConfigEED2Ev"
 "_ZN5Catch10SharedImplINS_7ISharedEEC2Ev"
 "_ZN5Catch10SharedImplINS_7ISharedEED0Ev"
 "_ZN5Catch10SharedImplINS_7ISharedEED1Ev"
 "_ZN5Catch10SharedImplINS_7ISharedEED2Ev"
 "_ZN5Catch10SharedImplINS_9ITestCaseEEC2Ev"
 "_ZN5Catch10SharedImplINS_9ITestCaseEED2Ev"
 "_ZN5Catch10startsWithERKNSt7__cxx1112basic_stringIcSt11char_traitsIcESaIcEEEc"
 "_ZN5Catch10startsWithERKNSt7__cxx1112basic_stringIcSt11char_traitsIcESaIcEEES7_"
 "_ZN5Catch11abortAfterXERNS_10ConfigDataEi"
 "_ZN5Catch11addReporterERKNS_3PtrINS_18IStreamingReporterEEES4_"
 "_ZN5Catch11filterTestsERKSt6vectorINS_8TestCaseESaIS1_EERKNS_8TestSpecERKNS_7IConfigE"
 "_ZN5Catch11forceColourERNS_10ConfigDataE"
 "_ZN5Catch11isFalseTestEi"
 "_ZN5Catch11MessageInfo11globalCountE"
 "_ZN5Catch11MessageInfoaSEOS0_"
 "_ZN5Catch11MessageInfoC1EOS0_"
 "_ZN5Catch11MessageInfoC1ERKNSt7__cxx1112basic_stringIcSt11char_traitsIcESaIcEEERKNS_14SourceLineInfoENS_9ResultWas6OfTypeE"
 "_ZN5Catch11MessageInfoC1ERKS0_"
 "_ZN5Catch11MessageInfoC2ERKNSt7__cxx1112basic_stringIcSt11char_traitsIcESaIcEEERKNS_14SourceLineInfoENS_9ResultWas6OfTypeE"
 "_ZN5Catch11MessageInfoD1Ev"
 "_ZN5Catch11NonCopyableC2Ev"
 "_ZN5Catch11NonCopyableD0Ev"
 "_ZN5Catch11NonCopyableD1Ev"
 "_ZN5Catch11NonCopyableD2Ev"
 "_ZN5Catch11SectionInfoaSERKS0_"
 "_ZN5Catch11SectionInfoC1EOS0_"
 "_ZN5Catch11SectionInfoC1ERKNS_14SourceLineInfoERKNSt7__cxx1112basic_stringIcSt11char_traitsIcESaIcEEESB_"
 "_ZN5Catch11SectionInfoC1ERKS0_"
 "_ZN5Catch11SectionInfoC2ERKNS_14SourceLineInfoERKNSt7__cxx1112basic_stringIcSt11char_traitsIcESaIcEEESB_"
 "_ZN5Catch11SectionInfoD1Ev"
 "_ZN5Catch11TestRunInfoC1ERKNSt7__cxx1112basic_stringIcSt11char_traitsIcESaIcEEE"
 "_ZN5Catch11TestRunInfoC1ERKS0_"
 "_ZN5Catch11TestRunInfoD1Ev"
 "_ZN5Catch11XmlReporter12sectionEndedERKNS_12SectionStatsE"
 "_ZN5Catch11XmlReporter12testRunEndedERKNS_12TestRunStatsE"
 "_ZN5Catch11XmlReporter13testCaseEndedERKNS_13TestCaseStatsE"
 "_ZN5Catch11XmlReporter14assertionEndedERKNS_14AssertionStatsE"
 "_ZN5Catch11XmlReporter14getDescriptionB5cxx11Ev"
 "_ZN5Catch11XmlReporter14testGroupEndedERKNS_14TestGroupStatsE"
 "_ZN5Catch11XmlReporter15sectionStartingERKNS_11SectionInfoE"
 "_ZN5Catch11XmlReporter15testRunStartingERKNS_11TestRunInfoE"
 "_ZN5Catch11XmlReporter15writeSourceInfoERKNS_14SourceLineInfoE"
 "_ZN5Catch11XmlReporter16testCaseStartingERKNS_12TestCaseInfoE"
 "_ZN5Catch11XmlReporter17assertionStartingERKNS_13AssertionInfoE"
 "_ZN5Catch11XmlReporter17testGroupStartingERKNS_9GroupInfoE"
 "_ZN5Catch11XmlReporter19noMatchingTestCasesERKNSt7__cxx1112basic_stringIcSt11char_traitsIcESaIcEEE"
 "_ZN5Catch11XmlReporterC1ERKNS_14ReporterConfigE"
 "_ZN5Catch11XmlReporterD0Ev"
 "_ZN5Catch11XmlReporterD1Ev"
 "_ZN5Catch11XmlReporterD2Ev"
 "_ZN5Catch12addListenersERKNS_3PtrIKNS_7IConfigEEENS0_INS_18IStreamingReporterEEE"
 "_ZN5Catch12IRegistryHubC2Ev"
 "_ZN5Catch12IRegistryHubD0Ev"
 "_ZN5Catch12IRegistryHubD1Ev"
 "_ZN5Catch12IRegistryHubD2Ev"
 "_ZN5Catch12makeReporterERKNS_3PtrINS_6ConfigEEE"
 "_ZN5Catch12makeTestCaseEPNS_9ITestCaseERKNSt7__cxx1112basic_stringIcSt11char_traitsIcESaIcEEES9_S9_RKNS_14SourceLineInfoE"
 "_ZN5Catch12SectionStatsaSERKS0_"
 "_ZN5Catch12SectionStatsC1ERKNS_11SectionInfoERKNS_6CountsEdb"
 "_ZN5Catch12SectionStatsC1ERKS0_"
 "_ZN5Catch12SectionStatsD0Ev"
 "_ZN5Catch12SectionStatsD1Ev"
 "_ZN5Catch12SectionStatsD2Ev"
 "_ZN5Catch12setUseColourERNS_10ConfigDataERKNSt7__cxx1112basic_stringIcSt11char_traitsIcESaIcEEE"
 "_ZN5Catch12TestCaseInfoC1ERKNSt7__cxx1112basic_stringIcSt11char_traitsIcESaIcEEES8_S8_RKSt3setIS6_St4lessIS6_ESaIS6_EERKNS_14SourceLineInfoE"
 "_ZN5Catch12TestCaseInfoC1ERKS0_"
 "_ZN5Catch12TestCaseInfoC2ERKNSt7__cxx1112basic_stringIcSt11char_traitsIcESaIcEEES8_S8_RKSt3setIS6_St4lessIS6_ESaIS6_EERKNS_14SourceLineInfoE"
 "_ZN5Catch12TestCaseInfoC2ERKS0_"
 "_ZN5Catch12TestCaseInfoD1Ev"
 "_ZN5Catch12TestCaseInfoD2Ev"
 "_ZN5Catch12TestRegistry12registerTestERKNS_8TestCaseE"
 "_ZN5Catch12TestRegistryC1Ev"
 "_ZN5Catch12TestRegistryD0Ev"
 "_ZN5Catch12TestRegistryD1Ev"
 "_ZN5Catch12TestRegistryD2Ev"
 "_ZN5Catch12TestRunStatsC1ERKNS_11TestRunInfoERKNS_6TotalsEb"
 "_ZN5Catch12TestRunStatsC1ERKS0_"
 "_ZN5Catch12TestRunStatsD0Ev"
 "_ZN5Catch12TestRunStatsD1Ev"
 "_ZN5Catch12TestRunStatsD2Ev"
 "_ZN5Catch13addTestOrTagsERNS_10ConfigDataERKNSt7__cxx1112basic_stringIcSt11char_traitsIcESaIcEEE"
 "_ZN5Catch13AssertionInfoC1EPKcRKNS_14SourceLineInfoES2_NS_17ResultDisposition5FlagsES2_"
 "_ZN5Catch13AssertionInfoC1Ev"
 "_ZN5Catch13AssertionInfoC2EPKcRKNS_14SourceLineInfoES2_NS_17ResultDisposition5FlagsES2_"
 "_ZN5Catch13GeneratorInfo8moveNextEv"
 "_ZN5Catch13GeneratorInfoC1Ey"
 "_ZN5Catch13GeneratorInfoD0Ev"
 "_ZN5Catch13GeneratorInfoD1Ev"
 "_ZN5Catch13isReservedTagERKNSt7__cxx1112basic_stringIcSt11char_traitsIcESaIcEEE"
 "_ZN5Catch13JunitReporter10writeGroupERKNS_22CumulativeReporterBase4NodeINS_14TestGroupStatsENS2_INS_13TestCaseStatsENS1_11SectionNodeEEEEEd"
 "_ZN5Catch13JunitReporter12writeSectionERKNSt7__cxx1112basic_stringIcSt11char_traitsIcESaIcEEES8_RKNS_22CumulativeReporterBase11SectionNodeE"
 "_ZN5Catch13JunitReporter13testCaseEndedERKNS_13TestCaseStatsE"
 "_ZN5Catch13JunitReporter13writeTestCaseERKNS_22CumulativeReporterBase4NodeINS_13TestCaseStatsENS1_11SectionNodeEEE"
 "_ZN5Catch13JunitReporter14assertionEndedERKNS_14AssertionStatsE"
 "_ZN5Catch13JunitReporter14getDescriptionB5cxx11Ev"
 "_ZN5Catch13JunitReporter14testGroupEndedERKNS_14TestGroupStatsE"
 "_ZN5Catch13JunitReporter14writeAssertionERKNS_14AssertionStatsE"
 "_ZN5Catch13JunitReporter15testRunStartingERKNS_11TestRunInfoE"
 "_ZN5Catch13JunitReporter15writeAssertionsERKNS_22CumulativeReporterBase11SectionNodeE"
 "_ZN5Catch13JunitReporter16testCaseStartingERKNS_12TestCaseInfoE"
 "_ZN5Catch13JunitReporter17testGroupStartingERKNS_9GroupInfoE"
 "_ZN5Catch13JunitReporter19noMatchingTestCasesERKNSt7__cxx1112basic_stringIcSt11char_traitsIcESaIcEEE"
 "_ZN5Catch13JunitReporter22testRunEndedCumulativeEv"
 "_ZN5Catch13JunitReporterC1ERKNS_14ReporterConfigE"
 "_ZN5Catch13JunitReporterD0Ev"
 "_ZN5Catch13JunitReporterD1Ev"
 "_ZN5Catch13JunitReporterD2Ev"
 "_ZN5Catch13listReportersERKNS_6ConfigE"
 "_ZN5Catch13ResultBuilder12handleResultERKNS_15AssertionResultE"
 "_ZN5Catch13ResultBuilder13captureResultENS_9ResultWas6OfTypeE"
 "_ZN5Catch13ResultBuilder13endExpressionERKNS_20DecomposedExpressionE"
 "_ZN5Catch13ResultBuilder13setResultTypeEb"
 "_ZN5Catch13ResultBuilder13setResultTypeENS_9ResultWas6OfTypeE"
 "_ZN5Catch13ResultBuilder17captureExpressionEv"
 "_ZN5Catch13ResultBuilder17setExceptionGuardEv"
 "_ZN5Catch13ResultBuilder18useActiveExceptionENS_17ResultDisposition5FlagsE"
 "_ZN5Catch13ResultBuilder19unsetExceptionGuardEv"
 "_ZN5Catch13ResultBuilder24captureExpectedExceptionERKNS_8Matchers4Impl11MatcherBaseINSt7__cxx1112basic_stringIcSt11char_traitsIcESaIcEEES9_EE"
 "_ZN5Catch13ResultBuilder24captureExpectedExceptionERKNSt7__cxx1112basic_stringIcSt11char_traitsIcESaIcEEE"
 "_ZN5Catch13ResultBuilder5reactEv"
 "_ZN5Catch13ResultBuilder8m_streamEv"
 "_ZN5Catch13ResultBuilderC1EPKcRKNS_14SourceLineInfoES2_NS_17ResultDisposition5FlagsES2_"
 "_ZN5Catch13ResultBuilderC2EPKcRKNS_14SourceLineInfoES2_NS_17ResultDisposition5FlagsES2_"
 "_ZN5Catch13ResultBuilderD0Ev"
 "_ZN5Catch13ResultBuilderD1Ev"
 "_ZN5Catch13ResultBuilderD2Ev"
 "_ZN5Catch13ResultBuilderlsINSt7__cxx1112basic_stringIcSt11char_traitsIcESaIcEEEEERS0_RKT_"
 "_ZN5Catch13ScopedMessageC1ERKNS_14MessageBuilderE"
 "_ZN5Catch13ScopedMessageC1ERKS0_"
 "_ZN5Catch13ScopedMessageC2ERKNS_14MessageBuilderE"
 "_ZN5Catch13ScopedMessageC2ERKS0_"
 "_ZN5Catch13ScopedMessageD1Ev"
 "_ZN5Catch13ScopedMessageD2Ev"
 "_ZN5Catch13StreamBufBaseC2Ev"
 "_ZN5Catch13StreamBufBaseD0Ev"
 "_ZN5Catch13StreamBufBaseD1Ev"
 "_ZN5Catch13StreamBufBaseD2Ev"
 "_ZN5Catch13StreamBufImplINS_17OutputDebugWriterELy256EE4syncEv"
 "_ZN5Catch13StreamBufImplINS_17OutputDebugWriterELy256EE8overflowEi"
 "_ZN5Catch13StreamBufImplINS_17OutputDebugWriterELy256EEC1Ev"
 "_ZN5Catch13StreamBufImplINS_17OutputDebugWriterELy256EED0Ev"
 "_ZN5Catch13StreamBufImplINS_17OutputDebugWriterELy256EED1Ev"
 "_ZN5Catch13TestCaseStatsC1ERKNS_12TestCaseInfoERKNS_6TotalsERKNSt7__cxx1112basic_stringIcSt11char_traitsIcESaIcEEESE_b"
 "_ZN5Catch13TestCaseStatsC1ERKS0_"
 "_ZN5Catch13TestCaseStatsD0Ev"
 "_ZN5Catch13TestCaseStatsD1Ev"
 "_ZN5Catch13TestCaseStatsD2Ev"
 "_ZN5Catch14AssertionStatsC1EOS0_"
 "_ZN5Catch14AssertionStatsC1ERKNS_15AssertionResultERKSt6vectorINS_11MessageInfoESaIS5_EERKNS_6TotalsE"
 "_ZN5Catch14AssertionStatsC1ERKS0_"
 "_ZN5Catch14AssertionStatsD0Ev"
 "_ZN5Catch14AssertionStatsD1Ev"
 "_ZN5Catch14AssertionStatsD2Ev"
 "_ZN5Catch14cleanUpContextEv"
 "_ZN5Catch14CopyableStreamC1Ev"
 "_ZN5Catch14CopyableStreamD1Ev"
 "_ZN5Catch14createReporterERKNSt7__cxx1112basic_stringIcSt11char_traitsIcESaIcEEERKNS_3PtrINS_6ConfigEEE"
 "_ZN5Catch14DebugOutStreamC1Ev"
 "_ZN5Catch14DebugOutStreamC2Ev"
 "_ZN5Catch14DebugOutStreamD0Ev"
 "_ZN5Catch14DebugOutStreamD1Ev"
 "_ZN5Catch14DebugOutStreamD2Ev"
 "_ZN5Catch14getLineOfCharsILc126EEEPKcv"
 "_ZN5Catch14getLineOfCharsILc45EEEPKcv"
 "_ZN5Catch14getLineOfCharsILc46EEEPKcv"
 "_ZN5Catch14getRegistryHubEv"
 "_ZN5Catch14IGeneratorInfoC2Ev"
 "_ZN5Catch14IGeneratorInfoD0Ev"
 "_ZN5Catch14IGeneratorInfoD1Ev"
 "_ZN5Catch14IGeneratorInfoD2Ev"
 "_ZN5Catch14IResultCaptureC2Ev"
 "_ZN5Catch14IResultCaptureD0Ev"
 "_ZN5Catch14IResultCaptureD1Ev"
 "_ZN5Catch14IResultCaptureD2Ev"
 "_ZN5Catch14libraryVersionEv"
 "_ZN5Catch14MessageBuilderC1ERKNSt7__cxx1112basic_stringIcSt11char_traitsIcESaIcEEERKNS_14SourceLineInfoENS_9ResultWas6OfTypeE"
 "_ZN5Catch14MessageBuilderD1Ev"
 "_ZN5Catch14MessageBuilderlsINSt7__cxx1112basic_stringIcSt11char_traitsIcESaIcEEEEERS0_RKT_"
 "_ZN5Catch14replaceInPlaceERNSt7__cxx1112basic_stringIcSt11char_traitsIcESaIcEEERKS5_S8_"
 "_ZN5Catch14ReporterConfigC1ERKNS_3PtrIKNS_7IConfigEEE"
 "_ZN5Catch14ReporterConfigD1Ev"
 "_ZN5Catch14SectionEndInfoC1EOS0_"
 "_ZN5Catch14SectionEndInfoC1ERKNS_11SectionInfoERKNS_6CountsEd"
 "_ZN5Catch14SectionEndInfoC1ERKS0_"
 "_ZN5Catch14SectionEndInfoD1Ev"
 "_ZN5Catch14SourceLineInfoC1EPKcy"
 "_ZN5Catch14SourceLineInfoC1Ev"
 "_ZN5Catch14SourceLineInfoC2EPKcy"
 "_ZN5Catch14SourceLineInfoC2Ev"
 "_ZN5Catch14StreamRedirectC1ERSoRNSt7__cxx1112basic_stringIcSt11char_traitsIcESaIcEEE"
 "_ZN5Catch14StreamRedirectD1Ev"
 "_ZN5Catch14TestGroupStatsC1ERKNS_9GroupInfoERKNS_6TotalsEb"
 "_ZN5Catch14TestGroupStatsC1ERKS0_"
 "_ZN5Catch14TestGroupStatsD0Ev"
 "_ZN5Catch14TestGroupStatsD1Ev"
 "_ZN5Catch14TestGroupStatsD2Ev"
 "_ZN5Catch14TestSpecParser10addPatternINS_8TestSpec10TagPatternEEEvv"
 "_ZN5Catch14TestSpecParser10addPatternINS_8TestSpec11NamePatternEEEvv"
 "_ZN5Catch14TestSpecParser12startNewModeENS0_4ModeEy"
 "_ZN5Catch14TestSpecParser5parseERKNSt7__cxx1112basic_stringIcSt11char_traitsIcESaIcEEE"
 "_ZN5Catch14TestSpecParser6escapeEv"
 "_ZN5Catch14TestSpecParser8testSpecEv"
 "_ZN5Catch14TestSpecParser9addFilterEv"
 "_ZN5Catch14TestSpecParser9visitCharEc"
 "_ZN5Catch14TestSpecParserC1ERKNS_17ITagAliasRegistryE"
 "_ZN5Catch14TestSpecParserD1Ev"
 "_ZN5Catch14toLowerInPlaceERNSt7__cxx1112basic_stringIcSt11char_traitsIcESaIcEEE"
 "_ZN5Catch15abortAfterFirstERNS_10ConfigDataE"
 "_ZN5Catch15addReporterNameERNS_10ConfigDataERKNSt7__cxx1112basic_stringIcSt11char_traitsIcESaIcEEE"
 "_ZN5Catch15addSectionToRunERNS_10ConfigDataERKNSt7__cxx1112basic_stringIcSt11char_traitsIcESaIcEEE"
 "_ZN5Catch15AssertionResultaSERKS0_"
 "_ZN5Catch15AssertionResultC1EOS0_"
 "_ZN5Catch15AssertionResultC1ERKNS_13AssertionInfoERKNS_19AssertionResultDataE"
 "_ZN5Catch15AssertionResultC1ERKS0_"
 "_ZN5Catch15AssertionResultC1Ev"
 "_ZN5Catch15AssertionResultC2ERKNS_13AssertionInfoERKNS_19AssertionResultDataE"
 "_ZN5Catch15AssertionResultC2Ev"
 "_ZN5Catch15AssertionResultD1Ev"
 "_ZN5Catch15AssertionResultD2Ev"
 "_ZN5Catch15CompactReporter12sectionEndedERKNS_12SectionStatsE"
 "_ZN5Catch15CompactReporter12testRunEndedERKNS_12TestRunStatsE"
 "_ZN5Catch15CompactReporter14assertionEndedERKNS_14AssertionStatsE"
 "_ZN5Catch15CompactReporter14getDescriptionB5cxx11Ev"
 "_ZN5Catch15CompactReporter16AssertionPrinter12failedStringEv"
 "_ZN5Catch15CompactReporter16AssertionPrinter12passedStringEv"
 "_ZN5Catch15CompactReporter16AssertionPrinter12printMessageEv"
 "_ZN5Catch15CompactReporter16AssertionPrinter18printExpressionWasEv"
 "_ZN5Catch15CompactReporter16AssertionPrinter22printRemainingMessagesENS_6Colour4CodeE"
 "_ZN5Catch15CompactReporter16AssertionPrinter5printEv"
 "_ZN5Catch15CompactReporter16AssertionPrinter9dimColourEv"
 "_ZN5Catch15CompactReporter16AssertionPrinterC1ERSoRKNS_14AssertionStatsEb"
 "_ZN5Catch15CompactReporter16AssertionPrinterD1Ev"
 "_ZN5Catch15CompactReporter17assertionStartingERKNS_13AssertionInfoE"
 "_ZN5Catch15CompactReporter19noMatchingTestCasesERKNSt7__cxx1112basic_stringIcSt11char_traitsIcESaIcEEE"
 "_ZN5Catch15CompactReporterC1ERKNS_14ReporterConfigE"
 "_ZN5Catch15CompactReporterD0Ev"
 "_ZN5Catch15CompactReporterD1Ev"
 "_ZN5Catch15CompactReporterD2Ev"
 "_ZN5Catch15ConsoleReporter11printTotalsERKNS_6TotalsE"
 "_ZN5Catch15ConsoleReporter12sectionEndedERKNS_12SectionStatsE"
 "_ZN5Catch15ConsoleReporter12testRunEndedERKNS_12TestRunStatsE"
 "_ZN5Catch15ConsoleReporter13SummaryColumn6addRowEy"
 "_ZN5Catch15ConsoleReporter13SummaryColumnC1EOS1_"
 "_ZN5Catch15ConsoleReporter13SummaryColumnC1ERKNSt7__cxx1112basic_stringIcSt11char_traitsIcESaIcEEENS_6Colour4CodeE"
 "_ZN5Catch15ConsoleReporter13SummaryColumnC1ERKS1_"
 "_ZN5Catch15ConsoleReporter13SummaryColumnD1Ev"
 "_ZN5Catch15ConsoleReporter13testCaseEndedERKNS_13TestCaseStatsE"
 "_ZN5Catch15ConsoleReporter14assertionEndedERKNS_14AssertionStatsE"
 "_ZN5Catch15ConsoleReporter14getDescriptionB5cxx11Ev"
 "_ZN5Catch15ConsoleReporter14testGroupEndedERKNS_14TestGroupStatsE"
 "_ZN5Catch15ConsoleReporter15printOpenHeaderERKNSt7__cxx1112basic_stringIcSt11char_traitsIcESaIcEEE"
 "_ZN5Catch15ConsoleReporter15printSummaryRowERKNSt7__cxx1112basic_stringIcSt11char_traitsIcESaIcEEERKSt6vectorINS0_13SummaryColumnESaISA_EEy"
 "_ZN5Catch15ConsoleReporter15sectionStartingERKNS_11SectionInfoE"
 "_ZN5Catch15ConsoleReporter16AssertionPrinterC1ERSoRKNS_14AssertionStatsEb"
 "_ZN5Catch15ConsoleReporter16AssertionPrinterD1Ev"
 "_ZN5Catch15ConsoleReporter16lazyPrintRunInfoEv"
 "_ZN5Catch15ConsoleReporter17assertionStartingERKNS_13AssertionInfoE"
 "_ZN5Catch15ConsoleReporter17printClosedHeaderERKNSt7__cxx1112basic_stringIcSt11char_traitsIcESaIcEEE"
 "_ZN5Catch15ConsoleReporter17printHeaderStringERKNSt7__cxx1112basic_stringIcSt11char_traitsIcESaIcEEEy"
 "_ZN5Catch15ConsoleReporter18lazyPrintGroupInfoEv"
 "_ZN5Catch15ConsoleReporter18printTotalsDividerERKNS_6TotalsE"
 "_ZN5Catch15ConsoleReporter19noMatchingTestCasesERKNSt7__cxx1112basic_stringIcSt11char_traitsIcESaIcEEE"
 "_ZN5Catch15ConsoleReporter19printSummaryDividerEv"
 "_ZN5Catch15ConsoleReporter29printTestCaseAndSectionHeaderEv"
 "_ZN5Catch15ConsoleReporter7findMaxERyS1_S1_"
 "_ZN5Catch15ConsoleReporter9lazyPrintEv"
 "_ZN5Catch15ConsoleReporter9makeRatioEyy"
 "_ZN5Catch15ConsoleReporterC1ERKNS_14ReporterConfigE"
 "_ZN5Catch15ConsoleReporterD0Ev"
 "_ZN5Catch15ConsoleReporterD1Ev"
 "_ZN5Catch15ConsoleReporterD2Ev"
 "_ZN5Catch15deleteAllValuesISt3mapINSt7__cxx1112basic_stringIcSt11char_traitsIcESaIcEEEPNS_18IGeneratorsForTestESt4lessIS7_ESaISt4pairIKS7_S9_EEEEEvRT_"
 "_ZN5Catch15IMutableContextC2Ev"
 "_ZN5Catch15IMutableContextD0Ev"
 "_ZN5Catch15IMutableContextD1Ev"
 "_ZN5Catch15IMutableContextD2Ev"
 "_ZN5Catch15parseSpecialTagERKNSt7__cxx1112basic_stringIcSt11char_traitsIcESaIcEEE"
 "_ZN5Catch15throwLogicErrorERKNSt7__cxx1112basic_stringIcSt11char_traitsIcESaIcEEERKNS_14SourceLineInfoE"
 "_ZN5Catch15WildcardPatternC1ERKNSt7__cxx1112basic_stringIcSt11char_traitsIcESaIcEEENS_13CaseSensitive6ChoiceE"
 "_ZN5Catch15WildcardPatternD0Ev"
 "_ZN5Catch15WildcardPatternD1Ev"
 "_ZN5Catch15WildcardPatternD2Ev"
 "_ZN5Catch16extractClassNameERKNSt7__cxx1112basic_stringIcSt11char_traitsIcESaIcEEE"
 "_ZN5Catch16getResultCaptureEv"
 "_ZN5Catch16IReporterFactoryC2Ev"
 "_ZN5Catch16IReporterFactoryD0Ev"
 "_ZN5Catch16IReporterFactoryD1Ev"
 "_ZN5Catch16IReporterFactoryD2Ev"
 "_ZN5Catch16isDebuggerActiveEv"
 "_ZN5Catch16registerTestCaseEPNS_9ITestCaseEPKcRKNS_11NameAndDescERKNS_14SourceLineInfoE"
 "_ZN5Catch16ReporterRegistry16registerListenerERKNS_3PtrINS_16IReporterFactoryEEE"
 "_ZN5Catch16ReporterRegistry16registerReporterERKNSt7__cxx1112basic_stringIcSt11char_traitsIcESaIcEEERKNS_3PtrINS_16IReporterFactoryEEE"
 "_ZN5Catch16ReporterRegistryC1Ev"
 "_ZN5Catch16ReporterRegistryD0Ev"
 "_ZN5Catch16ReporterRegistryD1Ev"
 "_ZN5Catch16setShowDurationsERNS_10ConfigDataEb"
 "_ZN5Catch16TagAliasRegistry3addERKNSt7__cxx1112basic_stringIcSt11char_traitsIcESaIcEEES8_RKNS_14SourceLineInfoE"
 "_ZN5Catch16TagAliasRegistryC1Ev"
 "_ZN5Catch16TagAliasRegistryD0Ev"
 "_ZN5Catch16TagAliasRegistryD1Ev"
 "_ZN5Catch16TagAliasRegistryD2Ev"
 "_ZN5Catch16TestCaseTracking11TrackerBase10moveToThisEv"
 "_ZN5Catch16TestCaseTracking11TrackerBase12moveToParentEv"
 "_ZN5Catch16TestCaseTracking11TrackerBase14TrackerHasNameC1EOS2_"
 "_ZN5Catch16TestCaseTracking11TrackerBase14TrackerHasNameC1ERKNS0_15NameAndLocationE"
 "_ZN5Catch16TestCaseTracking11TrackerBase14TrackerHasNameC1ERKS2_"
 "_ZN5Catch16TestCaseTracking11TrackerBase14TrackerHasNameclERKNS_3PtrINS0_8ITrackerEEE"
 "_ZN5Catch16TestCaseTracking11TrackerBase14TrackerHasNameD1Ev"
 "_ZN5Catch16TestCaseTracking11TrackerBase23markAsNeedingAnotherRunEv"
 "_ZN5Catch16TestCaseTracking11TrackerBase4failEv"
 "_ZN5Catch16TestCaseTracking11TrackerBase4openEv"
 "_ZN5Catch16TestCaseTracking11TrackerBase5closeEv"
 "_ZN5Catch16TestCaseTracking11TrackerBase6parentEv"
 "_ZN5Catch16TestCaseTracking11TrackerBase8addChildERKNS_3PtrINS0_8ITrackerEEE"
 "_ZN5Catch16TestCaseTracking11TrackerBase9findChildERKNS0_15NameAndLocationE"
 "_ZN5Catch16TestCaseTracking11TrackerBase9openChildEv"
 "_ZN5Catch16TestCaseTracking11TrackerBaseC2ERKNS0_15NameAndLocationERNS0_14TrackerContextEPNS0_8ITrackerE"
 "_ZN5Catch16TestCaseTracking11TrackerBaseD0Ev"
 "_ZN5Catch16TestCaseTracking11TrackerBaseD1Ev"
 "_ZN5Catch16TestCaseTracking11TrackerBaseD2Ev"
 "_ZN5Catch16TestCaseTracking12IndexTracker5closeEv"
 "_ZN5Catch16TestCaseTracking12IndexTrackerD0Ev"
 "_ZN5Catch16TestCaseTracking12IndexTrackerD1Ev"
 "_ZN5Catch16TestCaseTracking12IndexTrackerD2Ev"
 "_ZN5Catch16TestCaseTracking14SectionTracker14addNextFiltersERKSt6vectorINSt7__cxx1112basic_stringIcSt11char_traitsIcESaIcEEESaIS8_EE"
 "_ZN5Catch16TestCaseTracking14SectionTracker17addInitialFiltersERKSt6vectorINSt7__cxx1112basic_stringIcSt11char_traitsIcESaIcEEESaIS8_EE"
 "_ZN5Catch16TestCaseTracking14SectionTracker7acquireERNS0_14TrackerContextERKNS0_15NameAndLocationE"
 "_ZN5Catch16TestCaseTracking14SectionTracker7tryOpenEv"
 "_ZN5Catch16TestCaseTracking14SectionTrackerC1ERKNS0_15NameAndLocationERNS0_14TrackerContextEPNS0_8ITrackerE"
 "_ZN5Catch16TestCaseTracking14SectionTrackerD0Ev"
 "_ZN5Catch16TestCaseTracking14SectionTrackerD1Ev"
 "_ZN5Catch16TestCaseTracking14SectionTrackerD2Ev"
 "_ZN5Catch16TestCaseTracking14TrackerContext10startCycleEv"
 "_ZN5Catch16TestCaseTracking14TrackerContext13completeCycleEv"
 "_ZN5Catch16TestCaseTracking14TrackerContext14currentTrackerEv"
 "_ZN5Catch16TestCaseTracking14TrackerContext17setCurrentTrackerEPNS0_8ITrackerE"
 "_ZN5Catch16TestCaseTracking14TrackerContext8startRunEv"
 "_ZN5Catch16TestCaseTracking14TrackerContextC1Ev"
 "_ZN5Catch16TestCaseTracking14TrackerContextD1Ev"
 "_ZN5Catch16TestCaseTracking15NameAndLocationC1EOS1_"
 "_ZN5Catch16TestCaseTracking15NameAndLocationC1ERKNSt7__cxx1112basic_stringIcSt11char_traitsIcESaIcEEERKNS_14SourceLineInfoE"
 "_ZN5Catch16TestCaseTracking15NameAndLocationC1ERKS1_"
 "_ZN5Catch16TestCaseTracking15NameAndLocationD1Ev"
 "_ZN5Catch16TestCaseTracking8ITrackerC2Ev"
 "_ZN5Catch16TestCaseTracking8ITrackerD0Ev"
 "_ZN5Catch16TestCaseTracking8ITrackerD1Ev"
 "_ZN5Catch16TestCaseTracking8ITrackerD2Ev"
 "_ZN5Catch17GeneratorsForTest16getGeneratorInfoERKNSt7__cxx1112basic_stringIcSt11char_traitsIcESaIcEEEy"
 "_ZN5Catch17GeneratorsForTest8moveNextEv"
 "_ZN5Catch17GeneratorsForTestC1Ev"
 "_ZN5Catch17GeneratorsForTestD0Ev"
 "_ZN5Catch17GeneratorsForTestD1Ev"
 "_ZN5Catch17getCurrentContextEv"
 "_ZN5Catch17IReporterRegistryC2Ev"
 "_ZN5Catch17IReporterRegistryD0Ev"
 "_ZN5Catch17IReporterRegistryD1Ev"
 "_ZN5Catch17IReporterRegistryD2Ev"
 "_ZN5Catch17ITagAliasRegistry3getEv"
 "_ZN5Catch17ITagAliasRegistryC2Ev"
 "_ZN5Catch17ITagAliasRegistryD0Ev"
 "_ZN5Catch17ITagAliasRegistryD1Ev"
 "_ZN5Catch17ITagAliasRegistryD2Ev"
 "_ZN5Catch17ITestCaseRegistryC2Ev"
 "_ZN5Catch17ITestCaseRegistryD0Ev"
 "_ZN5Catch17ITestCaseRegistryD1Ev"
 "_ZN5Catch17ITestCaseRegistryD2Ev"
 "_ZN5Catch17MultipleReporters10tryAsMultiEv"
 "_ZN5Catch17MultipleReporters12sectionEndedERKNS_12SectionStatsE"
 "_ZN5Catch17MultipleReporters12testRunEndedERKNS_12TestRunStatsE"
 "_ZN5Catch17MultipleReporters13testCaseEndedERKNS_13TestCaseStatsE"
 "_ZN5Catch17MultipleReporters14assertionEndedERKNS_14AssertionStatsE"
 "_ZN5Catch17MultipleReporters14testGroupEndedERKNS_14TestGroupStatsE"
 "_ZN5Catch17MultipleReporters15sectionStartingERKNS_11SectionInfoE"
 "_ZN5Catch17MultipleReporters15testRunStartingERKNS_11TestRunInfoE"
 "_ZN5Catch17MultipleReporters16testCaseStartingERKNS_12TestCaseInfoE"
 "_ZN5Catch17MultipleReporters17assertionStartingERKNS_13AssertionInfoE"
 "_ZN5Catch17MultipleReporters17testGroupStartingERKNS_9GroupInfoE"
 "_ZN5Catch17MultipleReporters19noMatchingTestCasesERKNSt7__cxx1112basic_stringIcSt11char_traitsIcESaIcEEE"
 "_ZN5Catch17MultipleReporters3addERKNS_3PtrINS_18IStreamingReporterEEE"
 "_ZN5Catch17MultipleReporters8skipTestERKNS_12TestCaseInfoE"
 "_ZN5Catch17MultipleReportersC1Ev"
 "_ZN5Catch17MultipleReportersD0Ev"
 "_ZN5Catch17MultipleReportersD1Ev"
 "_ZN5Catch17OutputDebugWriterclERKNSt7__cxx1112basic_stringIcSt11char_traitsIcESaIcEEE"
 "_ZN5Catch17ReporterRegistrarINS_11XmlReporterEE15ReporterFactoryC1Ev"
 "_ZN5Catch17ReporterRegistrarINS_11XmlReporterEE15ReporterFactoryD0Ev"
 "_ZN5Catch17ReporterRegistrarINS_11XmlReporterEE15ReporterFactoryD1Ev"
 "_ZN5Catch17ReporterRegistrarINS_11XmlReporterEEC1ERKNSt7__cxx1112basic_stringIcSt11char_traitsIcESaIcEEE"
 "_ZN5Catch17ReporterRegistrarINS_13JunitReporterEE15ReporterFactoryC1Ev"
 "_ZN5Catch17ReporterRegistrarINS_13JunitReporterEE15ReporterFactoryD0Ev"
 "_ZN5Catch17ReporterRegistrarINS_13JunitReporterEE15ReporterFactoryD1Ev"
 "_ZN5Catch17ReporterRegistrarINS_13JunitReporterEEC1ERKNSt7__cxx1112basic_stringIcSt11char_traitsIcESaIcEEE"
 "_ZN5Catch17ReporterRegistrarINS_15CompactReporterEE15ReporterFactoryC1Ev"
 "_ZN5Catch17ReporterRegistrarINS_15CompactReporterEE15ReporterFactoryD0Ev"
 "_ZN5Catch17ReporterRegistrarINS_15CompactReporterEE15ReporterFactoryD1Ev"
 "_ZN5Catch17ReporterRegistrarINS_15CompactReporterEEC1ERKNSt7__cxx1112basic_stringIcSt11char_traitsIcESaIcEEE"
 "_ZN5Catch17ReporterRegistrarINS_15ConsoleReporterEE15ReporterFactoryC1Ev"
 "_ZN5Catch17ReporterRegistrarINS_15ConsoleReporterEE15ReporterFactoryD0Ev"
 "_ZN5Catch17ReporterRegistrarINS_15ConsoleReporterEE15ReporterFactoryD1Ev"
 "_ZN5Catch17ReporterRegistrarINS_15ConsoleReporterEEC1ERKNSt7__cxx1112basic_stringIcSt11char_traitsIcESaIcEEE"
 "_ZN5Catch18IGeneratorsForTestC2Ev"
 "_ZN5Catch18IGeneratorsForTestD0Ev"
 "_ZN5Catch18IGeneratorsForTestD1Ev"
 "_ZN5Catch18IGeneratorsForTestD2Ev"
 "_ZN5Catch18IStreamingReporter10tryAsMultiEv"
 "_ZN5Catch18IStreamingReporterC2Ev"
 "_ZN5Catch18IStreamingReporterD0Ev"
 "_ZN5Catch18IStreamingReporterD1Ev"
 "_ZN5Catch18IStreamingReporterD2Ev"
 "_ZN5Catch18listTestsNamesOnlyERKNS_6ConfigE"
 "_ZN5Catch19AssertionResultData6negateEb"
 "_ZN5Catch19AssertionResultDataaSERKS0_"
 "_ZN5Catch19AssertionResultDataC1EOS0_"
 "_ZN5Catch19AssertionResultDataC1ERKS0_"
 "_ZN5Catch19AssertionResultDataC1Ev"
 "_ZN5Catch19AssertionResultDataD1Ev"
 "_ZN5Catch19IMutableRegistryHubC2Ev"
 "_ZN5Catch19IMutableRegistryHubD0Ev"
 "_ZN5Catch19IMutableRegistryHubD1Ev"
 "_ZN5Catch19IMutableRegistryHubD2Ev"
 "_ZN5Catch19ReporterPreferencesC1Ev"
 "_ZN5Catch19writeToDebugConsoleERKNSt7__cxx1112basic_stringIcSt11char_traitsIcESaIcEEE"
 "_ZN5Catch20applyFilenamesAsTagsERKNS_7IConfigE"
 "_ZN5Catch20DecomposedExpressionC2Ev"
 "_ZN5Catch20DecomposedExpressionD2Ev"
 "_ZN5Catch20FreeFunctionTestCaseC1EPFvvE"
 "_ZN5Catch20FreeFunctionTestCaseD0Ev"
 "_ZN5Catch20FreeFunctionTestCaseD1Ev"
 "_ZN5Catch20FreeFunctionTestCaseD2Ev"
 "_ZN5Catch20IExceptionTranslatorD0Ev"
 "_ZN5Catch20IExceptionTranslatorD1Ev"
 "_ZN5Catch20IExceptionTranslatorD2Ev"
 "_ZN5Catch21enforceNotReservedTagERKNSt7__cxx1112basic_stringIcSt11char_traitsIcESaIcEEERKNS_14SourceLineInfoE"
 "_ZN5Catch21FatalConditionHandler5resetEv"
 "_ZN5Catch21getAllTestCasesSortedERKNS_7IConfigE"
 "_ZN5Catch21getMutableRegistryHubEv"
 "_ZN5Catch21LegacyReporterAdapter12sectionEndedERKNS_12SectionStatsE"
 "_ZN5Catch21LegacyReporterAdapter12testRunEndedERKNS_12TestRunStatsE"
 "_ZN5Catch21LegacyReporterAdapter13testCaseEndedERKNS_13TestCaseStatsE"
 "_ZN5Catch21LegacyReporterAdapter14assertionEndedERKNS_14AssertionStatsE"
 "_ZN5Catch21LegacyReporterAdapter14testGroupEndedERKNS_14TestGroupStatsE"
 "_ZN5Catch21LegacyReporterAdapter15sectionStartingERKNS_11SectionInfoE"
 "_ZN5Catch21LegacyReporterAdapter15testRunStartingERKNS_11TestRunInfoE"
 "_ZN5Catch21LegacyReporterAdapter16testCaseStartingERKNS_12TestCaseInfoE"
 "_ZN5Catch21LegacyReporterAdapter17assertionStartingERKNS_13AssertionInfoE"
 "_ZN5Catch21LegacyReporterAdapter17testGroupStartingERKNS_9GroupInfoE"
 "_ZN5Catch21LegacyReporterAdapter19noMatchingTestCasesERKNSt7__cxx1112basic_stringIcSt11char_traitsIcESaIcEEE"
 "_ZN5Catch21LegacyReporterAdapter8skipTestERKNS_12TestCaseInfoE"
 "_ZN5Catch21LegacyReporterAdapterC1ERKNS_3PtrINS_9IReporterEEE"
 "_ZN5Catch21LegacyReporterAdapterC2ERKNS_3PtrINS_9IReporterEEE"
 "_ZN5Catch21LegacyReporterAdapterD0Ev"
 "_ZN5Catch21LegacyReporterAdapterD1Ev"
 "_ZN5Catch21LegacyReporterAdapterD2Ev"
 "_ZN5Catch21loadTestNamesFromFileERNS_10ConfigDataERKNSt7__cxx1112basic_stringIcSt11char_traitsIcESaIcEEE"
 "_ZN5Catch21makeCommandLineParserEv"
 "_ZN5Catch21RandomNumberGenerator7shuffleISt6vectorINS_8TestCaseESaIS3_EEEEvRT_"
 "_ZN5Catch21shouldSuppressFailureEi"
 "_ZN5Catch21StreamingReporterBase12sectionEndedERKNS_12SectionStatsE"
 "_ZN5Catch21StreamingReporterBase12testRunEndedERKNS_12TestRunStatsE"
 "_ZN5Catch21StreamingReporterBase13testCaseEndedERKNS_13TestCaseStatsE"
 "_ZN5Catch21StreamingReporterBase14testGroupEndedERKNS_14TestGroupStatsE"
 "_ZN5Catch21StreamingReporterBase15sectionStartingERKNS_11SectionInfoE"
 "_ZN5Catch21StreamingReporterBase15testRunStartingERKNS_11TestRunInfoE"
 "_ZN5Catch21StreamingReporterBase16testCaseStartingERKNS_12TestCaseInfoE"
 "_ZN5Catch21StreamingReporterBase17testGroupStartingERKNS_9GroupInfoE"
 "_ZN5Catch21StreamingReporterBase19noMatchingTestCasesERKNSt7__cxx1112basic_stringIcSt11char_traitsIcESaIcEEE"
 "_ZN5Catch21StreamingReporterBase8skipTestERKNS_12TestCaseInfoE"
 "_ZN5Catch21StreamingReporterBaseC2ERKNS_14ReporterConfigE"
 "_ZN5Catch21StreamingReporterBaseD0Ev"
 "_ZN5Catch21StreamingReporterBaseD1Ev"
 "_ZN5Catch21StreamingReporterBaseD2Ev"
 "_ZN5Catch22CumulativeReporterBase11SectionNodeC1ERKNS_12SectionStatsE"
 "_ZN5Catch22CumulativeReporterBase11SectionNodeD0Ev"
 "_ZN5Catch22CumulativeReporterBase11SectionNodeD1Ev"
 "_ZN5Catch22CumulativeReporterBase11SectionNodeD2Ev"
 "_ZN5Catch22CumulativeReporterBase12sectionEndedERKNS_12SectionStatsE"
 "_ZN5Catch22CumulativeReporterBase12testRunEndedERKNS_12TestRunStatsE"
 "_ZN5Catch22CumulativeReporterBase13BySectionInfoC1ERKNS_11SectionInfoE"
 "_ZN5Catch22CumulativeReporterBase13BySectionInfoC1ERKS1_"
 "_ZN5Catch22CumulativeReporterBase13testCaseEndedERKNS_13TestCaseStatsE"
 "_ZN5Catch22CumulativeReporterBase14assertionEndedERKNS_14AssertionStatsE"
 "_ZN5Catch22CumulativeReporterBase14testGroupEndedERKNS_14TestGroupStatsE"
 "_ZN5Catch22CumulativeReporterBase15sectionStartingERKNS_11SectionInfoE"
 "_ZN5Catch22CumulativeReporterBase15testRunStartingERKNS_11TestRunInfoE"
 "_ZN5Catch22CumulativeReporterBase16testCaseStartingERKNS_12TestCaseInfoE"
 "_ZN5Catch22CumulativeReporterBase17assertionStartingERKNS_13AssertionInfoE"
 "_ZN5Catch22CumulativeReporterBase17testGroupStartingERKNS_9GroupInfoE"
 "_ZN5Catch22CumulativeReporterBase4NodeINS_12TestRunStatsENS1_INS_14TestGroupStatsENS1_INS_13TestCaseStatsENS0_11SectionNodeEEEEEEC1ERKS2_"
 "_ZN5Catch22CumulativeReporterBase4NodeINS_12TestRunStatsENS1_INS_14TestGroupStatsENS1_INS_13TestCaseStatsENS0_11SectionNodeEEEEEED0Ev"
 "_ZN5Catch22CumulativeReporterBase4NodeINS_12TestRunStatsENS1_INS_14TestGroupStatsENS1_INS_13TestCaseStatsENS0_11SectionNodeEEEEEED1Ev"
 "_ZN5Catch22CumulativeReporterBase4NodeINS_13TestCaseStatsENS0_11SectionNodeEEC1ERKS2_"
 "_ZN5Catch22CumulativeReporterBase4NodeINS_13TestCaseStatsENS0_11SectionNodeEED0Ev"
 "_ZN5Catch22CumulativeReporterBase4NodeINS_13TestCaseStatsENS0_11SectionNodeEED1Ev"
 "_ZN5Catch22CumulativeReporterBase4NodeINS_14TestGroupStatsENS1_INS_13TestCaseStatsENS0_11SectionNodeEEEEC1ERKS2_"
 "_ZN5Catch22CumulativeReporterBase4NodeINS_14TestGroupStatsENS1_INS_13TestCaseStatsENS0_11SectionNodeEEEED0Ev"
 "_ZN5Catch22CumulativeReporterBase4NodeINS_14TestGroupStatsENS1_INS_13TestCaseStatsENS0_11SectionNodeEEEED1Ev"
 "_ZN5Catch22CumulativeReporterBase8skipTestERKNS_12TestCaseInfoE"
 "_ZN5Catch22CumulativeReporterBaseC2ERKNS_14ReporterConfigE"
 "_ZN5Catch22CumulativeReporterBaseD0Ev"
 "_ZN5Catch22CumulativeReporterBaseD1Ev"
 "_ZN5Catch22CumulativeReporterBaseD2Ev"
 "_ZN5Catch22RegistrarForTagAliasesC1EPKcS2_RKNS_14SourceLineInfoE"
 "_ZN5Catch22RegistrarForTagAliasesC2EPKcS2_RKNS_14SourceLineInfoE"
 "_ZN5Catch23createGeneratorsForTestEv"
 "_ZN5Catch23NotImplementedExceptionC1ERKNS_14SourceLineInfoE"
 "_ZN5Catch23NotImplementedExceptionC2ERKNS_14SourceLineInfoE"
 "_ZN5Catch23NotImplementedExceptionD0Ev"
 "_ZN5Catch23NotImplementedExceptionD1Ev"
 "_ZN5Catch24getCurrentMutableContextEv"
 "_ZN5Catch24registerTestCaseFunctionEPFvvERKNS_14SourceLineInfoERKNS_11NameAndDescE"
 "_ZN5Catch24translateActiveExceptionB5cxx11Ev"
 "_ZN5Catch27enforceNoDuplicateTestCasesERKSt6vectorINS_8TestCaseESaIS1_EE"
 "_ZN5Catch27ExceptionTranslatorRegistry18registerTranslatorEPKNS_20IExceptionTranslatorE"
 "_ZN5Catch27ExceptionTranslatorRegistryC1Ev"
 "_ZN5Catch27ExceptionTranslatorRegistryD0Ev"
 "_ZN5Catch27ExceptionTranslatorRegistryD1Ev"
 "_ZN5Catch28IExceptionTranslatorRegistryC2Ev"
 "_ZN5Catch28IExceptionTranslatorRegistryD0Ev"
 "_ZN5Catch28IExceptionTranslatorRegistryD1Ev"
 "_ZN5Catch28IExceptionTranslatorRegistryD2Ev"
 "_ZN5Catch36capturedExpressionWithSecondArgumentB5cxx11EPKcS1_"
 "_ZN5Catch3PtrIKNS_7IConfigEE4swapERS3_"
 "_ZN5Catch3PtrIKNS_7IConfigEEaSERKS3_"
 "_ZN5Catch3PtrIKNS_7IConfigEEC1EPS2_"
 "_ZN5Catch3PtrIKNS_7IConfigEEC1ERKS3_"
 "_ZN5Catch3PtrIKNS_7IConfigEED1Ev"
 "_ZN5Catch3PtrINS_16IReporterFactoryEEC1EPS1_"
 "_ZN5Catch3PtrINS_16IReporterFactoryEEC1ERKS2_"
 "_ZN5Catch3PtrINS_16IReporterFactoryEED1Ev"
 "_ZN5Catch3PtrINS_16TestCaseTracking8ITrackerEE4swapERS3_"
 "_ZN5Catch3PtrINS_16TestCaseTracking8ITrackerEEaSEPS2_"
 "_ZN5Catch3PtrINS_16TestCaseTracking8ITrackerEEC1EPS2_"
 "_ZN5Catch3PtrINS_16TestCaseTracking8ITrackerEEC1ERKS3_"
 "_ZN5Catch3PtrINS_16TestCaseTracking8ITrackerEEC1Ev"
 "_ZN5Catch3PtrINS_16TestCaseTracking8ITrackerEED1Ev"
 "_ZN5Catch3PtrINS_18IStreamingReporterEE4swapERS2_"
 "_ZN5Catch3PtrINS_18IStreamingReporterEEaSERKS2_"
 "_ZN5Catch3PtrINS_18IStreamingReporterEEC1EPS1_"
 "_ZN5Catch3PtrINS_18IStreamingReporterEEC1ERKS2_"
 "_ZN5Catch3PtrINS_18IStreamingReporterEEC1Ev"
 "_ZN5Catch3PtrINS_18IStreamingReporterEED1Ev"
 "_ZN5Catch3PtrINS_22CumulativeReporterBase11SectionNodeEE4swapERS3_"
 "_ZN5Catch3PtrINS_22CumulativeReporterBase11SectionNodeEE5resetEv"
 "_ZN5Catch3PtrINS_22CumulativeReporterBase11SectionNodeEEaSEPS2_"
 "_ZN5Catch3PtrINS_22CumulativeReporterBase11SectionNodeEEaSERKS3_"
 "_ZN5Catch3PtrINS_22CumulativeReporterBase11SectionNodeEEC1EPS2_"
 "_ZN5Catch3PtrINS_22CumulativeReporterBase11SectionNodeEEC1ERKS3_"
 "_ZN5Catch3PtrINS_22CumulativeReporterBase11SectionNodeEEC1Ev"
 "_ZN5Catch3PtrINS_22CumulativeReporterBase11SectionNodeEED1Ev"
 "_ZN5Catch3PtrINS_22CumulativeReporterBase4NodeINS_12TestRunStatsENS2_INS_14TestGroupStatsENS2_INS_13TestCaseStatsENS1_11SectionNodeEEEEEEEEC1EPS9_"
 "_ZN5Catch3PtrINS_22CumulativeReporterBase4NodeINS_12TestRunStatsENS2_INS_14TestGroupStatsENS2_INS_13TestCaseStatsENS1_11SectionNodeEEEEEEEEC1ERKSA_"
 "_ZN5Catch3PtrINS_22CumulativeReporterBase4NodeINS_12TestRunStatsENS2_INS_14TestGroupStatsENS2_INS_13TestCaseStatsENS1_11SectionNodeEEEEEEEED1Ev"
 "_ZN5Catch3PtrINS_22CumulativeReporterBase4NodeINS_13TestCaseStatsENS1_11SectionNodeEEEEC1EPS5_"
 "_ZN5Catch3PtrINS_22CumulativeReporterBase4NodeINS_13TestCaseStatsENS1_11SectionNodeEEEEC1ERKS6_"
 "_ZN5Catch3PtrINS_22CumulativeReporterBase4NodeINS_13TestCaseStatsENS1_11SectionNodeEEEED1Ev"
 "_ZN5Catch3PtrINS_22CumulativeReporterBase4NodeINS_14TestGroupStatsENS2_INS_13TestCaseStatsENS1_11SectionNodeEEEEEEC1EPS7_"
 "_ZN5Catch3PtrINS_22CumulativeReporterBase4NodeINS_14TestGroupStatsENS2_INS_13TestCaseStatsENS1_11SectionNodeEEEEEEC1ERKS8_"
 "_ZN5Catch3PtrINS_22CumulativeReporterBase4NodeINS_14TestGroupStatsENS2_INS_13TestCaseStatsENS1_11SectionNodeEEEEEED1Ev"
 "_ZN5Catch3PtrINS_6ConfigEE4swapERS2_"
 "_ZN5Catch3PtrINS_6ConfigEE5resetEv"
 "_ZN5Catch3PtrINS_6ConfigEEaSEPS1_"
 "_ZN5Catch3PtrINS_6ConfigEEC1EPS1_"
 "_ZN5Catch3PtrINS_6ConfigEEC1Ev"
 "_ZN5Catch3PtrINS_6ConfigEED1Ev"
 "_ZN5Catch3PtrINS_8TestSpec7PatternEE4swapERS3_"
 "_ZN5Catch3PtrINS_8TestSpec7PatternEEaSEPS2_"
 "_ZN5Catch3PtrINS_8TestSpec7PatternEEC1EPS2_"
 "_ZN5Catch3PtrINS_8TestSpec7PatternEEC1ERKS3_"
 "_ZN5Catch3PtrINS_8TestSpec7PatternEED1Ev"
 "_ZN5Catch3PtrINS_9IReporterEEC1ERKS2_"
 "_ZN5Catch3PtrINS_9IReporterEED1Ev"
 "_ZN5Catch3PtrINS_9ITestCaseEE4swapERS2_"
 "_ZN5Catch3PtrINS_9ITestCaseEEC1EPS1_"
 "_ZN5Catch3PtrINS_9ITestCaseEEC1ERKS2_"
 "_ZN5Catch3PtrINS_9ITestCaseEED1Ev"
 "_ZN5Catch3Tbc14TextAttributes16setInitialIndentEy"
 "_ZN5Catch3Tbc14TextAttributes8setWidthEy"
 "_ZN5Catch3Tbc14TextAttributes9setIndentEy"
 "_ZN5Catch3Tbc14TextAttributesC1Ev"
 "_ZN5Catch3Tbc4TextC1ERKNSt7__cxx1112basic_stringIcSt11char_traitsIcESaIcEEERKNS0_14TextAttributesE"
 "_ZN5Catch3Tbc4TextD1Ev"
 "_ZN5Catch3TbclsERSoRKNS0_4TextE"
 "_ZN5Catch4cerrEv"
 "_ZN5Catch4coutEv"
 "_ZN5Catch4isOkENS_9ResultWas6OfTypeE"
 "_ZN5Catch4listERKNS_6ConfigE"
 "_ZN5Catch4trimERKNSt7__cxx1112basic_stringIcSt11char_traitsIcESaIcEEE"
 "_ZN5Catch5Clara1_E"
 "_ZN5Catch5Clara10addOptNameERNS0_11CommandLineINS_10ConfigDataEE3ArgERKNSt7__cxx1112basic_stringIcSt11char_traitsIcESaIcEEE"
 "_ZN5Catch5Clara11CommandLineINS_10ConfigDataEE10ArgBuilder4bindIS2_bEEvPFvRT_T0_ERKNSt7__cxx1112basic_stringIcSt11char_traitsIcESaIcEEE"
 "_ZN5Catch5Clara11CommandLineINS_10ConfigDataEE10ArgBuilder4bindIS2_EEvMT_b"
 "_ZN5Catch5Clara11CommandLineINS_10ConfigDataEE10ArgBuilder4bindIS2_EEvPFvRT_E"
 "_ZN5Catch5Clara11CommandLineINS_10ConfigDataEE10ArgBuilder4bindIS2_iEEvPFvRT_T0_ERKNSt7__cxx1112basic_stringIcSt11char_traitsIcESaIcEEE"
 "_ZN5Catch5Clara11CommandLineINS_10ConfigDataEE10ArgBuilder4bindIS2_NSt7__cxx1112basic_stringIcSt11char_traitsIcESaIcEEEEEvMT_T0_RKSB_"
 "_ZN5Catch5Clara11CommandLineINS_10ConfigDataEE10ArgBuilder4bindIS2_RKNSt7__cxx1112basic_stringIcSt11char_traitsIcESaIcEEEEEvPFvRT_T0_ESD_"
 "_ZN5Catch5Clara11CommandLineINS_10ConfigDataEE10ArgBuilder8describeERKNSt7__cxx1112basic_stringIcSt11char_traitsIcESaIcEEE"
 "_ZN5Catch5Clara11CommandLineINS_10ConfigDataEE10ArgBuilderC1EPNS3_3ArgE"
 "_ZN5Catch5Clara11CommandLineINS_10ConfigDataEE10ArgBuilderC2EPNS3_3ArgE"
 "_ZN5Catch5Clara11CommandLineINS_10ConfigDataEE10OptBuilderC1EPNS3_3ArgE"
 "_ZN5Catch5Clara11CommandLineINS_10ConfigDataEE10OptBuilderixERKNSt7__cxx1112basic_stringIcSt11char_traitsIcESaIcEEE"
 "_ZN5Catch5Clara11CommandLineINS_10ConfigDataEE15bindProcessNameIS2_NSt7__cxx1112basic_stringIcSt11char_traitsIcESaIcEEEEEvMT_T0_"
 "_ZN5Catch5Clara11CommandLineINS_10ConfigDataEE28setThrowOnUnrecognisedTokensEb"
 "_ZN5Catch5Clara11CommandLineINS_10ConfigDataEE3ArgC1EOS4_"
 "_ZN5Catch5Clara11CommandLineINS_10ConfigDataEE3ArgC1ERKS4_"
 "_ZN5Catch5Clara11CommandLineINS_10ConfigDataEE3ArgC1Ev"
 "_ZN5Catch5Clara11CommandLineINS_10ConfigDataEE3ArgD1Ev"
 "_ZN5Catch5Clara11CommandLineINS_10ConfigDataEEC1Ev"
 "_ZN5Catch5Clara11CommandLineINS_10ConfigDataEED1Ev"
 "_ZN5Catch5Clara11CommandLineINS_10ConfigDataEEixENS0_15UnpositionalTagE"
 "_ZN5Catch5Clara11CommandLineINS_10ConfigDataEEixERKNSt7__cxx1112basic_stringIcSt11char_traitsIcESaIcEEE"
 "_ZN5Catch5Clara12argsToVectorB5cxx11EiPKPKc"
 "_ZN5Catch5Clara19CommonArgPropertiesINS_10ConfigDataEEC2EOS3_"
 "_ZN5Catch5Clara19CommonArgPropertiesINS_10ConfigDataEEC2ERKS3_"
 "_ZN5Catch5Clara19CommonArgPropertiesINS_10ConfigDataEEC2Ev"
 "_ZN5Catch5Clara19CommonArgPropertiesINS_10ConfigDataEED2Ev"
 "_ZN5Catch5Clara19OptionArgPropertiesC2EOS1_"
 "_ZN5Catch5Clara19OptionArgPropertiesC2ERKS1_"
 "_ZN5Catch5Clara19OptionArgPropertiesC2Ev"
 "_ZN5Catch5Clara19OptionArgPropertiesD2Ev"
 "_ZN5Catch5Clara23PositionalArgPropertiesC2Ev"
 "_ZN5Catch5Clara6Detail10NullBinderINS_10ConfigDataEEC1ERKS4_"
 "_ZN5Catch5Clara6Detail10NullBinderINS_10ConfigDataEEC1Ev"
 "_ZN5Catch5Clara6Detail10NullBinderINS_10ConfigDataEED0Ev"
 "_ZN5Catch5Clara6Detail10NullBinderINS_10ConfigDataEED1Ev"
 "_ZN5Catch5Clara6Detail10startsWithERKNSt7__cxx1112basic_stringIcSt11char_traitsIcESaIcEEES9_"
 "_ZN5Catch5Clara6Detail11convertIntoERKNSt7__cxx1112basic_stringIcSt11char_traitsIcESaIcEEERb"
 "_ZN5Catch5Clara6Detail11convertIntoERKNSt7__cxx1112basic_stringIcSt11char_traitsIcESaIcEEERS7_"
 "_ZN5Catch5Clara6Detail11convertIntoIiEEvRKNSt7__cxx1112basic_stringIcSt11char_traitsIcESaIcEEERT_"
 "_ZN5Catch5Clara6Detail12IArgFunctionINS_10ConfigDataEEC2ERKS4_"
 "_ZN5Catch5Clara6Detail12IArgFunctionINS_10ConfigDataEEC2Ev"
 "_ZN5Catch5Clara6Detail12IArgFunctionINS_10ConfigDataEED2Ev"
 "_ZN5Catch5Clara6Detail15BoundDataMemberINS_10ConfigDataEbEC1EMS3_b"
 "_ZN5Catch5Clara6Detail15BoundDataMemberINS_10ConfigDataEbEC1ERKS4_"
 "_ZN5Catch5Clara6Detail15BoundDataMemberINS_10ConfigDataEbED0Ev"
 "_ZN5Catch5Clara6Detail15BoundDataMemberINS_10ConfigDataEbED1Ev"
 "_ZN5Catch5Clara6Detail15BoundDataMemberINS_10ConfigDataENSt7__cxx1112basic_stringIcSt11char_traitsIcESaIcEEEEC1EMS3_S9_"
 "_ZN5Catch5Clara6Detail15BoundDataMemberINS_10ConfigDataENSt7__cxx1112basic_stringIcSt11char_traitsIcESaIcEEEEC1ERKSA_"
 "_ZN5Catch5Clara6Detail15BoundDataMemberINS_10ConfigDataENSt7__cxx1112basic_stringIcSt11char_traitsIcESaIcEEEED0Ev"
 "_ZN5Catch5Clara6Detail15BoundDataMemberINS_10ConfigDataENSt7__cxx1112basic_stringIcSt11char_traitsIcESaIcEEEED1Ev"
 "_ZN5Catch5Clara6Detail16BoundArgFunctionINS_10ConfigDataEEaSERKS4_"
 "_ZN5Catch5Clara6Detail16BoundArgFunctionINS_10ConfigDataEEC1EPNS1_12IArgFunctionIS3_EE"
 "_ZN5Catch5Clara6Detail16BoundArgFunctionINS_10ConfigDataEEC1ERKS4_"
 "_ZN5Catch5Clara6Detail16BoundArgFunctionINS_10ConfigDataEEC1Ev"
 "_ZN5Catch5Clara6Detail16BoundArgFunctionINS_10ConfigDataEED1Ev"
 "_ZN5Catch5Clara6Detail18BoundUnaryFunctionINS_10ConfigDataEEC1EPFvRS3_E"
 "_ZN5Catch5Clara6Detail18BoundUnaryFunctionINS_10ConfigDataEEC1ERKS4_"
 "_ZN5Catch5Clara6Detail18BoundUnaryFunctionINS_10ConfigDataEED0Ev"
 "_ZN5Catch5Clara6Detail18BoundUnaryFunctionINS_10ConfigDataEED1Ev"
 "_ZN5Catch5Clara6Detail19BoundBinaryFunctionINS_10ConfigDataEbEC1EPFvRS3_bE"
 "_ZN5Catch5Clara6Detail19BoundBinaryFunctionINS_10ConfigDataEbEC1ERKS4_"
 "_ZN5Catch5Clara6Detail19BoundBinaryFunctionINS_10ConfigDataEbED0Ev"
 "_ZN5Catch5Clara6Detail19BoundBinaryFunctionINS_10ConfigDataEbED1Ev"
 "_ZN5Catch5Clara6Detail19BoundBinaryFunctionINS_10ConfigDataEiEC1EPFvRS3_iE"
 "_ZN5Catch5Clara6Detail19BoundBinaryFunctionINS_10ConfigDataEiEC1ERKS4_"
 "_ZN5Catch5Clara6Detail19BoundBinaryFunctionINS_10ConfigDataEiED0Ev"
 "_ZN5Catch5Clara6Detail19BoundBinaryFunctionINS_10ConfigDataEiED1Ev"
 "_ZN5Catch5Clara6Detail19BoundBinaryFunctionINS_10ConfigDataERKNSt7__cxx1112basic_stringIcSt11char_traitsIcESaIcEEEEC1EPFvRS3_SB_E"
 "_ZN5Catch5Clara6Detail19BoundBinaryFunctionINS_10ConfigDataERKNSt7__cxx1112basic_stringIcSt11char_traitsIcESaIcEEEEC1ERKSC_"
 "_ZN5Catch5Clara6Detail19BoundBinaryFunctionINS_10ConfigDataERKNSt7__cxx1112basic_stringIcSt11char_traitsIcESaIcEEEED0Ev"
 "_ZN5Catch5Clara6Detail19BoundBinaryFunctionINS_10ConfigDataERKNSt7__cxx1112basic_stringIcSt11char_traitsIcESaIcEEEED1Ev"
 "_ZN5Catch5Clara6Detail9toLowerChEc"
 "_ZN5Catch5Clara6Parser10handleModeEycRKNSt7__cxx1112basic_stringIcSt11char_traitsIcESaIcEEERSt6vectorINS1_5TokenESaISB_EE"
 "_ZN5Catch5Clara6Parser10handleNoneEyc"
 "_ZN5Catch5Clara6Parser15parseIntoTokensERKNSt7__cxx1112basic_stringIcSt11char_traitsIcESaIcEEERSt6vectorINS1_5TokenESaISB_EE"
 "_ZN5Catch5Clara6Parser15parseIntoTokensERKSt6vectorINSt7__cxx1112basic_stringIcSt11char_traitsIcESaIcEEESaIS8_EERS2_INS1_5TokenESaISD_EE"
 "_ZN5Catch5Clara6Parser16handlePositionalEycRKNSt7__cxx1112basic_stringIcSt11char_traitsIcESaIcEEERSt6vectorINS1_5TokenESaISB_EE"
 "_ZN5Catch5Clara6Parser19handleMaybeShortOptEyc"
 "_ZN5Catch5Clara6Parser5TokenC1ENS2_4TypeERKNSt7__cxx1112basic_stringIcSt11char_traitsIcESaIcEEE"
 "_ZN5Catch5Clara6Parser5TokenC1EOS2_"
 "_ZN5Catch5Clara6Parser5TokenC1ERKS2_"
 "_ZN5Catch5Clara6Parser5TokenD1Ev"
 "_ZN5Catch5Clara6Parser9handleOptEycRKNSt7__cxx1112basic_stringIcSt11char_traitsIcESaIcEEERSt6vectorINS1_5TokenESaISB_EE"
 "_ZN5Catch5Clara6ParserC1Ev"
 "_ZN5Catch5srandEj"
 "_ZN5Catch5Timer5startEv"
 "_ZN5Catch5TimerC1Ev"
 "_ZN5Catch6Colour3useENS0_4CodeE"
 "_ZN5Catch6ColourC1ENS0_4CodeE"
 "_ZN5Catch6ColourC1ERKS0_"
 "_ZN5Catch6ColourC2ENS0_4CodeE"
 "_ZN5Catch6ColourC2ERKS0_"
 "_ZN5Catch6ColourD1Ev"
 "_ZN5Catch6ColourD2Ev"
 "_ZN5Catch6Config10openStreamEv"
 "_ZN5Catch6Config5dummyEv"
 "_ZN5Catch6ConfigC1ERKNS_10ConfigDataE"
 "_ZN5Catch6ConfigD0Ev"
 "_ZN5Catch6ConfigD1Ev"
 "_ZN5Catch6CountsC1Ev"
 "_ZN5Catch6CountspLERKS0_"
 "_ZN5Catch6Detail17rawMemoryToStringB5cxx11EPKvy"
 "_ZN5Catch6Detail17unprintableStringB5cxx11E"
 "_ZN5Catch6OptionINS_11TestRunInfoEE5resetEv"
 "_ZN5Catch6OptionINS_11TestRunInfoEEaSERKS1_"
 "_ZN5Catch6OptionINS_11TestRunInfoEEC2Ev"
 "_ZN5Catch6OptionINS_11TestRunInfoEED2Ev"
 "_ZN5Catch6OptionINS_11TestRunInfoEEptEv"
 "_ZN5Catch6OptionINS_12TestCaseInfoEE5resetEv"
 "_ZN5Catch6OptionINS_12TestCaseInfoEEaSERKS1_"
 "_ZN5Catch6OptionINS_12TestCaseInfoEEC2Ev"
 "_ZN5Catch6OptionINS_12TestCaseInfoEED2Ev"
 "_ZN5Catch6OptionINS_12TestCaseInfoEEptEv"
 "_ZN5Catch6OptionINS_8TagAliasEE5resetEv"
 "_ZN5Catch6OptionINS_8TagAliasEEC1ERKS1_"
 "_ZN5Catch6OptionINS_8TagAliasEEC1Ev"
 "_ZN5Catch6OptionINS_8TagAliasEED1Ev"
 "_ZN5Catch6OptionINS_8TagAliasEEptEv"
 "_ZN5Catch6OptionINS_9GroupInfoEE5resetEv"
 "_ZN5Catch6OptionINS_9GroupInfoEEaSERKS1_"
 "_ZN5Catch6OptionINS_9GroupInfoEEC2Ev"
 "_ZN5Catch6OptionINS_9GroupInfoEED2Ev"
 "_ZN5Catch6OptionINS_9GroupInfoEEptEv"
 "_ZN5Catch6OptionIyE5resetEv"
 "_ZN5Catch6OptionIyEaSERKy"
 "_ZN5Catch6OptionIyEC1Ev"
 "_ZN5Catch6OptionIyED1Ev"
 "_ZN5Catch6OptionIyEdeEv"
 "_ZN5Catch6TotalsC1Ev"
 "_ZN5Catch6TotalspLERKS0_"
 "_ZN5Catch7AutoRegC1EPFvvERKNS_14SourceLineInfoERKNS_11NameAndDescE"
 "_ZN5Catch7AutoRegC2EPFvvERKNS_14SourceLineInfoERKNS_11NameAndDescE"
 "_ZN5Catch7AutoRegD1Ev"
 "_ZN5Catch7AutoRegD2Ev"
 "_ZN5Catch7cleanUpEv"
 "_ZN5Catch7Context16getResultCaptureEv"
 "_ZN5Catch7Context16setResultCaptureEPNS_14IResultCaptureE"
 "_ZN5Catch7Context17getGeneratorIndexERKNSt7__cxx1112basic_stringIcSt11char_traitsIcESaIcEEEy"
 "_ZN5Catch7Context27getGeneratorsForCurrentTestEv"
 "_ZN5Catch7Context28findGeneratorsForCurrentTestEv"
 "_ZN5Catch7Context31advanceGeneratorsForCurrentTestEv"
 "_ZN5Catch7Context9getRunnerEv"
 "_ZN5Catch7Context9setConfigERKNS_3PtrIKNS_7IConfigEEE"
 "_ZN5Catch7Context9setRunnerEPNS_7IRunnerE"
 "_ZN5Catch7ContextC1Ev"
 "_ZN5Catch7ContextD0Ev"
 "_ZN5Catch7ContextD1Ev"
 "_ZN5Catch7IConfigC2Ev"
 "_ZN5Catch7IConfigD0Ev"
 "_ZN5Catch7IConfigD1Ev"
 "_ZN5Catch7IConfigD2Ev"
 "_ZN5Catch7IRunnerC2Ev"
 "_ZN5Catch7IRunnerD0Ev"
 "_ZN5Catch7IRunnerD1Ev"
 "_ZN5Catch7IRunnerD2Ev"
 "_ZN5Catch7ISharedC2Ev"
 "_ZN5Catch7ISharedD0Ev"
 "_ZN5Catch7ISharedD1Ev"
 "_ZN5Catch7ISharedD2Ev"
 "_ZN5Catch7IStreamC2Ev"
 "_ZN5Catch7IStreamD0Ev"
 "_ZN5Catch7IStreamD1Ev"
 "_ZN5Catch7IStreamD2Ev"
 "_ZN5Catch7rngSeedEv"
 "_ZN5Catch7SectionC1ERKNS_11SectionInfoE"
 "_ZN5Catch7SectionC2ERKNS_11SectionInfoE"
 "_ZN5Catch7SectionD0Ev"
 "_ZN5Catch7SectionD1Ev"
 "_ZN5Catch7SectionD2Ev"
 "_ZN5Catch7seedRngERKNS_7IConfigE"
 "_ZN5Catch7Session16applyCommandLineEiPKPKcNS0_15OnUnusedOptions6DoWhatE"
 "_ZN5Catch7Session19alreadyInstantiatedE"
 "_ZN5Catch7Session3runEiPKPKc"
 "_ZN5Catch7Session3runEv"
 "_ZN5Catch7Session6configEv"
 "_ZN5Catch7Session8showHelpERKNSt7__cxx1112basic_stringIcSt11char_traitsIcESaIcEEE"
 "_ZN5Catch7SessionC1Ev"
 "_ZN5Catch7SessionD0Ev"
 "_ZN5Catch7SessionD1Ev"
 "_ZN5Catch7setTagsERNS_12TestCaseInfoERKSt3setINSt7__cxx1112basic_stringIcSt11char_traitsIcESaIcEEESt4lessIS8_ESaIS8_EE"
 "_ZN5Catch7TagInfo3addERKNSt7__cxx1112basic_stringIcSt11char_traitsIcESaIcEEE"
 "_ZN5Catch7TagInfoC1EOS0_"
 "_ZN5Catch7TagInfoC1Ev"
 "_ZN5Catch7TagInfoD1Ev"
 "_ZN5Catch7toLowerERKNSt7__cxx1112basic_stringIcSt11char_traitsIcESaIcEEE"
 "_ZN5Catch7VersionC1EjjjPKcj"
 "_ZN5Catch7VersionC2EjjjPKcj"
 "_ZN5Catch8containsERKNSt7__cxx1112basic_stringIcSt11char_traitsIcESaIcEEES7_"
 "_ZN5Catch8endsWithERKNSt7__cxx1112basic_stringIcSt11char_traitsIcESaIcEEEc"
 "_ZN5Catch8endsWithERKNSt7__cxx1112basic_stringIcSt11char_traitsIcESaIcEEES7_"
 "_ZN5Catch8IContextC2Ev"
 "_ZN5Catch8IContextD0Ev"
 "_ZN5Catch8IContextD1Ev"
 "_ZN5Catch8IContextD2Ev"
 "_ZN5Catch8LazyStatINS_11TestRunInfoEE5resetEv"
 "_ZN5Catch8LazyStatINS_11TestRunInfoEEaSERKS1_"
 "_ZN5Catch8LazyStatINS_11TestRunInfoEEC1Ev"
 "_ZN5Catch8LazyStatINS_11TestRunInfoEED1Ev"
 "_ZN5Catch8LazyStatINS_12TestCaseInfoEE5resetEv"
 "_ZN5Catch8LazyStatINS_12TestCaseInfoEEaSERKS1_"
 "_ZN5Catch8LazyStatINS_12TestCaseInfoEEC1Ev"
 "_ZN5Catch8LazyStatINS_12TestCaseInfoEED1Ev"
 "_ZN5Catch8LazyStatINS_9GroupInfoEE5resetEv"
 "_ZN5Catch8LazyStatINS_9GroupInfoEEaSERKS1_"
 "_ZN5Catch8LazyStatINS_9GroupInfoEEC1Ev"
 "_ZN5Catch8LazyStatINS_9GroupInfoEED1Ev"
 "_ZN5Catch8listTagsERKNS_6ConfigE"
 "_ZN5Catch8Matchers10StartsWithERKNSt7__cxx1112basic_stringIcSt11char_traitsIcESaIcEEENS_13CaseSensitive6ChoiceE"
 "_ZN5Catch8Matchers4Impl10MatchAllOfINSt7__cxx1112basic_stringIcSt11char_traitsIcESaIcEEEEC1Ev"
 "_ZN5Catch8Matchers4Impl10MatchAllOfINSt7__cxx1112basic_stringIcSt11char_traitsIcESaIcEEEED0Ev"
 "_ZN5Catch8Matchers4Impl10MatchAllOfINSt7__cxx1112basic_stringIcSt11char_traitsIcESaIcEEEED1Ev"
 "_ZN5Catch8Matchers4Impl11MatcherBaseINSt7__cxx1112basic_stringIcSt11char_traitsIcESaIcEEES8_EC2Ev"
 "_ZN5Catch8Matchers4Impl11MatcherBaseINSt7__cxx1112basic_stringIcSt11char_traitsIcESaIcEEES8_ED2Ev"
 "_ZN5Catch8Matchers4Impl13MatcherMethodINSt7__cxx1112basic_stringIcSt11char_traitsIcESaIcEEEEC2Ev"
 "_ZN5Catch8Matchers4Impl18MatcherUntypedBaseC2Ev"
 "_ZN5Catch8Matchers4Impl18MatcherUntypedBaseD0Ev"
 "_ZN5Catch8Matchers4Impl18MatcherUntypedBaseD1Ev"
 "_ZN5Catch8Matchers4Impl18MatcherUntypedBaseD2Ev"
 "_ZN5Catch8Matchers6EqualsERKNSt7__cxx1112basic_stringIcSt11char_traitsIcESaIcEEENS_13CaseSensitive6ChoiceE"
 "_ZN5Catch8Matchers8ContainsERKNSt7__cxx1112basic_stringIcSt11char_traitsIcESaIcEEENS_13CaseSensitive6ChoiceE"
 "_ZN5Catch8Matchers8EndsWithERKNSt7__cxx1112basic_stringIcSt11char_traitsIcESaIcEEENS_13CaseSensitive6ChoiceE"
 "_ZN5Catch8Matchers9StdString11CasedStringC1ERKNSt7__cxx1112basic_stringIcSt11char_traitsIcESaIcEEENS_13CaseSensitive6ChoiceE"
 "_ZN5Catch8Matchers9StdString11CasedStringC1ERKS2_"
 "_ZN5Catch8Matchers9StdString11CasedStringC2ERKNSt7__cxx1112basic_stringIcSt11char_traitsIcESaIcEEENS_13CaseSensitive6ChoiceE"
 "_ZN5Catch8Matchers9StdString11CasedStringD1Ev"
 "_ZN5Catch8Matchers9StdString13EqualsMatcherC1ERKNS1_11CasedStringE"
 "_ZN5Catch8Matchers9StdString13EqualsMatcherC2ERKNS1_11CasedStringE"
 "_ZN5Catch8Matchers9StdString13EqualsMatcherD0Ev"
 "_ZN5Catch8Matchers9StdString13EqualsMatcherD1Ev"
 "_ZN5Catch8Matchers9StdString15ContainsMatcherC1ERKNS1_11CasedStringE"
 "_ZN5Catch8Matchers9StdString15ContainsMatcherC2ERKNS1_11CasedStringE"
 "_ZN5Catch8Matchers9StdString15ContainsMatcherD0Ev"
 "_ZN5Catch8Matchers9StdString15ContainsMatcherD1Ev"
 "_ZN5Catch8Matchers9StdString15EndsWithMatcherC1ERKNS1_11CasedStringE"
 "_ZN5Catch8Matchers9StdString15EndsWithMatcherC2ERKNS1_11CasedStringE"
 "_ZN5Catch8Matchers9StdString15EndsWithMatcherD0Ev"
 "_ZN5Catch8Matchers9StdString15EndsWithMatcherD1Ev"
 "_ZN5Catch8Matchers9StdString17StartsWithMatcherC1ERKNS1_11CasedStringE"
 "_ZN5Catch8Matchers9StdString17StartsWithMatcherC2ERKNS1_11CasedStringE"
 "_ZN5Catch8Matchers9StdString17StartsWithMatcherD0Ev"
 "_ZN5Catch8Matchers9StdString17StartsWithMatcherD1Ev"
 "_ZN5Catch8Matchers9StdString17StringMatcherBaseC1ERKNSt7__cxx1112basic_stringIcSt11char_traitsIcESaIcEEERKNS1_11CasedStringE"
 "_ZN5Catch8Matchers9StdString17StringMatcherBaseC2ERKNSt7__cxx1112basic_stringIcSt11char_traitsIcESaIcEEERKNS1_11CasedStringE"
 "_ZN5Catch8Matchers9StdString17StringMatcherBaseD2Ev"
 "_ZN5Catch8runTestsERKNS_3PtrINS_6ConfigEEE"
 "_ZN5Catch8SafeBool8makeSafeEb"
 "_ZN5Catch8setOrderERNS_10ConfigDataERKNSt7__cxx1112basic_stringIcSt11char_traitsIcESaIcEEE"
 "_ZN5Catch8TagAliasC1EOS0_"
 "_ZN5Catch8TagAliasC1ERKNSt7__cxx1112basic_stringIcSt11char_traitsIcESaIcEEENS_14SourceLineInfoE"
 "_ZN5Catch8TagAliasC1ERKS0_"
 "_ZN5Catch8TagAliasD1Ev"
 "_ZN5Catch8TestCase4swapERS0_"
 "_ZN5Catch8TestCaseaSERKS0_"
 "_ZN5Catch8TestCaseC1EPNS_9ITestCaseERKNS_12TestCaseInfoE"
 "_ZN5Catch8TestCaseC1ERKS0_"
 "_ZN5Catch8TestCaseC2EPNS_9ITestCaseERKNS_12TestCaseInfoE"
 "_ZN5Catch8TestCaseC2ERKS0_"
 "_ZN5Catch8TestCaseD1Ev"
 "_ZN5Catch8TestSpec10TagPatternC1ERKNSt7__cxx1112basic_stringIcSt11char_traitsIcESaIcEEE"
 "_ZN5Catch8TestSpec10TagPatternD0Ev"
 "_ZN5Catch8TestSpec10TagPatternD1Ev"
 "_ZN5Catch8TestSpec10TagPatternD2Ev"
 "_ZN5Catch8TestSpec11NamePatternC1ERKNSt7__cxx1112basic_stringIcSt11char_traitsIcESaIcEEE"
 "_ZN5Catch8TestSpec11NamePatternD0Ev"
 "_ZN5Catch8TestSpec11NamePatternD1Ev"
 "_ZN5Catch8TestSpec11NamePatternD2Ev"
 "_ZN5Catch8TestSpec15ExcludedPatternC1ERKNS_3PtrINS0_7PatternEEE"
 "_ZN5Catch8TestSpec15ExcludedPatternD0Ev"
 "_ZN5Catch8TestSpec15ExcludedPatternD1Ev"
 "_ZN5Catch8TestSpec15ExcludedPatternD2Ev"
 "_ZN5Catch8TestSpec6FilteraSEOS1_"
 "_ZN5Catch8TestSpec6FilterC1EOS1_"
 "_ZN5Catch8TestSpec6FilterC1ERKS1_"
 "_ZN5Catch8TestSpec6FilterC1Ev"
 "_ZN5Catch8TestSpec6FilterD1Ev"
 "_ZN5Catch8TestSpec7PatternC2Ev"
 "_ZN5Catch8TestSpec7PatternD0Ev"
 "_ZN5Catch8TestSpec7PatternD1Ev"
 "_ZN5Catch8TestSpec7PatternD2Ev"
 "_ZN5Catch8TestSpecaSEOS0_"
 "_ZN5Catch8TestSpecC1ERKS0_"
 "_ZN5Catch8TestSpecC1Ev"
 "_ZN5Catch8TestSpecD1Ev"
 "_ZN5Catch8toStringB5cxx11Ea"
 "_ZN5Catch8toStringB5cxx11Eb"
 "_ZN5Catch8toStringB5cxx11Ec"
 "_ZN5Catch8toStringB5cxx11Ed"
 "_ZN5Catch8toStringB5cxx11EDn"
 "_ZN5Catch8toStringB5cxx11Ef"
 "_ZN5Catch8toStringB5cxx11Eh"
 "_ZN5Catch8toStringB5cxx11Ei"
 "_ZN5Catch8toStringB5cxx11Ej"
 "_ZN5Catch8toStringB5cxx11Em"
 "_ZN5Catch8toStringB5cxx11EPc"
 "_ZN5Catch8toStringB5cxx11EPKc"
 "_ZN5Catch8toStringB5cxx11EPKw"
 "_ZN5Catch8toStringB5cxx11EPw"
 "_ZN5Catch8toStringB5cxx11Ex"
 "_ZN5Catch8toStringB5cxx11Ey"
 "_ZN5Catch8toStringERKNSt7__cxx1112basic_stringIcSt11char_traitsIcESaIcEEE"
 "_ZN5Catch8toStringERKNSt7__cxx1112basic_stringIwSt11char_traitsIwESaIwEEE"
 "_ZN5Catch9deleteAllISt6vectorIPKNS_20IExceptionTranslatorESaIS4_EEEEvRT_"
 "_ZN5Catch9deleteAllISt6vectorIPNS_14IGeneratorInfoESaIS3_EEEEvRT_"
 "_ZN5Catch9GroupInfoC1ERKNSt7__cxx1112basic_stringIcSt11char_traitsIcESaIcEEEyy"
 "_ZN5Catch9GroupInfoC1ERKS0_"
 "_ZN5Catch9GroupInfoD1Ev"
 "_ZN5Catch9IReporterD0Ev"
 "_ZN5Catch9IReporterD1Ev"
 "_ZN5Catch9IReporterD2Ev"
 "_ZN5Catch9ITestCaseC2Ev"
 "_ZN5Catch9ITestCaseD0Ev"
 "_ZN5Catch9ITestCaseD1Ev"
 "_ZN5Catch9ITestCaseD2Ev"
 "_ZN5Catch9listTestsERKNS_6ConfigE"
 "_ZN5Catch9matchTestERKNS_8TestCaseERKNS_8TestSpecERKNS_7IConfigE"
 "_ZN5Catch9pluraliseC1EyRKNSt7__cxx1112basic_stringIcSt11char_traitsIcESaIcEEE"
 "_ZN5Catch9pluraliseC2EyRKNSt7__cxx1112basic_stringIcSt11char_traitsIcESaIcEEE"
 "_ZN5Catch9pluraliseD1Ev"
 "_ZN5Catch9sortTestsERKNS_7IConfigERKSt6vectorINS_8TestCaseESaIS4_EE"
 "_ZN5Catch9toLowerChEc"
 "_ZN5Catch9XmlEncodeC1ERKNSt7__cxx1112basic_stringIcSt11char_traitsIcESaIcEEENS0_7ForWhatE"
 "_ZN5Catch9XmlEncodeD1Ev"
 "_ZN5Catch9XmlWriter10endElementEv"
 "_ZN5Catch9XmlWriter12startElementERKNSt7__cxx1112basic_stringIcSt11char_traitsIcESaIcEEE"
 "_ZN5Catch9XmlWriter13ScopedElement14writeAttributeIbEERS1_RKNSt7__cxx1112basic_stringIcSt11char_traitsIcESaIcEEERKT_"
 "_ZN5Catch9XmlWriter13ScopedElement14writeAttributeIdEERS1_RKNSt7__cxx1112basic_stringIcSt11char_traitsIcESaIcEEERKT_"
 "_ZN5Catch9XmlWriter13ScopedElement14writeAttributeIyEERS1_RKNSt7__cxx1112basic_stringIcSt11char_traitsIcESaIcEEERKT_"
 "_ZN5Catch9XmlWriter13ScopedElement9writeTextERKNSt7__cxx1112basic_stringIcSt11char_traitsIcESaIcEEEb"
 "_ZN5Catch9XmlWriter13ScopedElementC1EPS0_"
 "_ZN5Catch9XmlWriter13ScopedElementD1Ev"
 "_ZN5Catch9XmlWriter13scopedElementERKNSt7__cxx1112basic_stringIcSt11char_traitsIcESaIcEEE"
 "_ZN5Catch9XmlWriter14writeAttributeERKNSt7__cxx1112basic_stringIcSt11char_traitsIcESaIcEEEb"
 "_ZN5Catch9XmlWriter14writeAttributeERKNSt7__cxx1112basic_stringIcSt11char_traitsIcESaIcEEES8_"
 "_ZN5Catch9XmlWriter14writeAttributeIA1_cEERS0_RKNSt7__cxx1112basic_stringIcSt11char_traitsIcESaIcEEERKT_"
 "_ZN5Catch9XmlWriter14writeAttributeIA4_cEERS0_RKNSt7__cxx1112basic_stringIcSt11char_traitsIcESaIcEEERKT_"
 "_ZN5Catch9XmlWriter14writeAttributeIA5_cEERS0_RKNSt7__cxx1112basic_stringIcSt11char_traitsIcESaIcEEERKT_"
 "_ZN5Catch9XmlWriter14writeAttributeIdEERS0_RKNSt7__cxx1112basic_stringIcSt11char_traitsIcESaIcEEERKT_"
 "_ZN5Catch9XmlWriter14writeAttributeIjEERS0_RKNSt7__cxx1112basic_stringIcSt11char_traitsIcESaIcEEERKT_"
 "_ZN5Catch9XmlWriter14writeAttributeIPKcEERS0_RKNSt7__cxx1112basic_stringIcSt11char_traitsIcESaIcEEERKT_"
 "_ZN5Catch9XmlWriter14writeAttributeIyEERS0_RKNSt7__cxx1112basic_stringIcSt11char_traitsIcESaIcEEERKT_"
 "_ZN5Catch9XmlWriter15ensureTagClosedEv"
 "_ZN5Catch9XmlWriter16writeDeclarationEv"
 "_ZN5Catch9XmlWriter18newlineIfNecessaryEv"
 "_ZN5Catch9XmlWriter18writeStylesheetRefERKNSt7__cxx1112basic_stringIcSt11char_traitsIcESaIcEEE"
 "_ZN5Catch9XmlWriter9writeTextERKNSt7__cxx1112basic_stringIcSt11char_traitsIcESaIcEEEb"
 "_ZN5Catch9XmlWriterC1ERSo"
 "_ZN5Catch9XmlWriterD1Ev"
 "_ZN5CatchlsERSoRKNS_14SourceLineInfoE"
 "_ZN5CatchlsERSoRKNS_6ColourE"
 "_ZN5CatchlsERSoRKNS_7VersionE"
 "_ZN5CatchlsERSoRKNS_9pluraliseE"
 "_ZN5CatchlsERSoRKNS_9XmlEncodeE"
 "_ZN8testthat11r_streambuf4syncEv"
 "_ZN8testthat11r_streambuf6xsputnEPKcx"
 "_ZN8testthat11r_streambuf8overflowEi"
 "_ZN8testthat11r_streambufC1Ev"
 "_ZN8testthat11r_streambufD0Ev"
 "_ZN8testthat11r_streambufD1Ev"
 "_ZN8testthat12catchSessionEv"
 "_ZN8testthat9r_ostreamC1Ev"
 "_ZN8testthat9r_ostreamD0Ev"
 "_ZN8testthat9r_ostreamD1Ev"
 "_ZN8testthat9run_testsEb"
 "_ZN9__gnu_cxx13new_allocatorIN5Catch11MessageInfoEE10deallocateEPS2_y"
 "_ZN9__gnu_cxx13new_allocatorIN5Catch11MessageInfoEE7destroyIS2_EEvPT_"
 "_ZN9__gnu_cxx13new_allocatorIN5Catch11MessageInfoEE8allocateEyPKv"
 "_ZN9__gnu_cxx13new_allocatorIN5Catch11MessageInfoEE9constructIS2_JRKS2_EEEvPT_DpOT0_"
 "_ZN9__gnu_cxx13new_allocatorIN5Catch11MessageInfoEE9constructIS2_JS2_EEEvPT_DpOT0_"
 "_ZN9__gnu_cxx13new_allocatorIN5Catch11MessageInfoEEC2ERKS3_"
 "_ZN9__gnu_cxx13new_allocatorIN5Catch11MessageInfoEEC2Ev"
 "_ZN9__gnu_cxx13new_allocatorIN5Catch11MessageInfoEED2Ev"
 "_ZN9__gnu_cxx13new_allocatorIN5Catch11SectionInfoEE10deallocateEPS2_y"
 "_ZN9__gnu_cxx13new_allocatorIN5Catch11SectionInfoEE7destroyIS2_EEvPT_"
 "_ZN9__gnu_cxx13new_allocatorIN5Catch11SectionInfoEE8allocateEyPKv"
 "_ZN9__gnu_cxx13new_allocatorIN5Catch11SectionInfoEE9constructIS2_JRKS2_EEEvPT_DpOT0_"
 "_ZN9__gnu_cxx13new_allocatorIN5Catch11SectionInfoEE9constructIS2_JS2_EEEvPT_DpOT0_"
 "_ZN9__gnu_cxx13new_allocatorIN5Catch11SectionInfoEEC2Ev"
 "_ZN9__gnu_cxx13new_allocatorIN5Catch11SectionInfoEED2Ev"
 "_ZN9__gnu_cxx13new_allocatorIN5Catch14AssertionStatsEE10deallocateEPS2_y"
 "_ZN9__gnu_cxx13new_allocatorIN5Catch14AssertionStatsEE7destroyIS2_EEvPT_"
 "_ZN9__gnu_cxx13new_allocatorIN5Catch14AssertionStatsEE8allocateEyPKv"
 "_ZN9__gnu_cxx13new_allocatorIN5Catch14AssertionStatsEE9constructIS2_JRKS2_EEEvPT_DpOT0_"
 "_ZN9__gnu_cxx13new_allocatorIN5Catch14AssertionStatsEE9constructIS2_JS2_EEEvPT_DpOT0_"
 "_ZN9__gnu_cxx13new_allocatorIN5Catch14AssertionStatsEEC2Ev"
 "_ZN9__gnu_cxx13new_allocatorIN5Catch14AssertionStatsEED2Ev"
 "_ZN9__gnu_cxx13new_allocatorIN5Catch14SectionEndInfoEE10deallocateEPS2_y"
 "_ZN9__gnu_cxx13new_allocatorIN5Catch14SectionEndInfoEE7destroyIS2_EEvPT_"
 "_ZN9__gnu_cxx13new_allocatorIN5Catch14SectionEndInfoEE8allocateEyPKv"
 "_ZN9__gnu_cxx13new_allocatorIN5Catch14SectionEndInfoEE9constructIS2_JRKS2_EEEvPT_DpOT0_"
 "_ZN9__gnu_cxx13new_allocatorIN5Catch14SectionEndInfoEE9constructIS2_JS2_EEEvPT_DpOT0_"
 "_ZN9__gnu_cxx13new_allocatorIN5Catch14SectionEndInfoEEC2Ev"
 "_ZN9__gnu_cxx13new_allocatorIN5Catch14SectionEndInfoEED2Ev"
 "_ZN9__gnu_cxx13new_allocatorIN5Catch15ConsoleReporter13SummaryColumnEE10deallocateEPS3_y"
 "_ZN9__gnu_cxx13new_allocatorIN5Catch15ConsoleReporter13SummaryColumnEE7destroyIS3_EEvPT_"
 "_ZN9__gnu_cxx13new_allocatorIN5Catch15ConsoleReporter13SummaryColumnEE8allocateEyPKv"
 "_ZN9__gnu_cxx13new_allocatorIN5Catch15ConsoleReporter13SummaryColumnEE9constructIS3_JS3_EEEvPT_DpOT0_"
 "_ZN9__gnu_cxx13new_allocatorIN5Catch15ConsoleReporter13SummaryColumnEEC2Ev"
 "_ZN9__gnu_cxx13new_allocatorIN5Catch15ConsoleReporter13SummaryColumnEED2Ev"
 "_ZN9__gnu_cxx13new_allocatorIN5Catch3PtrINS1_16IReporterFactoryEEEE10deallocateEPS4_y"
 "_ZN9__gnu_cxx13new_allocatorIN5Catch3PtrINS1_16IReporterFactoryEEEE7destroyIS4_EEvPT_"
 "_ZN9__gnu_cxx13new_allocatorIN5Catch3PtrINS1_16IReporterFactoryEEEE8allocateEyPKv"
 "_ZN9__gnu_cxx13new_allocatorIN5Catch3PtrINS1_16IReporterFactoryEEEE9constructIS4_JRKS4_EEEvPT_DpOT0_"
 "_ZN9__gnu_cxx13new_allocatorIN5Catch3PtrINS1_16IReporterFactoryEEEEC2ERKS5_"
 "_ZN9__gnu_cxx13new_allocatorIN5Catch3PtrINS1_16IReporterFactoryEEEEC2Ev"
 "_ZN9__gnu_cxx13new_allocatorIN5Catch3PtrINS1_16IReporterFactoryEEEED2Ev"
 "_ZN9__gnu_cxx13new_allocatorIN5Catch3PtrINS1_16TestCaseTracking8ITrackerEEEE10deallocateEPS5_y"
 "_ZN9__gnu_cxx13new_allocatorIN5Catch3PtrINS1_16TestCaseTracking8ITrackerEEEE7destroyIS5_EEvPT_"
 "_ZN9__gnu_cxx13new_allocatorIN5Catch3PtrINS1_16TestCaseTracking8ITrackerEEEE8allocateEyPKv"
 "_ZN9__gnu_cxx13new_allocatorIN5Catch3PtrINS1_16TestCaseTracking8ITrackerEEEE9constructIS5_JRKS5_EEEvPT_DpOT0_"
 "_ZN9__gnu_cxx13new_allocatorIN5Catch3PtrINS1_16TestCaseTracking8ITrackerEEEEC2Ev"
 "_ZN9__gnu_cxx13new_allocatorIN5Catch3PtrINS1_16TestCaseTracking8ITrackerEEEED2Ev"
 "_ZN9__gnu_cxx13new_allocatorIN5Catch3PtrINS1_18IStreamingReporterEEEE10deallocateEPS4_y"
 "_ZN9__gnu_cxx13new_allocatorIN5Catch3PtrINS1_18IStreamingReporterEEEE7destroyIS4_EEvPT_"
 "_ZN9__gnu_cxx13new_allocatorIN5Catch3PtrINS1_18IStreamingReporterEEEE8allocateEyPKv"
 "_ZN9__gnu_cxx13new_allocatorIN5Catch3PtrINS1_18IStreamingReporterEEEE9constructIS4_JRKS4_EEEvPT_DpOT0_"
 "_ZN9__gnu_cxx13new_allocatorIN5Catch3PtrINS1_18IStreamingReporterEEEEC2Ev"
 "_ZN9__gnu_cxx13new_allocatorIN5Catch3PtrINS1_18IStreamingReporterEEEED2Ev"
 "_ZN9__gnu_cxx13new_allocatorIN5Catch3PtrINS1_22CumulativeReporterBase11SectionNodeEEEE10deallocateEPS5_y"
 "_ZN9__gnu_cxx13new_allocatorIN5Catch3PtrINS1_22CumulativeReporterBase11SectionNodeEEEE7destroyIS5_EEvPT_"
 "_ZN9__gnu_cxx13new_allocatorIN5Catch3PtrINS1_22CumulativeReporterBase11SectionNodeEEEE8allocateEyPKv"
 "_ZN9__gnu_cxx13new_allocatorIN5Catch3PtrINS1_22CumulativeReporterBase11SectionNodeEEEE9constructIS5_JRKS5_EEEvPT_DpOT0_"
 "_ZN9__gnu_cxx13new_allocatorIN5Catch3PtrINS1_22CumulativeReporterBase11SectionNodeEEEEC2Ev"
 "_ZN9__gnu_cxx13new_allocatorIN5Catch3PtrINS1_22CumulativeReporterBase11SectionNodeEEEED2Ev"
 "_ZN9__gnu_cxx13new_allocatorIN5Catch3PtrINS1_22CumulativeReporterBase4NodeINS1_12TestRunStatsENS4_INS1_14TestGroupStatsENS4_INS1_13TestCaseStatsENS3_11SectionNodeEEEEEEEEEE10deallocateEPSC_y"
 "_ZN9__gnu_cxx13new_allocatorIN5Catch3PtrINS1_22CumulativeReporterBase4NodeINS1_12TestRunStatsENS4_INS1_14TestGroupStatsENS4_INS1_13TestCaseStatsENS3_11SectionNodeEEEEEEEEEE7destroyISC_EEvPT_"
 "_ZN9__gnu_cxx13new_allocatorIN5Catch3PtrINS1_22CumulativeReporterBase4NodeINS1_12TestRunStatsENS4_INS1_14TestGroupStatsENS4_INS1_13TestCaseStatsENS3_11SectionNodeEEEEEEEEEE8allocateEyPKv"
 "_ZN9__gnu_cxx13new_allocatorIN5Catch3PtrINS1_22CumulativeReporterBase4NodeINS1_12TestRunStatsENS4_INS1_14TestGroupStatsENS4_INS1_13TestCaseStatsENS3_11SectionNodeEEEEEEEEEE9constructISC_JRKSC_EEEvPT_DpOT0_"
 "_ZN9__gnu_cxx13new_allocatorIN5Catch3PtrINS1_22CumulativeReporterBase4NodeINS1_12TestRunStatsENS4_INS1_14TestGroupStatsENS4_INS1_13TestCaseStatsENS3_11SectionNodeEEEEEEEEEEC2Ev"
 "_ZN9__gnu_cxx13new_allocatorIN5Catch3PtrINS1_22CumulativeReporterBase4NodeINS1_12TestRunStatsENS4_INS1_14TestGroupStatsENS4_INS1_13TestCaseStatsENS3_11SectionNodeEEEEEEEEEED2Ev"
 "_ZN9__gnu_cxx13new_allocatorIN5Catch3PtrINS1_22CumulativeReporterBase4NodeINS1_13TestCaseStatsENS3_11SectionNodeEEEEEE10deallocateEPS8_y"
 "_ZN9__gnu_cxx13new_allocatorIN5Catch3PtrINS1_22CumulativeReporterBase4NodeINS1_13TestCaseStatsENS3_11SectionNodeEEEEEE7destroyIS8_EEvPT_"
 "_ZN9__gnu_cxx13new_allocatorIN5Catch3PtrINS1_22CumulativeReporterBase4NodeINS1_13TestCaseStatsENS3_11SectionNodeEEEEEE8allocateEyPKv"
 "_ZN9__gnu_cxx13new_allocatorIN5Catch3PtrINS1_22CumulativeReporterBase4NodeINS1_13TestCaseStatsENS3_11SectionNodeEEEEEE9constructIS8_JRKS8_EEEvPT_DpOT0_"
 "_ZN9__gnu_cxx13new_allocatorIN5Catch3PtrINS1_22CumulativeReporterBase4NodeINS1_13TestCaseStatsENS3_11SectionNodeEEEEEEC2Ev"
 "_ZN9__gnu_cxx13new_allocatorIN5Catch3PtrINS1_22CumulativeReporterBase4NodeINS1_13TestCaseStatsENS3_11SectionNodeEEEEEED2Ev"
 "_ZN9__gnu_cxx13new_allocatorIN5Catch3PtrINS1_22CumulativeReporterBase4NodeINS1_14TestGroupStatsENS4_INS1_13TestCaseStatsENS3_11SectionNodeEEEEEEEE10deallocateEPSA_y"
 "_ZN9__gnu_cxx13new_allocatorIN5Catch3PtrINS1_22CumulativeReporterBase4NodeINS1_14TestGroupStatsENS4_INS1_13TestCaseStatsENS3_11SectionNodeEEEEEEEE7destroyISA_EEvPT_"
 "_ZN9__gnu_cxx13new_allocatorIN5Catch3PtrINS1_22CumulativeReporterBase4NodeINS1_14TestGroupStatsENS4_INS1_13TestCaseStatsENS3_11SectionNodeEEEEEEEE8allocateEyPKv"
 "_ZN9__gnu_cxx13new_allocatorIN5Catch3PtrINS1_22CumulativeReporterBase4NodeINS1_14TestGroupStatsENS4_INS1_13TestCaseStatsENS3_11SectionNodeEEEEEEEE9constructISA_JRKSA_EEEvPT_DpOT0_"
 "_ZN9__gnu_cxx13new_allocatorIN5Catch3PtrINS1_22CumulativeReporterBase4NodeINS1_14TestGroupStatsENS4_INS1_13TestCaseStatsENS3_11SectionNodeEEEEEEEEC2Ev"
 "_ZN9__gnu_cxx13new_allocatorIN5Catch3PtrINS1_22CumulativeReporterBase4NodeINS1_14TestGroupStatsENS4_INS1_13TestCaseStatsENS3_11SectionNodeEEEEEEEED2Ev"
 "_ZN9__gnu_cxx13new_allocatorIN5Catch3PtrINS1_8TestSpec7PatternEEEE10deallocateEPS5_y"
 "_ZN9__gnu_cxx13new_allocatorIN5Catch3PtrINS1_8TestSpec7PatternEEEE7destroyIS5_EEvPT_"
 "_ZN9__gnu_cxx13new_allocatorIN5Catch3PtrINS1_8TestSpec7PatternEEEE8allocateEyPKv"
 "_ZN9__gnu_cxx13new_allocatorIN5Catch3PtrINS1_8TestSpec7PatternEEEE9constructIS5_JRKS5_EEEvPT_DpOT0_"
 "_ZN9__gnu_cxx13new_allocatorIN5Catch3PtrINS1_8TestSpec7PatternEEEEC2ERKS6_"
 "_ZN9__gnu_cxx13new_allocatorIN5Catch3PtrINS1_8TestSpec7PatternEEEEC2Ev"
 "_ZN9__gnu_cxx13new_allocatorIN5Catch3PtrINS1_8TestSpec7PatternEEEED2Ev"
 "_ZN9__gnu_cxx13new_allocatorIN5Catch5Clara11CommandLineINS1_10ConfigDataEE3ArgEE10deallocateEPS6_y"
 "_ZN9__gnu_cxx13new_allocatorIN5Catch5Clara11CommandLineINS1_10ConfigDataEE3ArgEE7destroyIS6_EEvPT_"
 "_ZN9__gnu_cxx13new_allocatorIN5Catch5Clara11CommandLineINS1_10ConfigDataEE3ArgEE8allocateEyPKv"
 "_ZN9__gnu_cxx13new_allocatorIN5Catch5Clara11CommandLineINS1_10ConfigDataEE3ArgEE9constructIS6_JS6_EEEvPT_DpOT0_"
 "_ZN9__gnu_cxx13new_allocatorIN5Catch5Clara11CommandLineINS1_10ConfigDataEE3ArgEEC2Ev"
 "_ZN9__gnu_cxx13new_allocatorIN5Catch5Clara11CommandLineINS1_10ConfigDataEE3ArgEED2Ev"
 "_ZN9__gnu_cxx13new_allocatorIN5Catch5Clara6Parser5TokenEE10deallocateEPS4_y"
 "_ZN9__gnu_cxx13new_allocatorIN5Catch5Clara6Parser5TokenEE7destroyIS4_EEvPT_"
 "_ZN9__gnu_cxx13new_allocatorIN5Catch5Clara6Parser5TokenEE8allocateEyPKv"
 "_ZN9__gnu_cxx13new_allocatorIN5Catch5Clara6Parser5TokenEE9constructIS4_JRKS4_EEEvPT_DpOT0_"
 "_ZN9__gnu_cxx13new_allocatorIN5Catch5Clara6Parser5TokenEE9constructIS4_JS4_EEEvPT_DpOT0_"
 "_ZN9__gnu_cxx13new_allocatorIN5Catch5Clara6Parser5TokenEEC2ERKS5_"
 "_ZN9__gnu_cxx13new_allocatorIN5Catch5Clara6Parser5TokenEEC2Ev"
 "_ZN9__gnu_cxx13new_allocatorIN5Catch5Clara6Parser5TokenEED2Ev"
 "_ZN9__gnu_cxx13new_allocatorIN5Catch8TestCaseEE10deallocateEPS2_y"
 "_ZN9__gnu_cxx13new_allocatorIN5Catch8TestCaseEE7destroyIS2_EEvPT_"
 "_ZN9__gnu_cxx13new_allocatorIN5Catch8TestCaseEE8allocateEyPKv"
 "_ZN9__gnu_cxx13new_allocatorIN5Catch8TestCaseEE9constructIS2_JRKS2_EEEvPT_DpOT0_"
 "_ZN9__gnu_cxx13new_allocatorIN5Catch8TestCaseEEC2ERKS3_"
 "_ZN9__gnu_cxx13new_allocatorIN5Catch8TestCaseEEC2Ev"
 "_ZN9__gnu_cxx13new_allocatorIN5Catch8TestCaseEED2Ev"
 "_ZN9__gnu_cxx13new_allocatorIN5Catch8TestSpec6FilterEE10deallocateEPS3_y"
 "_ZN9__gnu_cxx13new_allocatorIN5Catch8TestSpec6FilterEE7destroyIS3_EEvPT_"
 "_ZN9__gnu_cxx13new_allocatorIN5Catch8TestSpec6FilterEE8allocateEyPKv"
 "_ZN9__gnu_cxx13new_allocatorIN5Catch8TestSpec6FilterEE9constructIS3_JRKS3_EEEvPT_DpOT0_"
 "_ZN9__gnu_cxx13new_allocatorIN5Catch8TestSpec6FilterEE9constructIS3_JS3_EEEvPT_DpOT0_"
 "_ZN9__gnu_cxx13new_allocatorIN5Catch8TestSpec6FilterEEC2ERKS4_"
 "_ZN9__gnu_cxx13new_allocatorIN5Catch8TestSpec6FilterEEC2Ev"
 "_ZN9__gnu_cxx13new_allocatorIN5Catch8TestSpec6FilterEED2Ev"
 "_ZN9__gnu_cxx13new_allocatorINSt7__cxx1112basic_stringIcSt11char_traitsIcESaIcEEEE10deallocateEPS6_y"
 "_ZN9__gnu_cxx13new_allocatorINSt7__cxx1112basic_stringIcSt11char_traitsIcESaIcEEEE7destroyIS6_EEvPT_"
 "_ZN9__gnu_cxx13new_allocatorINSt7__cxx1112basic_stringIcSt11char_traitsIcESaIcEEEE8allocateEyPKv"
 "_ZN9__gnu_cxx13new_allocatorINSt7__cxx1112basic_stringIcSt11char_traitsIcESaIcEEEE9constructIS6_JRKS6_EEEvPT_DpOT0_"
 "_ZN9__gnu_cxx13new_allocatorINSt7__cxx1112basic_stringIcSt11char_traitsIcESaIcEEEE9constructIS6_JS6_EEEvPT_DpOT0_"
 "_ZN9__gnu_cxx13new_allocatorINSt7__cxx1112basic_stringIcSt11char_traitsIcESaIcEEEEC2ERKS7_"
 "_ZN9__gnu_cxx13new_allocatorINSt7__cxx1112basic_stringIcSt11char_traitsIcESaIcEEEEC2Ev"
 "_ZN9__gnu_cxx13new_allocatorINSt7__cxx1112basic_stringIcSt11char_traitsIcESaIcEEEED2Ev"
 "_ZN9__gnu_cxx13new_allocatorIPKN5Catch20IExceptionTranslatorEE10deallocateEPS4_y"
 "_ZN9__gnu_cxx13new_allocatorIPKN5Catch20IExceptionTranslatorEE7destroyIS4_EEvPT_"
 "_ZN9__gnu_cxx13new_allocatorIPKN5Catch20IExceptionTranslatorEE8allocateEyPKv"
 "_ZN9__gnu_cxx13new_allocatorIPKN5Catch20IExceptionTranslatorEE9constructIS4_JRKS4_EEEvPT_DpOT0_"
 "_ZN9__gnu_cxx13new_allocatorIPKN5Catch20IExceptionTranslatorEEC2Ev"
 "_ZN9__gnu_cxx13new_allocatorIPKN5Catch20IExceptionTranslatorEED2Ev"
 "_ZN9__gnu_cxx13new_allocatorIPKN5Catch8Matchers4Impl11MatcherBaseINSt7__cxx1112basic_stringIcSt11char_traitsIcESaIcEEESA_EEE10deallocateEPSD_y"
 "_ZN9__gnu_cxx13new_allocatorIPKN5Catch8Matchers4Impl11MatcherBaseINSt7__cxx1112basic_stringIcSt11char_traitsIcESaIcEEESA_EEEC2Ev"
 "_ZN9__gnu_cxx13new_allocatorIPKN5Catch8Matchers4Impl11MatcherBaseINSt7__cxx1112basic_stringIcSt11char_traitsIcESaIcEEESA_EEED2Ev"
 "_ZN9__gnu_cxx13new_allocatorIPN5Catch14IGeneratorInfoEE10deallocateEPS3_y"
 "_ZN9__gnu_cxx13new_allocatorIPN5Catch14IGeneratorInfoEE7destroyIS3_EEvPT_"
 "_ZN9__gnu_cxx13new_allocatorIPN5Catch14IGeneratorInfoEE8allocateEyPKv"
 "_ZN9__gnu_cxx13new_allocatorIPN5Catch14IGeneratorInfoEE9constructIS3_JRKS3_EEEvPT_DpOT0_"
 "_ZN9__gnu_cxx13new_allocatorIPN5Catch14IGeneratorInfoEEC2Ev"
 "_ZN9__gnu_cxx13new_allocatorIPN5Catch14IGeneratorInfoEED2Ev"
 "_ZN9__gnu_cxx13new_allocatorIPN5Catch16TestCaseTracking8ITrackerEE10deallocateEPS4_y"
 "_ZN9__gnu_cxx13new_allocatorIPN5Catch16TestCaseTracking8ITrackerEE7destroyIS4_EEvPT_"
 "_ZN9__gnu_cxx13new_allocatorIPN5Catch16TestCaseTracking8ITrackerEE8allocateEyPKv"
 "_ZN9__gnu_cxx13new_allocatorIPN5Catch16TestCaseTracking8ITrackerEE9constructIS4_JS4_EEEvPT_DpOT0_"
 "_ZN9__gnu_cxx13new_allocatorIPN5Catch16TestCaseTracking8ITrackerEEC2Ev"
 "_ZN9__gnu_cxx13new_allocatorIPN5Catch16TestCaseTracking8ITrackerEED2Ev"
 "_ZN9__gnu_cxx13new_allocatorISt13_Rb_tree_nodeIN5Catch8TestCaseEEE10deallocateEPS4_y"
 "_ZN9__gnu_cxx13new_allocatorISt13_Rb_tree_nodeIN5Catch8TestCaseEEE7destroyIS3_EEvPT_"
 "_ZN9__gnu_cxx13new_allocatorISt13_Rb_tree_nodeIN5Catch8TestCaseEEE8allocateEyPKv"
 "_ZN9__gnu_cxx13new_allocatorISt13_Rb_tree_nodeIN5Catch8TestCaseEEE9constructIS3_JRKS3_EEEvPT_DpOT0_"
 "_ZN9__gnu_cxx13new_allocatorISt13_Rb_tree_nodeIN5Catch8TestCaseEEEC2Ev"
 "_ZN9__gnu_cxx13new_allocatorISt13_Rb_tree_nodeIN5Catch8TestCaseEEED2Ev"
 "_ZN9__gnu_cxx13new_allocatorISt13_Rb_tree_nodeINSt7__cxx1112basic_stringIcSt11char_traitsIcESaIcEEEEE10deallocateEPS8_y"
 "_ZN9__gnu_cxx13new_allocatorISt13_Rb_tree_nodeINSt7__cxx1112basic_stringIcSt11char_traitsIcESaIcEEEEE7destroyIS7_EEvPT_"
 "_ZN9__gnu_cxx13new_allocatorISt13_Rb_tree_nodeINSt7__cxx1112basic_stringIcSt11char_traitsIcESaIcEEEEE8allocateEyPKv"
 "_ZN9__gnu_cxx13new_allocatorISt13_Rb_tree_nodeINSt7__cxx1112basic_stringIcSt11char_traitsIcESaIcEEEEE9constructIS7_JRKS7_EEEvPT_DpOT0_"
 "_ZN9__gnu_cxx13new_allocatorISt13_Rb_tree_nodeINSt7__cxx1112basic_stringIcSt11char_traitsIcESaIcEEEEE9constructIS7_JS7_EEEvPT_DpOT0_"
 "_ZN9__gnu_cxx13new_allocatorISt13_Rb_tree_nodeINSt7__cxx1112basic_stringIcSt11char_traitsIcESaIcEEEEEC2ERKS9_"
 "_ZN9__gnu_cxx13new_allocatorISt13_Rb_tree_nodeINSt7__cxx1112basic_stringIcSt11char_traitsIcESaIcEEEEEC2Ev"
 "_ZN9__gnu_cxx13new_allocatorISt13_Rb_tree_nodeINSt7__cxx1112basic_stringIcSt11char_traitsIcESaIcEEEEED2Ev"
 "_ZN9__gnu_cxx13new_allocatorISt13_Rb_tree_nodeISt4pairIKiN5Catch5Clara11CommandLineINS4_10ConfigDataEE3ArgEEEE10deallocateEPSB_y"
 "_ZN9__gnu_cxx13new_allocatorISt13_Rb_tree_nodeISt4pairIKiN5Catch5Clara11CommandLineINS4_10ConfigDataEE3ArgEEEE7destroyISA_EEvPT_"
 "_ZN9__gnu_cxx13new_allocatorISt13_Rb_tree_nodeISt4pairIKiN5Catch5Clara11CommandLineINS4_10ConfigDataEE3ArgEEEEC2Ev"
 "_ZN9__gnu_cxx13new_allocatorISt13_Rb_tree_nodeISt4pairIKiN5Catch5Clara11CommandLineINS4_10ConfigDataEE3ArgEEEED2Ev"
 "_ZN9__gnu_cxx13new_allocatorISt13_Rb_tree_nodeISt4pairIKNSt7__cxx1112basic_stringIcSt11char_traitsIcESaIcEEEN5Catch3PtrINSA_16IReporterFactoryEEEEEE10deallocateEPSF_y"
 "_ZN9__gnu_cxx13new_allocatorISt13_Rb_tree_nodeISt4pairIKNSt7__cxx1112basic_stringIcSt11char_traitsIcESaIcEEEN5Catch3PtrINSA_16IReporterFactoryEEEEEE7destroyISE_EEvPT_"
 "_ZN9__gnu_cxx13new_allocatorISt13_Rb_tree_nodeISt4pairIKNSt7__cxx1112basic_stringIcSt11char_traitsIcESaIcEEEN5Catch3PtrINSA_16IReporterFactoryEEEEEE8allocateEyPKv"
 "_ZN9__gnu_cxx13new_allocatorISt13_Rb_tree_nodeISt4pairIKNSt7__cxx1112basic_stringIcSt11char_traitsIcESaIcEEEN5Catch3PtrINSA_16IReporterFactoryEEEEEE9constructISE_JS2_IS8_SD_EEEEvPT_DpOT0_"
 "_ZN9__gnu_cxx13new_allocatorISt13_Rb_tree_nodeISt4pairIKNSt7__cxx1112basic_stringIcSt11char_traitsIcESaIcEEEN5Catch3PtrINSA_16IReporterFactoryEEEEEEC2Ev"
 "_ZN9__gnu_cxx13new_allocatorISt13_Rb_tree_nodeISt4pairIKNSt7__cxx1112basic_stringIcSt11char_traitsIcESaIcEEEN5Catch3PtrINSA_16IReporterFactoryEEEEEED2Ev"
 "_ZN9__gnu_cxx13new_allocatorISt13_Rb_tree_nodeISt4pairIKNSt7__cxx1112basic_stringIcSt11char_traitsIcESaIcEEEN5Catch7TagInfoEEEE10deallocateEPSD_y"
 "_ZN9__gnu_cxx13new_allocatorISt13_Rb_tree_nodeISt4pairIKNSt7__cxx1112basic_stringIcSt11char_traitsIcESaIcEEEN5Catch7TagInfoEEEE7destroyISC_EEvPT_"
 "_ZN9__gnu_cxx13new_allocatorISt13_Rb_tree_nodeISt4pairIKNSt7__cxx1112basic_stringIcSt11char_traitsIcESaIcEEEN5Catch7TagInfoEEEE8allocateEyPKv"
 "_ZN9__gnu_cxx13new_allocatorISt13_Rb_tree_nodeISt4pairIKNSt7__cxx1112basic_stringIcSt11char_traitsIcESaIcEEEN5Catch7TagInfoEEEE9constructISC_JS2_IS8_SB_EEEEvPT_DpOT0_"
 "_ZN9__gnu_cxx13new_allocatorISt13_Rb_tree_nodeISt4pairIKNSt7__cxx1112basic_stringIcSt11char_traitsIcESaIcEEEN5Catch7TagInfoEEEEC2Ev"
 "_ZN9__gnu_cxx13new_allocatorISt13_Rb_tree_nodeISt4pairIKNSt7__cxx1112basic_stringIcSt11char_traitsIcESaIcEEEN5Catch7TagInfoEEEED2Ev"
 "_ZN9__gnu_cxx13new_allocatorISt13_Rb_tree_nodeISt4pairIKNSt7__cxx1112basic_stringIcSt11char_traitsIcESaIcEEEN5Catch8TagAliasEEEE10deallocateEPSD_y"
 "_ZN9__gnu_cxx13new_allocatorISt13_Rb_tree_nodeISt4pairIKNSt7__cxx1112basic_stringIcSt11char_traitsIcESaIcEEEN5Catch8TagAliasEEEE7destroyISC_EEvPT_"
 "_ZN9__gnu_cxx13new_allocatorISt13_Rb_tree_nodeISt4pairIKNSt7__cxx1112basic_stringIcSt11char_traitsIcESaIcEEEN5Catch8TagAliasEEEE8allocateEyPKv"
 "_ZN9__gnu_cxx13new_allocatorISt13_Rb_tree_nodeISt4pairIKNSt7__cxx1112basic_stringIcSt11char_traitsIcESaIcEEEN5Catch8TagAliasEEEE9constructISC_JS2_IS8_SB_EEEEvPT_DpOT0_"
 "_ZN9__gnu_cxx13new_allocatorISt13_Rb_tree_nodeISt4pairIKNSt7__cxx1112basic_stringIcSt11char_traitsIcESaIcEEEN5Catch8TagAliasEEEEC2Ev"
 "_ZN9__gnu_cxx13new_allocatorISt13_Rb_tree_nodeISt4pairIKNSt7__cxx1112basic_stringIcSt11char_traitsIcESaIcEEEN5Catch8TagAliasEEEED2Ev"
 "_ZN9__gnu_cxx13new_allocatorISt13_Rb_tree_nodeISt4pairIKNSt7__cxx1112basic_stringIcSt11char_traitsIcESaIcEEEPN5Catch14IGeneratorInfoEEEE10deallocateEPSE_y"
 "_ZN9__gnu_cxx13new_allocatorISt13_Rb_tree_nodeISt4pairIKNSt7__cxx1112basic_stringIcSt11char_traitsIcESaIcEEEPN5Catch14IGeneratorInfoEEEE7destroyISD_EEvPT_"
 "_ZN9__gnu_cxx13new_allocatorISt13_Rb_tree_nodeISt4pairIKNSt7__cxx1112basic_stringIcSt11char_traitsIcESaIcEEEPN5Catch14IGeneratorInfoEEEE8allocateEyPKv"
 "_ZN9__gnu_cxx13new_allocatorISt13_Rb_tree_nodeISt4pairIKNSt7__cxx1112basic_stringIcSt11char_traitsIcESaIcEEEPN5Catch14IGeneratorInfoEEEE9constructISD_JS2_IS8_SC_EEEEvPT_DpOT0_"
 "_ZN9__gnu_cxx13new_allocatorISt13_Rb_tree_nodeISt4pairIKNSt7__cxx1112basic_stringIcSt11char_traitsIcESaIcEEEPN5Catch14IGeneratorInfoEEEEC2Ev"
 "_ZN9__gnu_cxx13new_allocatorISt13_Rb_tree_nodeISt4pairIKNSt7__cxx1112basic_stringIcSt11char_traitsIcESaIcEEEPN5Catch14IGeneratorInfoEEEED2Ev"
 "_ZN9__gnu_cxx13new_allocatorISt13_Rb_tree_nodeISt4pairIKNSt7__cxx1112basic_stringIcSt11char_traitsIcESaIcEEEPN5Catch18IGeneratorsForTestEEEE10deallocateEPSE_y"
 "_ZN9__gnu_cxx13new_allocatorISt13_Rb_tree_nodeISt4pairIKNSt7__cxx1112basic_stringIcSt11char_traitsIcESaIcEEEPN5Catch18IGeneratorsForTestEEEE7destroyISD_EEvPT_"
 "_ZN9__gnu_cxx13new_allocatorISt13_Rb_tree_nodeISt4pairIKNSt7__cxx1112basic_stringIcSt11char_traitsIcESaIcEEEPN5Catch18IGeneratorsForTestEEEE8allocateEyPKv"
 "_ZN9__gnu_cxx13new_allocatorISt13_Rb_tree_nodeISt4pairIKNSt7__cxx1112basic_stringIcSt11char_traitsIcESaIcEEEPN5Catch18IGeneratorsForTestEEEE9constructISD_JS2_IS8_SC_EEEEvPT_DpOT0_"
 "_ZN9__gnu_cxx13new_allocatorISt13_Rb_tree_nodeISt4pairIKNSt7__cxx1112basic_stringIcSt11char_traitsIcESaIcEEEPN5Catch18IGeneratorsForTestEEEEC2Ev"
 "_ZN9__gnu_cxx13new_allocatorISt13_Rb_tree_nodeISt4pairIKNSt7__cxx1112basic_stringIcSt11char_traitsIcESaIcEEEPN5Catch18IGeneratorsForTestEEEED2Ev"
 "_ZN9__gnu_cxx13new_allocatorISt6vectorIN5Catch3PtrINS2_22CumulativeReporterBase11SectionNodeEEESaIS6_EEE10deallocateEPS8_y"
 "_ZN9__gnu_cxx13new_allocatorISt6vectorIN5Catch3PtrINS2_22CumulativeReporterBase11SectionNodeEEESaIS6_EEEC2Ev"
 "_ZN9__gnu_cxx13new_allocatorISt6vectorIN5Catch3PtrINS2_22CumulativeReporterBase11SectionNodeEEESaIS6_EEED2Ev"
 "_ZN9__gnu_cxx13new_allocatorIyE10deallocateEPyy"
 "_ZN9__gnu_cxx13new_allocatorIyE7destroyIyEEvPT_"
 "_ZN9__gnu_cxx13new_allocatorIyE8allocateEyPKv"
 "_ZN9__gnu_cxx13new_allocatorIyE9constructIyJRKyEEEvPT_DpOT0_"
 "_ZN9__gnu_cxx13new_allocatorIyEC2Ev"
 "_ZN9__gnu_cxx13new_allocatorIyED2Ev"
 "_ZN9__gnu_cxx14__alloc_traitsISaIcEcE17_S_select_on_copyERKS1_"
 "_ZN9__gnu_cxx14__alloc_traitsISaIN5Catch11MessageInfoEES2_E17_S_select_on_copyERKS3_"
 "_ZN9__gnu_cxx14__alloc_traitsISaIN5Catch3PtrINS1_16IReporterFactoryEEEES4_E17_S_select_on_copyERKS5_"
 "_ZN9__gnu_cxx14__alloc_traitsISaIN5Catch3PtrINS1_22CumulativeReporterBase4NodeINS1_13TestCaseStatsENS3_11SectionNodeEEEEEES8_E10_S_on_swapERS9_SB_"
 "_ZN9__gnu_cxx14__alloc_traitsISaIN5Catch3PtrINS1_22CumulativeReporterBase4NodeINS1_14TestGroupStatsENS4_INS1_13TestCaseStatsENS3_11SectionNodeEEEEEEEESA_E10_S_on_swapERSB_SD_"
 "_ZN9__gnu_cxx14__alloc_traitsISaIN5Catch3PtrINS1_8TestSpec7PatternEEEES5_E17_S_select_on_copyERKS6_"
 "_ZN9__gnu_cxx14__alloc_traitsISaIN5Catch5Clara6Parser5TokenEES4_E17_S_select_on_copyERKS5_"
 "_ZN9__gnu_cxx14__alloc_traitsISaIN5Catch8TestCaseEES2_E17_S_select_on_copyERKS3_"
 "_ZN9__gnu_cxx14__alloc_traitsISaIN5Catch8TestSpec6FilterEES3_E17_S_select_on_copyERKS4_"
 "_ZN9__gnu_cxx14__alloc_traitsISaINSt7__cxx1112basic_stringIcSt11char_traitsIcESaIcEEEES6_E17_S_select_on_copyERKS7_"
 "_ZN9__gnu_cxx14__alloc_traitsISaISt13_Rb_tree_nodeINSt7__cxx1112basic_stringIcSt11char_traitsIcESaIcEEEEES8_E10_S_on_swapERS9_SB_"
 "_ZN9__gnu_cxx14__alloc_traitsISaISt13_Rb_tree_nodeINSt7__cxx1112basic_stringIcSt11char_traitsIcESaIcEEEEES8_E15_S_always_equalEv"
 "_ZN9__gnu_cxx14__alloc_traitsISaISt13_Rb_tree_nodeINSt7__cxx1112basic_stringIcSt11char_traitsIcESaIcEEEEES8_E17_S_select_on_copyERKS9_"
 "_ZN9__gnu_cxx14__alloc_traitsISaISt13_Rb_tree_nodeINSt7__cxx1112basic_stringIcSt11char_traitsIcESaIcEEEEES8_E27_S_propagate_on_copy_assignEv"
 "_ZN9__gnu_cxx16__aligned_membufIN5Catch8TestCaseEE6_M_ptrEv"
 "_ZN9__gnu_cxx16__aligned_membufIN5Catch8TestCaseEE7_M_addrEv"
 "_ZN9__gnu_cxx16__aligned_membufINSt7__cxx1112basic_stringIcSt11char_traitsIcESaIcEEEE6_M_ptrEv"
 "_ZN9__gnu_cxx16__aligned_membufINSt7__cxx1112basic_stringIcSt11char_traitsIcESaIcEEEE7_M_addrEv"
 "_ZN9__gnu_cxx16__aligned_membufISt4pairIKiN5Catch5Clara11CommandLineINS3_10ConfigDataEE3ArgEEE6_M_ptrEv"
 "_ZN9__gnu_cxx16__aligned_membufISt4pairIKiN5Catch5Clara11CommandLineINS3_10ConfigDataEE3ArgEEE7_M_addrEv"
 "_ZN9__gnu_cxx16__aligned_membufISt4pairIKNSt7__cxx1112basic_stringIcSt11char_traitsIcESaIcEEEN5Catch3PtrINS9_16IReporterFactoryEEEEE6_M_ptrEv"
 "_ZN9__gnu_cxx16__aligned_membufISt4pairIKNSt7__cxx1112basic_stringIcSt11char_traitsIcESaIcEEEN5Catch3PtrINS9_16IReporterFactoryEEEEE7_M_addrEv"
 "_ZN9__gnu_cxx16__aligned_membufISt4pairIKNSt7__cxx1112basic_stringIcSt11char_traitsIcESaIcEEEN5Catch7TagInfoEEE6_M_ptrEv"
 "_ZN9__gnu_cxx16__aligned_membufISt4pairIKNSt7__cxx1112basic_stringIcSt11char_traitsIcESaIcEEEN5Catch7TagInfoEEE7_M_addrEv"
 "_ZN9__gnu_cxx16__aligned_membufISt4pairIKNSt7__cxx1112basic_stringIcSt11char_traitsIcESaIcEEEN5Catch8TagAliasEEE6_M_ptrEv"
 "_ZN9__gnu_cxx16__aligned_membufISt4pairIKNSt7__cxx1112basic_stringIcSt11char_traitsIcESaIcEEEN5Catch8TagAliasEEE7_M_addrEv"
 "_ZN9__gnu_cxx16__aligned_membufISt4pairIKNSt7__cxx1112basic_stringIcSt11char_traitsIcESaIcEEEPN5Catch14IGeneratorInfoEEE6_M_ptrEv"
 "_ZN9__gnu_cxx16__aligned_membufISt4pairIKNSt7__cxx1112basic_stringIcSt11char_traitsIcESaIcEEEPN5Catch14IGeneratorInfoEEE7_M_addrEv"
 "_ZN9__gnu_cxx16__aligned_membufISt4pairIKNSt7__cxx1112basic_stringIcSt11char_traitsIcESaIcEEEPN5Catch18IGeneratorsForTestEEE6_M_ptrEv"
 "_ZN9__gnu_cxx16__aligned_membufISt4pairIKNSt7__cxx1112basic_stringIcSt11char_traitsIcESaIcEEEPN5Catch18IGeneratorsForTestEEE7_M_addrEv"
 "_ZN9__gnu_cxx17__is_null_pointerINS_17__normal_iteratorIPKcNSt7__cxx1112basic_stringIcSt11char_traitsIcESaIcEEEEEEEbT_"
 "_ZN9__gnu_cxx17__normal_iteratorIPcNSt7__cxx1112basic_stringIcSt11char_traitsIcESaIcEEEEppEv"
 "_ZN9__gnu_cxx17__normal_iteratorIPKcNSt7__cxx1112basic_stringIcSt11char_traitsIcESaIcEEEEC1ERKS2_"
 "_ZN9__gnu_cxx17__normal_iteratorIPKcNSt7__cxx1112basic_stringIcSt11char_traitsIcESaIcEEEEmmEv"
 "_ZN9__gnu_cxx17__normal_iteratorIPKcNSt7__cxx1112basic_stringIcSt11char_traitsIcESaIcEEEEppEv"
 "_ZN9__gnu_cxx17__normal_iteratorIPKN5Catch11MessageInfoESt6vectorIS2_SaIS2_EEEC1ERKS4_"
 "_ZN9__gnu_cxx17__normal_iteratorIPKN5Catch11MessageInfoESt6vectorIS2_SaIS2_EEEC1IPS2_EERKNS0_IT_NS_11__enable_ifIXsrSt10__are_sameISB_SA_E7__valueES7_E6__typeEEE"
 "_ZN9__gnu_cxx17__normal_iteratorIPKN5Catch11MessageInfoESt6vectorIS2_SaIS2_EEEppEv"
 "_ZN9__gnu_cxx17__normal_iteratorIPKN5Catch11SectionInfoESt6vectorIS2_SaIS2_EEEC1ERKS4_"
 "_ZN9__gnu_cxx17__normal_iteratorIPKN5Catch11SectionInfoESt6vectorIS2_SaIS2_EEEC1IPS2_EERKNS0_IT_NS_11__enable_ifIXsrSt10__are_sameISB_SA_E7__valueES7_E6__typeEEE"
 "_ZN9__gnu_cxx17__normal_iteratorIPKN5Catch11SectionInfoESt6vectorIS2_SaIS2_EEEppEv"
 "_ZN9__gnu_cxx17__normal_iteratorIPKN5Catch14AssertionStatsESt6vectorIS2_SaIS2_EEEC1ERKS4_"
 "_ZN9__gnu_cxx17__normal_iteratorIPKN5Catch14AssertionStatsESt6vectorIS2_SaIS2_EEEppEv"
 "_ZN9__gnu_cxx17__normal_iteratorIPKN5Catch14SectionEndInfoESt6vectorIS2_SaIS2_EEEC1ERKS4_"
 "_ZN9__gnu_cxx17__normal_iteratorIPKN5Catch14SectionEndInfoESt6vectorIS2_SaIS2_EEEC1IPS2_EERKNS0_IT_NS_11__enable_ifIXsrSt10__are_sameISB_SA_E7__valueES7_E6__typeEEE"
 "_ZN9__gnu_cxx17__normal_iteratorIPKN5Catch14SectionEndInfoESt6vectorIS2_SaIS2_EEEmmEv"
 "_ZN9__gnu_cxx17__normal_iteratorIPKN5Catch15ConsoleReporter13SummaryColumnESt6vectorIS3_SaIS3_EEEC1ERKS5_"
 "_ZN9__gnu_cxx17__normal_iteratorIPKN5Catch15ConsoleReporter13SummaryColumnESt6vectorIS3_SaIS3_EEEppEv"
 "_ZN9__gnu_cxx17__normal_iteratorIPKN5Catch3PtrINS1_16IReporterFactoryEEESt6vectorIS4_SaIS4_EEEC1ERKS6_"
 "_ZN9__gnu_cxx17__normal_iteratorIPKN5Catch3PtrINS1_16IReporterFactoryEEESt6vectorIS4_SaIS4_EEEC1IPS4_EERKNS0_IT_NS_11__enable_ifIXsrSt10__are_sameISD_SC_E7__valueES9_E6__typeEEE"
 "_ZN9__gnu_cxx17__normal_iteratorIPKN5Catch3PtrINS1_16IReporterFactoryEEESt6vectorIS4_SaIS4_EEEppEv"
 "_ZN9__gnu_cxx17__normal_iteratorIPKN5Catch3PtrINS1_16TestCaseTracking8ITrackerEEESt6vectorIS5_SaIS5_EEEC1ERKS7_"
 "_ZN9__gnu_cxx17__normal_iteratorIPKN5Catch3PtrINS1_16TestCaseTracking8ITrackerEEESt6vectorIS5_SaIS5_EEEC1IPS5_EERKNS0_IT_NS_11__enable_ifIXsrSt10__are_sameISE_SD_E7__valueESA_E6__typeEEE"
 "_ZN9__gnu_cxx17__normal_iteratorIPKN5Catch3PtrINS1_18IStreamingReporterEEESt6vectorIS4_SaIS4_EEEC1IPS4_EERKNS0_IT_NS_11__enable_ifIXsrSt10__are_sameISD_SC_E7__valueES9_E6__typeEEE"
 "_ZN9__gnu_cxx17__normal_iteratorIPKN5Catch3PtrINS1_18IStreamingReporterEEESt6vectorIS4_SaIS4_EEEppEv"
 "_ZN9__gnu_cxx17__normal_iteratorIPKN5Catch3PtrINS1_22CumulativeReporterBase11SectionNodeEEESt6vectorIS5_SaIS5_EEEC1ERKS7_"
 "_ZN9__gnu_cxx17__normal_iteratorIPKN5Catch3PtrINS1_22CumulativeReporterBase11SectionNodeEEESt6vectorIS5_SaIS5_EEEC1IPS5_EERKNS0_IT_NS_11__enable_ifIXsrSt10__are_sameISE_SD_E7__valueESA_E6__typeEEE"
 "_ZN9__gnu_cxx17__normal_iteratorIPKN5Catch3PtrINS1_22CumulativeReporterBase11SectionNodeEEESt6vectorIS5_SaIS5_EEEppEv"
 "_ZN9__gnu_cxx17__normal_iteratorIPKN5Catch3PtrINS1_22CumulativeReporterBase4NodeINS1_13TestCaseStatsENS3_11SectionNodeEEEEESt6vectorIS8_SaIS8_EEEC1ERKSA_"
 "_ZN9__gnu_cxx17__normal_iteratorIPKN5Catch3PtrINS1_22CumulativeReporterBase4NodeINS1_13TestCaseStatsENS3_11SectionNodeEEEEESt6vectorIS8_SaIS8_EEEppEv"
 "_ZN9__gnu_cxx17__normal_iteratorIPKN5Catch3PtrINS1_8TestSpec7PatternEEESt6vectorIS5_SaIS5_EEEC1ERKS7_"
 "_ZN9__gnu_cxx17__normal_iteratorIPKN5Catch3PtrINS1_8TestSpec7PatternEEESt6vectorIS5_SaIS5_EEEppEv"
 "_ZN9__gnu_cxx17__normal_iteratorIPKN5Catch5Clara11CommandLineINS1_10ConfigDataEE3ArgESt6vectorIS6_SaIS6_EEEC1ERKS8_"
 "_ZN9__gnu_cxx17__normal_iteratorIPKN5Catch5Clara11CommandLineINS1_10ConfigDataEE3ArgESt6vectorIS6_SaIS6_EEEppEv"
 "_ZN9__gnu_cxx17__normal_iteratorIPKN5Catch5Clara6Parser5TokenESt6vectorIS4_SaIS4_EEEC1ERKS6_"
 "_ZN9__gnu_cxx17__normal_iteratorIPKN5Catch5Clara6Parser5TokenESt6vectorIS4_SaIS4_EEEppEv"
 "_ZN9__gnu_cxx17__normal_iteratorIPKN5Catch8TestCaseESt6vectorIS2_SaIS2_EEEC1ERKS4_"
 "_ZN9__gnu_cxx17__normal_iteratorIPKN5Catch8TestCaseESt6vectorIS2_SaIS2_EEEC1IPS2_EERKNS0_IT_NS_11__enable_ifIXsrSt10__are_sameISB_SA_E7__valueES7_E6__typeEEE"
 "_ZN9__gnu_cxx17__normal_iteratorIPKN5Catch8TestCaseESt6vectorIS2_SaIS2_EEEppEv"
 "_ZN9__gnu_cxx17__normal_iteratorIPKN5Catch8TestSpec6FilterESt6vectorIS3_SaIS3_EEEC1ERKS5_"
 "_ZN9__gnu_cxx17__normal_iteratorIPKN5Catch8TestSpec6FilterESt6vectorIS3_SaIS3_EEEppEv"
 "_ZN9__gnu_cxx17__normal_iteratorIPKNSt7__cxx1112basic_stringIcSt11char_traitsIcESaIcEEESt6vectorIS6_SaIS6_EEEC1ERKS8_"
 "_ZN9__gnu_cxx17__normal_iteratorIPKNSt7__cxx1112basic_stringIcSt11char_traitsIcESaIcEEESt6vectorIS6_SaIS6_EEEC1IPS6_EERKNS0_IT_NS_11__enable_ifIXsrSt10__are_sameISF_SE_E7__valueESB_E6__typeEEE"
 "_ZN9__gnu_cxx17__normal_iteratorIPKNSt7__cxx1112basic_stringIcSt11char_traitsIcESaIcEEESt6vectorIS6_SaIS6_EEEpLEx"
 "_ZN9__gnu_cxx17__normal_iteratorIPKNSt7__cxx1112basic_stringIcSt11char_traitsIcESaIcEEESt6vectorIS6_SaIS6_EEEppEv"
 "_ZN9__gnu_cxx17__normal_iteratorIPKPKN5Catch20IExceptionTranslatorESt6vectorIS4_SaIS4_EEEC1ERKS6_"
 "_ZN9__gnu_cxx17__normal_iteratorIPKPKN5Catch20IExceptionTranslatorESt6vectorIS4_SaIS4_EEEC1IPS4_EERKNS0_IT_NS_11__enable_ifIXsrSt10__are_sameISD_SC_E7__valueES9_E6__typeEEE"
 "_ZN9__gnu_cxx17__normal_iteratorIPKPKN5Catch20IExceptionTranslatorESt6vectorIS4_SaIS4_EEEppEv"
 "_ZN9__gnu_cxx17__normal_iteratorIPKPN5Catch14IGeneratorInfoESt6vectorIS3_SaIS3_EEEC1IPS3_EERKNS0_IT_NS_11__enable_ifIXsrSt10__are_sameISC_SB_E7__valueES8_E6__typeEEE"
 "_ZN9__gnu_cxx17__normal_iteratorIPKPN5Catch14IGeneratorInfoESt6vectorIS3_SaIS3_EEEppEv"
 "_ZN9__gnu_cxx17__normal_iteratorIPKPN5Catch16TestCaseTracking8ITrackerESt6vectorIS4_SaIS4_EEEC1ERKS6_"
 "_ZN9__gnu_cxx17__normal_iteratorIPN5Catch11MessageInfoESt6vectorIS2_SaIS2_EEEC1ERKS3_"
 "_ZN9__gnu_cxx17__normal_iteratorIPN5Catch11MessageInfoESt6vectorIS2_SaIS2_EEEppEv"
 "_ZN9__gnu_cxx17__normal_iteratorIPN5Catch11SectionInfoESt6vectorIS2_SaIS2_EEEC1ERKS3_"
 "_ZN9__gnu_cxx17__normal_iteratorIPN5Catch14AssertionStatsESt6vectorIS2_SaIS2_EEEC1ERKS3_"
 "_ZN9__gnu_cxx17__normal_iteratorIPN5Catch14SectionEndInfoESt6vectorIS2_SaIS2_EEEC1ERKS3_"
 "_ZN9__gnu_cxx17__normal_iteratorIPN5Catch15ConsoleReporter13SummaryColumnESt6vectorIS3_SaIS3_EEEC1ERKS4_"
 "_ZN9__gnu_cxx17__normal_iteratorIPN5Catch3PtrINS1_16IReporterFactoryEEESt6vectorIS4_SaIS4_EEEC1ERKS5_"
 "_ZN9__gnu_cxx17__normal_iteratorIPN5Catch3PtrINS1_16TestCaseTracking8ITrackerEEESt6vectorIS5_SaIS5_EEEC1ERKS6_"
 "_ZN9__gnu_cxx17__normal_iteratorIPN5Catch3PtrINS1_16TestCaseTracking8ITrackerEEESt6vectorIS5_SaIS5_EEEppEv"
 "_ZN9__gnu_cxx17__normal_iteratorIPN5Catch3PtrINS1_18IStreamingReporterEEESt6vectorIS4_SaIS4_EEEC1ERKS5_"
 "_ZN9__gnu_cxx17__normal_iteratorIPN5Catch3PtrINS1_22CumulativeReporterBase11SectionNodeEEESt6vectorIS5_SaIS5_EEEC1ERKS6_"
 "_ZN9__gnu_cxx17__normal_iteratorIPN5Catch3PtrINS1_22CumulativeReporterBase11SectionNodeEEESt6vectorIS5_SaIS5_EEEppEv"
 "_ZN9__gnu_cxx17__normal_iteratorIPN5Catch3PtrINS1_22CumulativeReporterBase4NodeINS1_12TestRunStatsENS4_INS1_14TestGroupStatsENS4_INS1_13TestCaseStatsENS3_11SectionNodeEEEEEEEEESt6vectorISC_SaISC_EEEC1ERKSD_"
 "_ZN9__gnu_cxx17__normal_iteratorIPN5Catch3PtrINS1_22CumulativeReporterBase4NodeINS1_13TestCaseStatsENS3_11SectionNodeEEEEESt6vectorIS8_SaIS8_EEEC1ERKS9_"
 "_ZN9__gnu_cxx17__normal_iteratorIPN5Catch3PtrINS1_22CumulativeReporterBase4NodeINS1_14TestGroupStatsENS4_INS1_13TestCaseStatsENS3_11SectionNodeEEEEEEESt6vectorISA_SaISA_EEEC1ERKSB_"
 "_ZN9__gnu_cxx17__normal_iteratorIPN5Catch3PtrINS1_8TestSpec7PatternEEESt6vectorIS5_SaIS5_EEEC1ERKS6_"
 "_ZN9__gnu_cxx17__normal_iteratorIPN5Catch5Clara11CommandLineINS1_10ConfigDataEE3ArgESt6vectorIS6_SaIS6_EEEC1ERKS7_"
 "_ZN9__gnu_cxx17__normal_iteratorIPN5Catch5Clara6Parser5TokenESt6vectorIS4_SaIS4_EEEC1ERKS5_"
 "_ZN9__gnu_cxx17__normal_iteratorIPN5Catch8TestCaseESt6vectorIS2_SaIS2_EEEC1ERKS3_"
 "_ZN9__gnu_cxx17__normal_iteratorIPN5Catch8TestCaseESt6vectorIS2_SaIS2_EEEmmEv"
 "_ZN9__gnu_cxx17__normal_iteratorIPN5Catch8TestCaseESt6vectorIS2_SaIS2_EEEppEi"
 "_ZN9__gnu_cxx17__normal_iteratorIPN5Catch8TestCaseESt6vectorIS2_SaIS2_EEEppEv"
 "_ZN9__gnu_cxx17__normal_iteratorIPN5Catch8TestSpec6FilterESt6vectorIS3_SaIS3_EEEC1ERKS4_"
 "_ZN9__gnu_cxx17__normal_iteratorIPNSt7__cxx1112basic_stringIcSt11char_traitsIcESaIcEEESt6vectorIS6_SaIS6_EEEC1ERKS7_"
 "_ZN9__gnu_cxx17__normal_iteratorIPNSt7__cxx1112basic_stringIcSt11char_traitsIcESaIcEEESt6vectorIS6_SaIS6_EEEppEv"
 "_ZN9__gnu_cxx17__normal_iteratorIPPKN5Catch20IExceptionTranslatorESt6vectorIS4_SaIS4_EEEC1ERKS5_"
 "_ZN9__gnu_cxx17__normal_iteratorIPPN5Catch14IGeneratorInfoESt6vectorIS3_SaIS3_EEEC1ERKS4_"
 "_ZN9__gnu_cxx17__normal_iteratorIPPN5Catch16TestCaseTracking8ITrackerESt6vectorIS4_SaIS4_EEEC1ERKS5_"
 "_ZN9__gnu_cxx17__normal_iteratorIPySt6vectorIySaIyEEEC1ERKS1_"
 "_ZN9__gnu_cxx5__ops10_Iter_predIN5Catch16TestCaseTracking11TrackerBase14TrackerHasNameEEC1ERKS6_"
 "_ZN9__gnu_cxx5__ops10_Iter_predIN5Catch16TestCaseTracking11TrackerBase14TrackerHasNameEEC1ES5_"
 "_ZN9__gnu_cxx5__ops10_Iter_predIN5Catch16TestCaseTracking11TrackerBase14TrackerHasNameEEclINS_17__normal_iteratorIPNS2_3PtrINS3_8ITrackerEEESt6vectorISB_SaISB_EEEEEEbT_"
 "_ZN9__gnu_cxx5__ops10_Iter_predIN5Catch16TestCaseTracking11TrackerBase14TrackerHasNameEED1Ev"
 "_ZN9__gnu_cxx5__ops10_Iter_predIN5Catch22CumulativeReporterBase13BySectionInfoEEC1ERKS5_"
 "_ZN9__gnu_cxx5__ops10_Iter_predIN5Catch22CumulativeReporterBase13BySectionInfoEEC1ES4_"
 "_ZN9__gnu_cxx5__ops10_Iter_predIN5Catch22CumulativeReporterBase13BySectionInfoEEclINS_17__normal_iteratorIPNS2_3PtrINS3_11SectionNodeEEESt6vectorISA_SaISA_EEEEEEbT_"
 "_ZN9__gnu_cxx5__ops11__pred_iterIN5Catch16TestCaseTracking11TrackerBase14TrackerHasNameEEENS0_10_Iter_predIT_EES7_"
 "_ZN9__gnu_cxx5__ops11__pred_iterIN5Catch22CumulativeReporterBase13BySectionInfoEEENS0_10_Iter_predIT_EES6_"
 "_ZN9__gnu_cxx5__ops14_Iter_less_valC1ENS0_15_Iter_less_iterE"
 "_ZN9__gnu_cxx5__ops15__val_comp_iterENS0_15_Iter_less_iterE"
 "_ZN9__gnu_cxx5__ops16__iter_less_iterEv"
 "_ZN9__gnu_cxx5__ops16_Iter_equals_valIKcEC1ERS2_"
 "_ZN9__gnu_cxx5__ops16_Iter_equals_valIKcEclINS_17__normal_iteratorIPS2_NSt7__cxx1112basic_stringIcSt11char_traitsIcESaIcEEEEEEEbT_"
 "_ZN9__gnu_cxx5__ops16_Iter_equals_valIKN5Catch11MessageInfoEEC1ERS4_"
 "_ZN9__gnu_cxx5__ops16_Iter_equals_valIKN5Catch11MessageInfoEEclINS_17__normal_iteratorIPS3_St6vectorIS3_SaIS3_EEEEEEbT_"
 "_ZN9__gnu_cxx5__ops16_Iter_equals_valIKNSt7__cxx1112basic_stringIcSt11char_traitsIcESaIcEEEEC1ERS8_"
 "_ZN9__gnu_cxx5__ops16_Iter_equals_valIKNSt7__cxx1112basic_stringIcSt11char_traitsIcESaIcEEEEclINS_17__normal_iteratorIPS8_St6vectorIS7_SaIS7_EEEEEEbT_"
 "_ZN9__gnu_cxx5__ops17__iter_equals_valIKcEENS0_16_Iter_equals_valIT_EERS4_"
 "_ZN9__gnu_cxx5__ops17__iter_equals_valIKN5Catch11MessageInfoEEENS0_16_Iter_equals_valIT_EERS6_"
 "_ZN9__gnu_cxx5__ops17__iter_equals_valIKNSt7__cxx1112basic_stringIcSt11char_traitsIcESaIcEEEEENS0_16_Iter_equals_valIT_EERSA_"
 "_ZN9__gnu_cxxeqIPKcNSt7__cxx1112basic_stringIcSt11char_traitsIcESaIcEEEEEbRKNS_17__normal_iteratorIT_T0_EESE_"
 "_ZN9__gnu_cxxeqIPKN5Catch11MessageInfoEPS2_St6vectorIS2_SaIS2_EEEEbRKNS_17__normal_iteratorIT_T1_EERKNS9_IT0_SB_EE"
 "_ZN9__gnu_cxxeqIPKN5Catch11SectionInfoESt6vectorIS2_SaIS2_EEEEbRKNS_17__normal_iteratorIT_T0_EESD_"
 "_ZN9__gnu_cxxeqIPKN5Catch14AssertionStatsESt6vectorIS2_SaIS2_EEEEbRKNS_17__normal_iteratorIT_T0_EESD_"
 "_ZN9__gnu_cxxeqIPKN5Catch14SectionEndInfoESt6vectorIS2_SaIS2_EEEEbRKNS_17__normal_iteratorIT_T0_EESD_"
 "_ZN9__gnu_cxxeqIPKN5Catch3PtrINS1_16TestCaseTracking8ITrackerEEESt6vectorIS5_SaIS5_EEEEbRKNS_17__normal_iteratorIT_T0_EESG_"
 "_ZN9__gnu_cxxeqIPKN5Catch3PtrINS1_22CumulativeReporterBase11SectionNodeEEEPS5_St6vectorIS5_SaIS5_EEEEbRKNS_17__normal_iteratorIT_T1_EERKNSC_IT0_SE_EE"
 "_ZN9__gnu_cxxeqIPKN5Catch3PtrINS1_22CumulativeReporterBase11SectionNodeEEESt6vectorIS5_SaIS5_EEEEbRKNS_17__normal_iteratorIT_T0_EESG_"
 "_ZN9__gnu_cxxeqIPKN5Catch3PtrINS1_8TestSpec7PatternEEESt6vectorIS5_SaIS5_EEEEbRKNS_17__normal_iteratorIT_T0_EESG_"
 "_ZN9__gnu_cxxeqIPKN5Catch5Clara11CommandLineINS1_10ConfigDataEE3ArgESt6vectorIS6_SaIS6_EEEEbRKNS_17__normal_iteratorIT_T0_EESH_"
 "_ZN9__gnu_cxxeqIPKN5Catch8TestCaseESt6vectorIS2_SaIS2_EEEEbRKNS_17__normal_iteratorIT_T0_EESD_"
 "_ZN9__gnu_cxxeqIPKN5Catch8TestSpec6FilterESt6vectorIS3_SaIS3_EEEEbRKNS_17__normal_iteratorIT_T0_EESE_"
 "_ZN9__gnu_cxxeqIPKNSt7__cxx1112basic_stringIcSt11char_traitsIcESaIcEEESt6vectorIS6_SaIS6_EEEEbRKNS_17__normal_iteratorIT_T0_EESH_"
 "_ZN9__gnu_cxxeqIPKPKN5Catch20IExceptionTranslatorESt6vectorIS4_SaIS4_EEEEbRKNS_17__normal_iteratorIT_T0_EESF_"
 "_ZN9__gnu_cxxeqIPKPN5Catch16TestCaseTracking8ITrackerESt6vectorIS4_SaIS4_EEEEbRKNS_17__normal_iteratorIT_T0_EESF_"
 "_ZN9__gnu_cxxeqIPN5Catch11MessageInfoESt6vectorIS2_SaIS2_EEEEbRKNS_17__normal_iteratorIT_T0_EESC_"
 "_ZN9__gnu_cxxeqIPN5Catch8TestCaseESt6vectorIS2_SaIS2_EEEEbRKNS_17__normal_iteratorIT_T0_EESC_"
 "_ZN9__gnu_cxxgtIPKcNSt7__cxx1112basic_stringIcSt11char_traitsIcESaIcEEEEEbRKNS_17__normal_iteratorIT_T0_EESE_"
 "_ZN9__gnu_cxxltIPN5Catch8TestCaseESt6vectorIS2_SaIS2_EEEEbRKNS_17__normal_iteratorIT_T0_EESC_"
 "_ZN9__gnu_cxxmiIPKcNSt7__cxx1112basic_stringIcSt11char_traitsIcESaIcEEEEENS_17__normal_iteratorIT_T0_E15difference_typeERKSC_SF_"
 "_ZN9__gnu_cxxmiIPKN5Catch11MessageInfoESt6vectorIS2_SaIS2_EEEENS_17__normal_iteratorIT_T0_E15difference_typeERKSB_SE_"
 "_ZN9__gnu_cxxmiIPKNSt7__cxx1112basic_stringIcSt11char_traitsIcESaIcEEESt6vectorIS6_SaIS6_EEEENS_17__normal_iteratorIT_T0_E15difference_typeERKSF_SI_"
 "_ZN9__gnu_cxxmiIPN5Catch11MessageInfoESt6vectorIS2_SaIS2_EEEENS_17__normal_iteratorIT_T0_E15difference_typeERKSA_SD_"
 "_ZN9__gnu_cxxmiIPN5Catch11SectionInfoESt6vectorIS2_SaIS2_EEEENS_17__normal_iteratorIT_T0_E15difference_typeERKSA_SD_"
 "_ZN9__gnu_cxxmiIPN5Catch14AssertionStatsESt6vectorIS2_SaIS2_EEEENS_17__normal_iteratorIT_T0_E15difference_typeERKSA_SD_"
 "_ZN9__gnu_cxxmiIPN5Catch14SectionEndInfoESt6vectorIS2_SaIS2_EEEENS_17__normal_iteratorIT_T0_E15difference_typeERKSA_SD_"
 "_ZN9__gnu_cxxmiIPN5Catch15ConsoleReporter13SummaryColumnESt6vectorIS3_SaIS3_EEEENS_17__normal_iteratorIT_T0_E15difference_typeERKSB_SE_"
 "_ZN9__gnu_cxxmiIPN5Catch3PtrINS1_16IReporterFactoryEEESt6vectorIS4_SaIS4_EEEENS_17__normal_iteratorIT_T0_E15difference_typeERKSC_SF_"
 "_ZN9__gnu_cxxmiIPN5Catch3PtrINS1_16TestCaseTracking8ITrackerEEESt6vectorIS5_SaIS5_EEEENS_17__normal_iteratorIT_T0_E15difference_typeERKSD_SG_"
 "_ZN9__gnu_cxxmiIPN5Catch3PtrINS1_18IStreamingReporterEEESt6vectorIS4_SaIS4_EEEENS_17__normal_iteratorIT_T0_E15difference_typeERKSC_SF_"
 "_ZN9__gnu_cxxmiIPN5Catch3PtrINS1_22CumulativeReporterBase11SectionNodeEEESt6vectorIS5_SaIS5_EEEENS_17__normal_iteratorIT_T0_E15difference_typeERKSD_SG_"
 "_ZN9__gnu_cxxmiIPN5Catch3PtrINS1_22CumulativeReporterBase4NodeINS1_12TestRunStatsENS4_INS1_14TestGroupStatsENS4_INS1_13TestCaseStatsENS3_11SectionNodeEEEEEEEEESt6vectorISC_SaISC_EEEENS_17__normal_iteratorIT_T0_E15difference_typeERKSK_SN_"
 "_ZN9__gnu_cxxmiIPN5Catch3PtrINS1_22CumulativeReporterBase4NodeINS1_13TestCaseStatsENS3_11SectionNodeEEEEESt6vectorIS8_SaIS8_EEEENS_17__normal_iteratorIT_T0_E15difference_typeERKSG_SJ_"
 "_ZN9__gnu_cxxmiIPN5Catch3PtrINS1_22CumulativeReporterBase4NodeINS1_14TestGroupStatsENS4_INS1_13TestCaseStatsENS3_11SectionNodeEEEEEEESt6vectorISA_SaISA_EEEENS_17__normal_iteratorIT_T0_E15difference_typeERKSI_SL_"
 "_ZN9__gnu_cxxmiIPN5Catch3PtrINS1_8TestSpec7PatternEEESt6vectorIS5_SaIS5_EEEENS_17__normal_iteratorIT_T0_E15difference_typeERKSD_SG_"
 "_ZN9__gnu_cxxmiIPN5Catch5Clara11CommandLineINS1_10ConfigDataEE3ArgESt6vectorIS6_SaIS6_EEEENS_17__normal_iteratorIT_T0_E15difference_typeERKSE_SH_"
 "_ZN9__gnu_cxxmiIPN5Catch5Clara6Parser5TokenESt6vectorIS4_SaIS4_EEEENS_17__normal_iteratorIT_T0_E15difference_typeERKSC_SF_"
 "_ZN9__gnu_cxxmiIPN5Catch8TestCaseESt6vectorIS2_SaIS2_EEEENS_17__normal_iteratorIT_T0_E15difference_typeERKSA_SD_"
 "_ZN9__gnu_cxxmiIPN5Catch8TestSpec6FilterESt6vectorIS3_SaIS3_EEEENS_17__normal_iteratorIT_T0_E15difference_typeERKSB_SE_"
 "_ZN9__gnu_cxxmiIPNSt7__cxx1112basic_stringIcSt11char_traitsIcESaIcEEESt6vectorIS6_SaIS6_EEEENS_17__normal_iteratorIT_T0_E15difference_typeERKSE_SH_"
 "_ZN9__gnu_cxxmiIPPKN5Catch20IExceptionTranslatorESt6vectorIS4_SaIS4_EEEENS_17__normal_iteratorIT_T0_E15difference_typeERKSC_SF_"
 "_ZN9__gnu_cxxmiIPPN5Catch14IGeneratorInfoESt6vectorIS3_SaIS3_EEEENS_17__normal_iteratorIT_T0_E15difference_typeERKSB_SE_"
 "_ZN9__gnu_cxxmiIPPN5Catch16TestCaseTracking8ITrackerESt6vectorIS4_SaIS4_EEEENS_17__normal_iteratorIT_T0_E15difference_typeERKSC_SF_"
 "_ZN9__gnu_cxxmiIPySt6vectorIySaIyEEEENS_17__normal_iteratorIT_T0_E15difference_typeERKS8_SB_"
 "_ZN9__gnu_cxxneIPcNSt7__cxx1112basic_stringIcSt11char_traitsIcESaIcEEEEEbRKNS_17__normal_iteratorIT_T0_EESD_"
 "_ZN9__gnu_cxxneIPKcNSt7__cxx1112basic_stringIcSt11char_traitsIcESaIcEEEEEbRKNS_17__normal_iteratorIT_T0_EESE_"
 "_ZN9__gnu_cxxneIPKN5Catch11MessageInfoEPS2_St6vectorIS2_SaIS2_EEEEbRKNS_17__normal_iteratorIT_T1_EERKNS9_IT0_SB_EE"
 "_ZN9__gnu_cxxneIPKN5Catch11MessageInfoESt6vectorIS2_SaIS2_EEEEbRKNS_17__normal_iteratorIT_T0_EESD_"
 "_ZN9__gnu_cxxneIPKN5Catch11SectionInfoESt6vectorIS2_SaIS2_EEEEbRKNS_17__normal_iteratorIT_T0_EESD_"
 "_ZN9__gnu_cxxneIPKN5Catch14AssertionStatsESt6vectorIS2_SaIS2_EEEEbRKNS_17__normal_iteratorIT_T0_EESD_"
 "_ZN9__gnu_cxxneIPKN5Catch15ConsoleReporter13SummaryColumnESt6vectorIS3_SaIS3_EEEEbRKNS_17__normal_iteratorIT_T0_EESE_"
 "_ZN9__gnu_cxxneIPKN5Catch3PtrINS1_16IReporterFactoryEEESt6vectorIS4_SaIS4_EEEEbRKNS_17__normal_iteratorIT_T0_EESF_"
 "_ZN9__gnu_cxxneIPKN5Catch3PtrINS1_16TestCaseTracking8ITrackerEEEPS5_St6vectorIS5_SaIS5_EEEEbRKNS_17__normal_iteratorIT_T1_EERKNSC_IT0_SE_EE"
 "_ZN9__gnu_cxxneIPKN5Catch3PtrINS1_18IStreamingReporterEEESt6vectorIS4_SaIS4_EEEEbRKNS_17__normal_iteratorIT_T0_EESF_"
 "_ZN9__gnu_cxxneIPKN5Catch3PtrINS1_22CumulativeReporterBase11SectionNodeEEESt6vectorIS5_SaIS5_EEEEbRKNS_17__normal_iteratorIT_T0_EESG_"
 "_ZN9__gnu_cxxneIPKN5Catch3PtrINS1_22CumulativeReporterBase4NodeINS1_13TestCaseStatsENS3_11SectionNodeEEEEESt6vectorIS8_SaIS8_EEEEbRKNS_17__normal_iteratorIT_T0_EESJ_"
 "_ZN9__gnu_cxxneIPKN5Catch3PtrINS1_8TestSpec7PatternEEESt6vectorIS5_SaIS5_EEEEbRKNS_17__normal_iteratorIT_T0_EESG_"
 "_ZN9__gnu_cxxneIPKN5Catch5Clara11CommandLineINS1_10ConfigDataEE3ArgESt6vectorIS6_SaIS6_EEEEbRKNS_17__normal_iteratorIT_T0_EESH_"
 "_ZN9__gnu_cxxneIPKN5Catch5Clara6Parser5TokenESt6vectorIS4_SaIS4_EEEEbRKNS_17__normal_iteratorIT_T0_EESF_"
 "_ZN9__gnu_cxxneIPKN5Catch8TestCaseESt6vectorIS2_SaIS2_EEEEbRKNS_17__normal_iteratorIT_T0_EESD_"
 "_ZN9__gnu_cxxneIPKN5Catch8TestSpec6FilterESt6vectorIS3_SaIS3_EEEEbRKNS_17__normal_iteratorIT_T0_EESE_"
 "_ZN9__gnu_cxxneIPKNSt7__cxx1112basic_stringIcSt11char_traitsIcESaIcEEEPS6_St6vectorIS6_SaIS6_EEEEbRKNS_17__normal_iteratorIT_T1_EERKNSD_IT0_SF_EE"
 "_ZN9__gnu_cxxneIPKNSt7__cxx1112basic_stringIcSt11char_traitsIcESaIcEEESt6vectorIS6_SaIS6_EEEEbRKNS_17__normal_iteratorIT_T0_EESH_"
 "_ZN9__gnu_cxxneIPKPKN5Catch20IExceptionTranslatorESt6vectorIS4_SaIS4_EEEEbRKNS_17__normal_iteratorIT_T0_EESF_"
 "_ZN9__gnu_cxxneIPKPN5Catch14IGeneratorInfoESt6vectorIS3_SaIS3_EEEEbRKNS_17__normal_iteratorIT_T0_EESE_"
 "_ZN9__gnu_cxxneIPN5Catch11MessageInfoESt6vectorIS2_SaIS2_EEEEbRKNS_17__normal_iteratorIT_T0_EESC_"
 "_ZN9__gnu_cxxneIPN5Catch8TestCaseESt6vectorIS2_SaIS2_EEEEbRKNS_17__normal_iteratorIT_T0_EESC_"
 "_ZN9__gnu_cxxneIPNSt7__cxx1112basic_stringIcSt11char_traitsIcESaIcEEESt6vectorIS6_SaIS6_EEEEbRKNS_17__normal_iteratorIT_T0_EESG_"
 "_ZNK3Tbc4Text4sizeEv"
 "_ZNK3Tbc4TextixB5cxx11Ey"
 "_ZNK5Catch10CoutStream6streamEv"
 "_ZNK5Catch10FileStream6streamEv"
 "_ZNK5Catch10RunContext13getLastResultEv"
 "_ZNK5Catch10RunContext18getCurrentTestNameB5cxx11Ev"
 "_ZNK5Catch10RunContext27makeUnexpectedResultBuilderEv"
 "_ZNK5Catch10RunContext8abortingEv"
 "_ZNK5Catch10SharedImplINS_16IReporterFactoryEE6addRefEv"
 "_ZNK5Catch10SharedImplINS_16IReporterFactoryEE7releaseEv"
 "_ZNK5Catch10SharedImplINS_18IStreamingReporterEE6addRefEv"
 "_ZNK5Catch10SharedImplINS_18IStreamingReporterEE7releaseEv"
 "_ZNK5Catch10SharedImplINS_7IConfigEE6addRefEv"
 "_ZNK5Catch10SharedImplINS_7IConfigEE7releaseEv"
 "_ZNK5Catch10SharedImplINS_7ISharedEE6addRefEv"
 "_ZNK5Catch10SharedImplINS_7ISharedEE7releaseEv"
 "_ZNK5Catch10SharedImplINS_9ITestCaseEE6addRefEv"
 "_ZNK5Catch10SharedImplINS_9ITestCaseEE7releaseEv"
 "_ZNK5Catch11MessageInfoeqERKS0_"
 "_ZNK5Catch11XmlReporter16getStylesheetRefB5cxx11Ev"
 "_ZNK5Catch12TestCaseInfo14expectedToFailEv"
 "_ZNK5Catch12TestCaseInfo6throwsEv"
 "_ZNK5Catch12TestCaseInfo8isHiddenEv"
 "_ZNK5Catch12TestCaseInfo8okToFailEv"
 "_ZNK5Catch12TestRegistry11getAllTestsEv"
 "_ZNK5Catch12TestRegistry17getAllTestsSortedERKNS_7IConfigE"
 "_ZNK5Catch13GeneratorInfo15getCurrentIndexEv"
 "_ZNK5Catch13ResultBuilder11allowThrowsEv"
 "_ZNK5Catch13ResultBuilder16shouldDebugBreakEv"
 "_ZNK5Catch13ResultBuilder21reconstructExpressionERNSt7__cxx1112basic_stringIcSt11char_traitsIcESaIcEEE"
 "_ZNK5Catch13ResultBuilder5buildERKNS_20DecomposedExpressionE"
 "_ZNK5Catch13ResultBuilder5buildEv"
 "_ZNK5Catch14DebugOutStream6streamEv"
 "_ZNK5Catch14ReporterConfig10fullConfigEv"
 "_ZNK5Catch14ReporterConfig6streamEv"
 "_ZNK5Catch14SourceLineInfo5emptyEv"
 "_ZNK5Catch14SourceLineInfoeqERKS0_"
 "_ZNK5Catch14SourceLineInfoltERKS0_"
 "_ZNK5Catch14TestSpecParser9subStringB5cxx11Ev"
 "_ZNK5Catch15AssertionResult10getMessageB5cxx11Ev"
 "_ZNK5Catch15AssertionResult10hasMessageEv"
 "_ZNK5Catch15AssertionResult13getExpressionB5cxx11Ev"
 "_ZNK5Catch15AssertionResult13getResultTypeEv"
 "_ZNK5Catch15AssertionResult13getSourceInfoEv"
 "_ZNK5Catch15AssertionResult13hasExpressionEv"
 "_ZNK5Catch15AssertionResult16getTestMacroNameB5cxx11Ev"
 "_ZNK5Catch15AssertionResult20getExpressionInMacroB5cxx11Ev"
 "_ZNK5Catch15AssertionResult21getExpandedExpressionB5cxx11Ev"
 "_ZNK5Catch15AssertionResult21hasExpandedExpressionEv"
 "_ZNK5Catch15AssertionResult26expandDecomposedExpressionEv"
 "_ZNK5Catch15AssertionResult27discardDecomposedExpressionEv"
 "_ZNK5Catch15AssertionResult4isOkEv"
 "_ZNK5Catch15AssertionResult9succeededEv"
 "_ZNK5Catch15CompactReporter11printTotalsERKNS_6TotalsE"
 "_ZNK5Catch15CompactReporter14getPreferencesEv"
 "_ZNK5Catch15CompactReporter16AssertionPrinter10printIssueERKNSt7__cxx1112basic_stringIcSt11char_traitsIcESaIcEEE"
 "_ZNK5Catch15CompactReporter16AssertionPrinter15printResultTypeENS_6Colour4CodeERKNSt7__cxx1112basic_stringIcSt11char_traitsIcESaIcEEE"
 "_ZNK5Catch15CompactReporter16AssertionPrinter15printSourceInfoEv"
 "_ZNK5Catch15CompactReporter16AssertionPrinter23printOriginalExpressionEv"
 "_ZNK5Catch15CompactReporter16AssertionPrinter28printReconstructedExpressionEv"
 "_ZNK5Catch15CompactReporter9bothOrAllB5cxx11Ey"
 "_ZNK5Catch15ConsoleReporter16AssertionPrinter12printMessageEv"
 "_ZNK5Catch15ConsoleReporter16AssertionPrinter15printResultTypeEv"
 "_ZNK5Catch15ConsoleReporter16AssertionPrinter15printSourceInfoEv"
 "_ZNK5Catch15ConsoleReporter16AssertionPrinter23printOriginalExpressionEv"
 "_ZNK5Catch15ConsoleReporter16AssertionPrinter28printReconstructedExpressionEv"
 "_ZNK5Catch15ConsoleReporter16AssertionPrinter5printEv"
 "_ZNK5Catch15WildcardPattern10adjustCaseERKNSt7__cxx1112basic_stringIcSt11char_traitsIcESaIcEEE"
 "_ZNK5Catch15WildcardPattern7matchesERKNSt7__cxx1112basic_stringIcSt11char_traitsIcESaIcEEE"
 "_ZNK5Catch16ReporterRegistry12getFactoriesB5cxx11Ev"
 "_ZNK5Catch16ReporterRegistry12getListenersEv"
 "_ZNK5Catch16ReporterRegistry6createERKNSt7__cxx1112basic_stringIcSt11char_traitsIcESaIcEEERKNS_3PtrIKNS_7IConfigEEE"
 "_ZNK5Catch16TagAliasRegistry13expandAliasesERKNSt7__cxx1112basic_stringIcSt11char_traitsIcESaIcEEE"
 "_ZNK5Catch16TagAliasRegistry4findERKNSt7__cxx1112basic_stringIcSt11char_traitsIcESaIcEEE"
 "_ZNK5Catch16TestCaseTracking11TrackerBase10isCompleteEv"
 "_ZNK5Catch16TestCaseTracking11TrackerBase11hasChildrenEv"
 "_ZNK5Catch16TestCaseTracking11TrackerBase14isIndexTrackerEv"
 "_ZNK5Catch16TestCaseTracking11TrackerBase15nameAndLocationEv"
 "_ZNK5Catch16TestCaseTracking11TrackerBase16isSectionTrackerEv"
 "_ZNK5Catch16TestCaseTracking11TrackerBase23isSuccessfullyCompletedEv"
 "_ZNK5Catch16TestCaseTracking11TrackerBase6isOpenEv"
 "_ZNK5Catch16TestCaseTracking12IndexTracker14isIndexTrackerEv"
 "_ZNK5Catch16TestCaseTracking14SectionTracker16isSectionTrackerEv"
 "_ZNK5Catch16TestCaseTracking14TrackerContext14completedCycleEv"
 "_ZNK5Catch17MultipleReporters14getPreferencesEv"
 "_ZNK5Catch17ReporterRegistrarINS_11XmlReporterEE15ReporterFactory14getDescriptionB5cxx11Ev"
 "_ZNK5Catch17ReporterRegistrarINS_11XmlReporterEE15ReporterFactory6createERKNS_14ReporterConfigE"
 "_ZNK5Catch17ReporterRegistrarINS_13JunitReporterEE15ReporterFactory14getDescriptionB5cxx11Ev"
 "_ZNK5Catch17ReporterRegistrarINS_13JunitReporterEE15ReporterFactory6createERKNS_14ReporterConfigE"
 "_ZNK5Catch17ReporterRegistrarINS_15CompactReporterEE15ReporterFactory14getDescriptionB5cxx11Ev"
 "_ZNK5Catch17ReporterRegistrarINS_15CompactReporterEE15ReporterFactory6createERKNS_14ReporterConfigE"
 "_ZNK5Catch17ReporterRegistrarINS_15ConsoleReporterEE15ReporterFactory14getDescriptionB5cxx11Ev"
 "_ZNK5Catch17ReporterRegistrarINS_15ConsoleReporterEE15ReporterFactory6createERKNS_14ReporterConfigE"
 "_ZNK5Catch19AssertionResultData21reconstructExpressionB5cxx11Ev"
 "_ZNK5Catch20DecomposedExpression18isBinaryExpressionEv"
 "_ZNK5Catch20FreeFunctionTestCase6invokeEv"
 "_ZNK5Catch21LegacyReporterAdapter14getPreferencesEv"
 "_ZNK5Catch21StreamingReporterBase14getPreferencesEv"
 "_ZNK5Catch22CumulativeReporterBase13BySectionInfoclERKNS_3PtrINS0_11SectionNodeEEE"
 "_ZNK5Catch22CumulativeReporterBase14getPreferencesEv"
 "_ZNK5Catch22CumulativeReporterBase25prepareExpandedExpressionERNS_15AssertionResultE"
 "_ZNK5Catch23NotImplementedException4whatEv"
 "_ZNK5Catch27ExceptionTranslatorRegistry14tryTranslatorsB5cxx11Ev"
 "_ZNK5Catch27ExceptionTranslatorRegistry24translateActiveExceptionB5cxx11Ev"
 "_ZNK5Catch3PtrIKNS_7IConfigEEcvMNS_8SafeBoolEKFvvEEv"
 "_ZNK5Catch3PtrIKNS_7IConfigEEdeEv"
 "_ZNK5Catch3PtrIKNS_7IConfigEEptEv"
 "_ZNK5Catch3PtrINS_16IReporterFactoryEEptEv"
 "_ZNK5Catch3PtrINS_16TestCaseTracking8ITrackerEE3getEv"
 "_ZNK5Catch3PtrINS_16TestCaseTracking8ITrackerEEdeEv"
 "_ZNK5Catch3PtrINS_16TestCaseTracking8ITrackerEEptEv"
 "_ZNK5Catch3PtrINS_18IStreamingReporterEEcvMNS_8SafeBoolEKFvvEEv"
 "_ZNK5Catch3PtrINS_18IStreamingReporterEEntEv"
 "_ZNK5Catch3PtrINS_18IStreamingReporterEEptEv"
 "_ZNK5Catch3PtrINS_22CumulativeReporterBase11SectionNodeEEdeEv"
 "_ZNK5Catch3PtrINS_22CumulativeReporterBase11SectionNodeEEntEv"
 "_ZNK5Catch3PtrINS_22CumulativeReporterBase11SectionNodeEEptEv"
 "_ZNK5Catch3PtrINS_22CumulativeReporterBase4NodeINS_12TestRunStatsENS2_INS_14TestGroupStatsENS2_INS_13TestCaseStatsENS1_11SectionNodeEEEEEEEEptEv"
 "_ZNK5Catch3PtrINS_22CumulativeReporterBase4NodeINS_13TestCaseStatsENS1_11SectionNodeEEEEdeEv"
 "_ZNK5Catch3PtrINS_22CumulativeReporterBase4NodeINS_13TestCaseStatsENS1_11SectionNodeEEEEptEv"
 "_ZNK5Catch3PtrINS_22CumulativeReporterBase4NodeINS_14TestGroupStatsENS2_INS_13TestCaseStatsENS1_11SectionNodeEEEEEEdeEv"
 "_ZNK5Catch3PtrINS_22CumulativeReporterBase4NodeINS_14TestGroupStatsENS2_INS_13TestCaseStatsENS1_11SectionNodeEEEEEEptEv"
 "_ZNK5Catch3PtrINS_6ConfigEE3getEv"
 "_ZNK5Catch3PtrINS_6ConfigEEdeEv"
 "_ZNK5Catch3PtrINS_6ConfigEEntEv"
 "_ZNK5Catch3PtrINS_6ConfigEEptEv"
 "_ZNK5Catch3PtrINS_8TestSpec7PatternEEptEv"
 "_ZNK5Catch3PtrINS_9IReporterEEptEv"
 "_ZNK5Catch3PtrINS_9ITestCaseEE3getEv"
 "_ZNK5Catch3PtrINS_9ITestCaseEEptEv"
 "_ZNK5Catch3Tbc4Text3endB5cxx11Ev"
 "_ZNK5Catch3Tbc4Text5beginB5cxx11Ev"
 "_ZNK5Catch5Clara11CommandLineINS_10ConfigDataEE11argSynopsisERSo"
 "_ZNK5Catch5Clara11CommandLineINS_10ConfigDataEE15populateOptionsERKSt6vectorINS0_6Parser5TokenESaIS6_EERS2_"
 "_ZNK5Catch5Clara11CommandLineINS_10ConfigDataEE17populateFixedArgsERKSt6vectorINS0_6Parser5TokenESaIS6_EERS2_"
 "_ZNK5Catch5Clara11CommandLineINS_10ConfigDataEE20populateFloatingArgsERKSt6vectorINS0_6Parser5TokenESaIS6_EERS2_"
 "_ZNK5Catch5Clara11CommandLineINS_10ConfigDataEE3Arg8commandsB5cxx11Ev"
 "_ZNK5Catch5Clara11CommandLineINS_10ConfigDataEE5usageERSoRKNSt7__cxx1112basic_stringIcSt11char_traitsIcESaIcEEE"
 "_ZNK5Catch5Clara11CommandLineINS_10ConfigDataEE8optUsageERSoyy"
 "_ZNK5Catch5Clara11CommandLineINS_10ConfigDataEE8populateERKSt6vectorINS0_6Parser5TokenESaIS6_EERS2_"
 "_ZNK5Catch5Clara11CommandLineINS_10ConfigDataEE8validateEv"
 "_ZNK5Catch5Clara11CommandLineINS_10ConfigDataEE9parseIntoERKSt6vectorINSt7__cxx1112basic_stringIcSt11char_traitsIcESaIcEEESaISA_EERS2_"
 "_ZNK5Catch5Clara19CommonArgPropertiesINS_10ConfigDataEE8takesArgEv"
 "_ZNK5Catch5Clara19CommonArgPropertiesINS_10ConfigDataEE8validateEv"
 "_ZNK5Catch5Clara19OptionArgProperties11hasLongNameERKNSt7__cxx1112basic_stringIcSt11char_traitsIcESaIcEEE"
 "_ZNK5Catch5Clara19OptionArgProperties12hasShortNameERKNSt7__cxx1112basic_stringIcSt11char_traitsIcESaIcEEE"
 "_ZNK5Catch5Clara6Detail10NullBinderINS_10ConfigDataEE3setERS3_RKNSt7__cxx1112basic_stringIcSt11char_traitsIcESaIcEEE"
 "_ZNK5Catch5Clara6Detail10NullBinderINS_10ConfigDataEE5cloneEv"
 "_ZNK5Catch5Clara6Detail10NullBinderINS_10ConfigDataEE8takesArgEv"
 "_ZNK5Catch5Clara6Detail15BoundDataMemberINS_10ConfigDataEbE3setERS3_RKNSt7__cxx1112basic_stringIcSt11char_traitsIcESaIcEEE"
 "_ZNK5Catch5Clara6Detail15BoundDataMemberINS_10ConfigDataEbE5cloneEv"
 "_ZNK5Catch5Clara6Detail15BoundDataMemberINS_10ConfigDataEbE8takesArgEv"
 "_ZNK5Catch5Clara6Detail15BoundDataMemberINS_10ConfigDataENSt7__cxx1112basic_stringIcSt11char_traitsIcESaIcEEEE3setERS3_RKS9_"
 "_ZNK5Catch5Clara6Detail15BoundDataMemberINS_10ConfigDataENSt7__cxx1112basic_stringIcSt11char_traitsIcESaIcEEEE5cloneEv"
 "_ZNK5Catch5Clara6Detail15BoundDataMemberINS_10ConfigDataENSt7__cxx1112basic_stringIcSt11char_traitsIcESaIcEEEE8takesArgEv"
 "_ZNK5Catch5Clara6Detail16BoundArgFunctionINS_10ConfigDataEE3setERS3_RKNSt7__cxx1112basic_stringIcSt11char_traitsIcESaIcEEE"
 "_ZNK5Catch5Clara6Detail16BoundArgFunctionINS_10ConfigDataEE5isSetEv"
 "_ZNK5Catch5Clara6Detail18BoundUnaryFunctionINS_10ConfigDataEE3setERS3_RKNSt7__cxx1112basic_stringIcSt11char_traitsIcESaIcEEE"
 "_ZNK5Catch5Clara6Detail18BoundUnaryFunctionINS_10ConfigDataEE5cloneEv"
 "_ZNK5Catch5Clara6Detail18BoundUnaryFunctionINS_10ConfigDataEE8takesArgEv"
 "_ZNK5Catch5Clara6Detail19BoundBinaryFunctionINS_10ConfigDataEbE3setERS3_RKNSt7__cxx1112basic_stringIcSt11char_traitsIcESaIcEEE"
 "_ZNK5Catch5Clara6Detail19BoundBinaryFunctionINS_10ConfigDataEbE5cloneEv"
 "_ZNK5Catch5Clara6Detail19BoundBinaryFunctionINS_10ConfigDataEbE8takesArgEv"
 "_ZNK5Catch5Clara6Detail19BoundBinaryFunctionINS_10ConfigDataEiE3setERS3_RKNSt7__cxx1112basic_stringIcSt11char_traitsIcESaIcEEE"
 "_ZNK5Catch5Clara6Detail19BoundBinaryFunctionINS_10ConfigDataEiE5cloneEv"
 "_ZNK5Catch5Clara6Detail19BoundBinaryFunctionINS_10ConfigDataEiE8takesArgEv"
 "_ZNK5Catch5Clara6Detail19BoundBinaryFunctionINS_10ConfigDataERKNSt7__cxx1112basic_stringIcSt11char_traitsIcESaIcEEEE3setERS3_SB_"
 "_ZNK5Catch5Clara6Detail19BoundBinaryFunctionINS_10ConfigDataERKNSt7__cxx1112basic_stringIcSt11char_traitsIcESaIcEEEE5cloneEv"
 "_ZNK5Catch5Clara6Detail19BoundBinaryFunctionINS_10ConfigDataERKNSt7__cxx1112basic_stringIcSt11char_traitsIcESaIcEEEE8takesArgEv"
 "_ZNK5Catch5Timer17getElapsedSecondsEv"
 "_ZNK5Catch5Timer22getElapsedMicrosecondsEv"
 "_ZNK5Catch5Timer22getElapsedMillisecondsEv"
 "_ZNK5Catch6Config10abortAfterEv"
 "_ZNK5Catch6Config11allowThrowsEv"
 "_ZNK5Catch6Config13listExtraInfoEv"
 "_ZNK5Catch6Config13listReportersEv"
 "_ZNK5Catch6Config13showDurationsEv"
 "_ZNK5Catch6Config14showInvisiblesEv"
 "_ZNK5Catch6Config16getReporterNamesB5cxx11Ev"
 "_ZNK5Catch6Config16getSectionsToRunB5cxx11Ev"
 "_ZNK5Catch6Config16shouldDebugBreakEv"
 "_ZNK5Catch6Config17listTestNamesOnlyEv"
 "_ZNK5Catch6Config24includeSuccessfulResultsEv"
 "_ZNK5Catch6Config26warnAboutMissingAssertionsEv"
 "_ZNK5Catch6Config4nameB5cxx11Ev"
 "_ZNK5Catch6Config6streamEv"
 "_ZNK5Catch6Config7rngSeedEv"
 "_ZNK5Catch6Config8listTagsEv"
 "_ZNK5Catch6Config8runOrderEv"
 "_ZNK5Catch6Config8testSpecEv"
 "_ZNK5Catch6Config9listTestsEv"
 "_ZNK5Catch6Config9useColourEv"
 "_ZNK5Catch6Counts5allOkEv"
 "_ZNK5Catch6Counts5totalEv"
 "_ZNK5Catch6Counts9allPassedEv"
 "_ZNK5Catch6CountsmiERKS0_"
 "_ZNK5Catch6OptionIyE4someEv"
 "_ZNK5Catch6OptionIyE7valueOrERKy"
 "_ZNK5Catch6OptionIyEcvMNS_8SafeBoolEKFvvEEv"
 "_ZNK5Catch6Totals5deltaERKS0_"
 "_ZNK5Catch6TotalsmiERKS0_"
 "_ZNK5Catch7Context9getConfigEv"
 "_ZNK5Catch7SectioncvbEv"
 "_ZNK5Catch7TagInfo3allB5cxx11Ev"
 "_ZNK5Catch8Matchers4Impl10MatchAllOfINSt7__cxx1112basic_stringIcSt11char_traitsIcESaIcEEEE5matchERKS8_"
 "_ZNK5Catch8Matchers4Impl10MatchAllOfINSt7__cxx1112basic_stringIcSt11char_traitsIcESaIcEEEE8describeEv"
 "_ZNK5Catch8Matchers4Impl18MatcherUntypedBase8toStringB5cxx11Ev"
 "_ZNK5Catch8Matchers9StdString11CasedString12adjustStringERKNSt7__cxx1112basic_stringIcSt11char_traitsIcESaIcEEE"
 "_ZNK5Catch8Matchers9StdString11CasedString21caseSensitivitySuffixB5cxx11Ev"
 "_ZNK5Catch8Matchers9StdString13EqualsMatcher5matchERKNSt7__cxx1112basic_stringIcSt11char_traitsIcESaIcEEE"
 "_ZNK5Catch8Matchers9StdString15ContainsMatcher5matchERKNSt7__cxx1112basic_stringIcSt11char_traitsIcESaIcEEE"
 "_ZNK5Catch8Matchers9StdString15EndsWithMatcher5matchERKNSt7__cxx1112basic_stringIcSt11char_traitsIcESaIcEEE"
 "_ZNK5Catch8Matchers9StdString17StartsWithMatcher5matchERKNSt7__cxx1112basic_stringIcSt11char_traitsIcESaIcEEE"
 "_ZNK5Catch8Matchers9StdString17StringMatcherBase8describeB5cxx11Ev"
 "_ZNK5Catch8SafeBool9trueValueEv"
 "_ZNK5Catch8TestCase15getTestCaseInfoEv"
 "_ZNK5Catch8TestCase6invokeEv"
 "_ZNK5Catch8TestCase8withNameERKNSt7__cxx1112basic_stringIcSt11char_traitsIcESaIcEEE"
 "_ZNK5Catch8TestCaseeqERKS0_"
 "_ZNK5Catch8TestCaseltERKS0_"
 "_ZNK5Catch8TestSpec10hasFiltersEv"
 "_ZNK5Catch8TestSpec10TagPattern7matchesERKNS_12TestCaseInfoE"
 "_ZNK5Catch8TestSpec11NamePattern7matchesERKNS_12TestCaseInfoE"
 "_ZNK5Catch8TestSpec15ExcludedPattern7matchesERKNS_12TestCaseInfoE"
 "_ZNK5Catch8TestSpec6Filter7matchesERKNS_12TestCaseInfoE"
 "_ZNK5Catch8TestSpec7matchesERKNS_12TestCaseInfoE"
 "_ZNK5Catch9XmlEncode8encodeToERSo"
 "_ZNK9__gnu_cxx13new_allocatorIN5Catch11MessageInfoEE11_M_max_sizeEv"
 "_ZNK9__gnu_cxx13new_allocatorIN5Catch11MessageInfoEE8max_sizeEv"
 "_ZNK9__gnu_cxx13new_allocatorIN5Catch11SectionInfoEE11_M_max_sizeEv"
 "_ZNK9__gnu_cxx13new_allocatorIN5Catch11SectionInfoEE8max_sizeEv"
 "_ZNK9__gnu_cxx13new_allocatorIN5Catch14AssertionStatsEE11_M_max_sizeEv"
 "_ZNK9__gnu_cxx13new_allocatorIN5Catch14AssertionStatsEE8max_sizeEv"
 "_ZNK9__gnu_cxx13new_allocatorIN5Catch14SectionEndInfoEE11_M_max_sizeEv"
 "_ZNK9__gnu_cxx13new_allocatorIN5Catch14SectionEndInfoEE8max_sizeEv"
 "_ZNK9__gnu_cxx13new_allocatorIN5Catch15ConsoleReporter13SummaryColumnEE11_M_max_sizeEv"
 "_ZNK9__gnu_cxx13new_allocatorIN5Catch15ConsoleReporter13SummaryColumnEE8max_sizeEv"
 "_ZNK9__gnu_cxx13new_allocatorIN5Catch3PtrINS1_16IReporterFactoryEEEE11_M_max_sizeEv"
 "_ZNK9__gnu_cxx13new_allocatorIN5Catch3PtrINS1_16IReporterFactoryEEEE8max_sizeEv"
 "_ZNK9__gnu_cxx13new_allocatorIN5Catch3PtrINS1_16TestCaseTracking8ITrackerEEEE11_M_max_sizeEv"
 "_ZNK9__gnu_cxx13new_allocatorIN5Catch3PtrINS1_16TestCaseTracking8ITrackerEEEE8max_sizeEv"
 "_ZNK9__gnu_cxx13new_allocatorIN5Catch3PtrINS1_18IStreamingReporterEEEE11_M_max_sizeEv"
 "_ZNK9__gnu_cxx13new_allocatorIN5Catch3PtrINS1_18IStreamingReporterEEEE8max_sizeEv"
 "_ZNK9__gnu_cxx13new_allocatorIN5Catch3PtrINS1_22CumulativeReporterBase11SectionNodeEEEE11_M_max_sizeEv"
 "_ZNK9__gnu_cxx13new_allocatorIN5Catch3PtrINS1_22CumulativeReporterBase11SectionNodeEEEE8max_sizeEv"
 "_ZNK9__gnu_cxx13new_allocatorIN5Catch3PtrINS1_22CumulativeReporterBase4NodeINS1_12TestRunStatsENS4_INS1_14TestGroupStatsENS4_INS1_13TestCaseStatsENS3_11SectionNodeEEEEEEEEEE11_M_max_sizeEv"
 "_ZNK9__gnu_cxx13new_allocatorIN5Catch3PtrINS1_22CumulativeReporterBase4NodeINS1_12TestRunStatsENS4_INS1_14TestGroupStatsENS4_INS1_13TestCaseStatsENS3_11SectionNodeEEEEEEEEEE8max_sizeEv"
 "_ZNK9__gnu_cxx13new_allocatorIN5Catch3PtrINS1_22CumulativeReporterBase4NodeINS1_13TestCaseStatsENS3_11SectionNodeEEEEEE11_M_max_sizeEv"
 "_ZNK9__gnu_cxx13new_allocatorIN5Catch3PtrINS1_22CumulativeReporterBase4NodeINS1_13TestCaseStatsENS3_11SectionNodeEEEEEE8max_sizeEv"
 "_ZNK9__gnu_cxx13new_allocatorIN5Catch3PtrINS1_22CumulativeReporterBase4NodeINS1_14TestGroupStatsENS4_INS1_13TestCaseStatsENS3_11SectionNodeEEEEEEEE11_M_max_sizeEv"
 "_ZNK9__gnu_cxx13new_allocatorIN5Catch3PtrINS1_22CumulativeReporterBase4NodeINS1_14TestGroupStatsENS4_INS1_13TestCaseStatsENS3_11SectionNodeEEEEEEEE8max_sizeEv"
 "_ZNK9__gnu_cxx13new_allocatorIN5Catch3PtrINS1_8TestSpec7PatternEEEE11_M_max_sizeEv"
 "_ZNK9__gnu_cxx13new_allocatorIN5Catch3PtrINS1_8TestSpec7PatternEEEE8max_sizeEv"
 "_ZNK9__gnu_cxx13new_allocatorIN5Catch5Clara11CommandLineINS1_10ConfigDataEE3ArgEE11_M_max_sizeEv"
 "_ZNK9__gnu_cxx13new_allocatorIN5Catch5Clara11CommandLineINS1_10ConfigDataEE3ArgEE8max_sizeEv"
 "_ZNK9__gnu_cxx13new_allocatorIN5Catch5Clara6Parser5TokenEE11_M_max_sizeEv"
 "_ZNK9__gnu_cxx13new_allocatorIN5Catch5Clara6Parser5TokenEE8max_sizeEv"
 "_ZNK9__gnu_cxx13new_allocatorIN5Catch8TestCaseEE11_M_max_sizeEv"
 "_ZNK9__gnu_cxx13new_allocatorIN5Catch8TestCaseEE8max_sizeEv"
 "_ZNK9__gnu_cxx13new_allocatorIN5Catch8TestSpec6FilterEE11_M_max_sizeEv"
 "_ZNK9__gnu_cxx13new_allocatorIN5Catch8TestSpec6FilterEE8max_sizeEv"
 "_ZNK9__gnu_cxx13new_allocatorINSt7__cxx1112basic_stringIcSt11char_traitsIcESaIcEEEE11_M_max_sizeEv"
 "_ZNK9__gnu_cxx13new_allocatorINSt7__cxx1112basic_stringIcSt11char_traitsIcESaIcEEEE8max_sizeEv"
 "_ZNK9__gnu_cxx13new_allocatorIPKN5Catch20IExceptionTranslatorEE11_M_max_sizeEv"
 "_ZNK9__gnu_cxx13new_allocatorIPKN5Catch20IExceptionTranslatorEE8max_sizeEv"
 "_ZNK9__gnu_cxx13new_allocatorIPN5Catch14IGeneratorInfoEE11_M_max_sizeEv"
 "_ZNK9__gnu_cxx13new_allocatorIPN5Catch14IGeneratorInfoEE8max_sizeEv"
 "_ZNK9__gnu_cxx13new_allocatorIPN5Catch16TestCaseTracking8ITrackerEE11_M_max_sizeEv"
 "_ZNK9__gnu_cxx13new_allocatorIPN5Catch16TestCaseTracking8ITrackerEE8max_sizeEv"
 "_ZNK9__gnu_cxx13new_allocatorISt13_Rb_tree_nodeIN5Catch8TestCaseEEE11_M_max_sizeEv"
 "_ZNK9__gnu_cxx13new_allocatorISt13_Rb_tree_nodeINSt7__cxx1112basic_stringIcSt11char_traitsIcESaIcEEEEE11_M_max_sizeEv"
 "_ZNK9__gnu_cxx13new_allocatorISt13_Rb_tree_nodeISt4pairIKNSt7__cxx1112basic_stringIcSt11char_traitsIcESaIcEEEN5Catch3PtrINSA_16IReporterFactoryEEEEEE11_M_max_sizeEv"
 "_ZNK9__gnu_cxx13new_allocatorISt13_Rb_tree_nodeISt4pairIKNSt7__cxx1112basic_stringIcSt11char_traitsIcESaIcEEEN5Catch7TagInfoEEEE11_M_max_sizeEv"
 "_ZNK9__gnu_cxx13new_allocatorISt13_Rb_tree_nodeISt4pairIKNSt7__cxx1112basic_stringIcSt11char_traitsIcESaIcEEEN5Catch8TagAliasEEEE11_M_max_sizeEv"
 "_ZNK9__gnu_cxx13new_allocatorISt13_Rb_tree_nodeISt4pairIKNSt7__cxx1112basic_stringIcSt11char_traitsIcESaIcEEEPN5Catch14IGeneratorInfoEEEE11_M_max_sizeEv"
 "_ZNK9__gnu_cxx13new_allocatorISt13_Rb_tree_nodeISt4pairIKNSt7__cxx1112basic_stringIcSt11char_traitsIcESaIcEEEPN5Catch18IGeneratorsForTestEEEE11_M_max_sizeEv"
 "_ZNK9__gnu_cxx13new_allocatorIyE11_M_max_sizeEv"
 "_ZNK9__gnu_cxx13new_allocatorIyE8max_sizeEv"
 "_ZNK9__gnu_cxx16__aligned_membufIN5Catch8TestCaseEE6_M_ptrEv"
 "_ZNK9__gnu_cxx16__aligned_membufIN5Catch8TestCaseEE7_M_addrEv"
 "_ZNK9__gnu_cxx16__aligned_membufINSt7__cxx1112basic_stringIcSt11char_traitsIcESaIcEEEE6_M_ptrEv"
 "_ZNK9__gnu_cxx16__aligned_membufINSt7__cxx1112basic_stringIcSt11char_traitsIcESaIcEEEE7_M_addrEv"
 "_ZNK9__gnu_cxx16__aligned_membufISt4pairIKiN5Catch5Clara11CommandLineINS3_10ConfigDataEE3ArgEEE6_M_ptrEv"
 "_ZNK9__gnu_cxx16__aligned_membufISt4pairIKiN5Catch5Clara11CommandLineINS3_10ConfigDataEE3ArgEEE7_M_addrEv"
 "_ZNK9__gnu_cxx16__aligned_membufISt4pairIKNSt7__cxx1112basic_stringIcSt11char_traitsIcESaIcEEEN5Catch3PtrINS9_16IReporterFactoryEEEEE6_M_ptrEv"
 "_ZNK9__gnu_cxx16__aligned_membufISt4pairIKNSt7__cxx1112basic_stringIcSt11char_traitsIcESaIcEEEN5Catch3PtrINS9_16IReporterFactoryEEEEE7_M_addrEv"
 "_ZNK9__gnu_cxx16__aligned_membufISt4pairIKNSt7__cxx1112basic_stringIcSt11char_traitsIcESaIcEEEN5Catch7TagInfoEEE6_M_ptrEv"
 "_ZNK9__gnu_cxx16__aligned_membufISt4pairIKNSt7__cxx1112basic_stringIcSt11char_traitsIcESaIcEEEN5Catch7TagInfoEEE7_M_addrEv"
 "_ZNK9__gnu_cxx16__aligned_membufISt4pairIKNSt7__cxx1112basic_stringIcSt11char_traitsIcESaIcEEEN5Catch8TagAliasEEE6_M_ptrEv"
 "_ZNK9__gnu_cxx16__aligned_membufISt4pairIKNSt7__cxx1112basic_stringIcSt11char_traitsIcESaIcEEEN5Catch8TagAliasEEE7_M_addrEv"
 "_ZNK9__gnu_cxx16__aligned_membufISt4pairIKNSt7__cxx1112basic_stringIcSt11char_traitsIcESaIcEEEPN5Catch14IGeneratorInfoEEE6_M_ptrEv"
 "_ZNK9__gnu_cxx16__aligned_membufISt4pairIKNSt7__cxx1112basic_stringIcSt11char_traitsIcESaIcEEEPN5Catch14IGeneratorInfoEEE7_M_addrEv"
 "_ZNK9__gnu_cxx16__aligned_membufISt4pairIKNSt7__cxx1112basic_stringIcSt11char_traitsIcESaIcEEEPN5Catch18IGeneratorsForTestEEE6_M_ptrEv"
 "_ZNK9__gnu_cxx16__aligned_membufISt4pairIKNSt7__cxx1112basic_stringIcSt11char_traitsIcESaIcEEEPN5Catch18IGeneratorsForTestEEE7_M_addrEv"
 "_ZNK9__gnu_cxx17__normal_iteratorIPcNSt7__cxx1112basic_stringIcSt11char_traitsIcESaIcEEEE4baseEv"
 "_ZNK9__gnu_cxx17__normal_iteratorIPcNSt7__cxx1112basic_stringIcSt11char_traitsIcESaIcEEEEdeEv"
 "_ZNK9__gnu_cxx17__normal_iteratorIPKcNSt7__cxx1112basic_stringIcSt11char_traitsIcESaIcEEEE4baseEv"
 "_ZNK9__gnu_cxx17__normal_iteratorIPKcNSt7__cxx1112basic_stringIcSt11char_traitsIcESaIcEEEEdeEv"
 "_ZNK9__gnu_cxx17__normal_iteratorIPKcNSt7__cxx1112basic_stringIcSt11char_traitsIcESaIcEEEEmiEx"
 "_ZNK9__gnu_cxx17__normal_iteratorIPKcNSt7__cxx1112basic_stringIcSt11char_traitsIcESaIcEEEEplEx"
 "_ZNK9__gnu_cxx17__normal_iteratorIPKN5Catch11MessageInfoESt6vectorIS2_SaIS2_EEE4baseEv"
 "_ZNK9__gnu_cxx17__normal_iteratorIPKN5Catch11MessageInfoESt6vectorIS2_SaIS2_EEEdeEv"
 "_ZNK9__gnu_cxx17__normal_iteratorIPKN5Catch11MessageInfoESt6vectorIS2_SaIS2_EEEptEv"
 "_ZNK9__gnu_cxx17__normal_iteratorIPKN5Catch11SectionInfoESt6vectorIS2_SaIS2_EEE4baseEv"
 "_ZNK9__gnu_cxx17__normal_iteratorIPKN5Catch11SectionInfoESt6vectorIS2_SaIS2_EEEptEv"
 "_ZNK9__gnu_cxx17__normal_iteratorIPKN5Catch14AssertionStatsESt6vectorIS2_SaIS2_EEE4baseEv"
 "_ZNK9__gnu_cxx17__normal_iteratorIPKN5Catch14AssertionStatsESt6vectorIS2_SaIS2_EEEdeEv"
 "_ZNK9__gnu_cxx17__normal_iteratorIPKN5Catch14SectionEndInfoESt6vectorIS2_SaIS2_EEE4baseEv"
 "_ZNK9__gnu_cxx17__normal_iteratorIPKN5Catch14SectionEndInfoESt6vectorIS2_SaIS2_EEEdeEv"
 "_ZNK9__gnu_cxx17__normal_iteratorIPKN5Catch15ConsoleReporter13SummaryColumnESt6vectorIS3_SaIS3_EEE4baseEv"
 "_ZNK9__gnu_cxx17__normal_iteratorIPKN5Catch15ConsoleReporter13SummaryColumnESt6vectorIS3_SaIS3_EEEptEv"
 "_ZNK9__gnu_cxx17__normal_iteratorIPKN5Catch3PtrINS1_16IReporterFactoryEEESt6vectorIS4_SaIS4_EEE4baseEv"
 "_ZNK9__gnu_cxx17__normal_iteratorIPKN5Catch3PtrINS1_16IReporterFactoryEEESt6vectorIS4_SaIS4_EEEdeEv"
 "_ZNK9__gnu_cxx17__normal_iteratorIPKN5Catch3PtrINS1_16TestCaseTracking8ITrackerEEESt6vectorIS5_SaIS5_EEE4baseEv"
 "_ZNK9__gnu_cxx17__normal_iteratorIPKN5Catch3PtrINS1_16TestCaseTracking8ITrackerEEESt6vectorIS5_SaIS5_EEEptEv"
 "_ZNK9__gnu_cxx17__normal_iteratorIPKN5Catch3PtrINS1_18IStreamingReporterEEESt6vectorIS4_SaIS4_EEE4baseEv"
 "_ZNK9__gnu_cxx17__normal_iteratorIPKN5Catch3PtrINS1_18IStreamingReporterEEESt6vectorIS4_SaIS4_EEEdeEv"
 "_ZNK9__gnu_cxx17__normal_iteratorIPKN5Catch3PtrINS1_22CumulativeReporterBase11SectionNodeEEESt6vectorIS5_SaIS5_EEE4baseEv"
 "_ZNK9__gnu_cxx17__normal_iteratorIPKN5Catch3PtrINS1_22CumulativeReporterBase11SectionNodeEEESt6vectorIS5_SaIS5_EEEdeEv"
 "_ZNK9__gnu_cxx17__normal_iteratorIPKN5Catch3PtrINS1_22CumulativeReporterBase4NodeINS1_13TestCaseStatsENS3_11SectionNodeEEEEESt6vectorIS8_SaIS8_EEE4baseEv"
 "_ZNK9__gnu_cxx17__normal_iteratorIPKN5Catch3PtrINS1_22CumulativeReporterBase4NodeINS1_13TestCaseStatsENS3_11SectionNodeEEEEESt6vectorIS8_SaIS8_EEEdeEv"
 "_ZNK9__gnu_cxx17__normal_iteratorIPKN5Catch3PtrINS1_8TestSpec7PatternEEESt6vectorIS5_SaIS5_EEE4baseEv"
 "_ZNK9__gnu_cxx17__normal_iteratorIPKN5Catch3PtrINS1_8TestSpec7PatternEEESt6vectorIS5_SaIS5_EEEdeEv"
 "_ZNK9__gnu_cxx17__normal_iteratorIPKN5Catch5Clara11CommandLineINS1_10ConfigDataEE3ArgESt6vectorIS6_SaIS6_EEE4baseEv"
 "_ZNK9__gnu_cxx17__normal_iteratorIPKN5Catch5Clara11CommandLineINS1_10ConfigDataEE3ArgESt6vectorIS6_SaIS6_EEEdeEv"
 "_ZNK9__gnu_cxx17__normal_iteratorIPKN5Catch5Clara11CommandLineINS1_10ConfigDataEE3ArgESt6vectorIS6_SaIS6_EEEptEv"
 "_ZNK9__gnu_cxx17__normal_iteratorIPKN5Catch5Clara6Parser5TokenESt6vectorIS4_SaIS4_EEE4baseEv"
 "_ZNK9__gnu_cxx17__normal_iteratorIPKN5Catch5Clara6Parser5TokenESt6vectorIS4_SaIS4_EEEdeEv"
 "_ZNK9__gnu_cxx17__normal_iteratorIPKN5Catch8TestCaseESt6vectorIS2_SaIS2_EEE4baseEv"
 "_ZNK9__gnu_cxx17__normal_iteratorIPKN5Catch8TestCaseESt6vectorIS2_SaIS2_EEEdeEv"
 "_ZNK9__gnu_cxx17__normal_iteratorIPKN5Catch8TestCaseESt6vectorIS2_SaIS2_EEEptEv"
 "_ZNK9__gnu_cxx17__normal_iteratorIPKN5Catch8TestSpec6FilterESt6vectorIS3_SaIS3_EEE4baseEv"
 "_ZNK9__gnu_cxx17__normal_iteratorIPKN5Catch8TestSpec6FilterESt6vectorIS3_SaIS3_EEEdeEv"
 "_ZNK9__gnu_cxx17__normal_iteratorIPKN5Catch8TestSpec6FilterESt6vectorIS3_SaIS3_EEEptEv"
 "_ZNK9__gnu_cxx17__normal_iteratorIPKNSt7__cxx1112basic_stringIcSt11char_traitsIcESaIcEEESt6vectorIS6_SaIS6_EEE4baseEv"
 "_ZNK9__gnu_cxx17__normal_iteratorIPKNSt7__cxx1112basic_stringIcSt11char_traitsIcESaIcEEESt6vectorIS6_SaIS6_EEEdeEv"
 "_ZNK9__gnu_cxx17__normal_iteratorIPKPKN5Catch20IExceptionTranslatorESt6vectorIS4_SaIS4_EEE4baseEv"
 "_ZNK9__gnu_cxx17__normal_iteratorIPKPKN5Catch20IExceptionTranslatorESt6vectorIS4_SaIS4_EEEdeEv"
 "_ZNK9__gnu_cxx17__normal_iteratorIPKPKN5Catch20IExceptionTranslatorESt6vectorIS4_SaIS4_EEEplEx"
 "_ZNK9__gnu_cxx17__normal_iteratorIPKPN5Catch14IGeneratorInfoESt6vectorIS3_SaIS3_EEE4baseEv"
 "_ZNK9__gnu_cxx17__normal_iteratorIPKPN5Catch14IGeneratorInfoESt6vectorIS3_SaIS3_EEEdeEv"
 "_ZNK9__gnu_cxx17__normal_iteratorIPKPN5Catch16TestCaseTracking8ITrackerESt6vectorIS4_SaIS4_EEE4baseEv"
 "_ZNK9__gnu_cxx17__normal_iteratorIPN5Catch11MessageInfoESt6vectorIS2_SaIS2_EEE4baseEv"
 "_ZNK9__gnu_cxx17__normal_iteratorIPN5Catch11MessageInfoESt6vectorIS2_SaIS2_EEEdeEv"
 "_ZNK9__gnu_cxx17__normal_iteratorIPN5Catch11MessageInfoESt6vectorIS2_SaIS2_EEEplEx"
 "_ZNK9__gnu_cxx17__normal_iteratorIPN5Catch11SectionInfoESt6vectorIS2_SaIS2_EEE4baseEv"
 "_ZNK9__gnu_cxx17__normal_iteratorIPN5Catch11SectionInfoESt6vectorIS2_SaIS2_EEEdeEv"
 "_ZNK9__gnu_cxx17__normal_iteratorIPN5Catch11SectionInfoESt6vectorIS2_SaIS2_EEEmiEx"
 "_ZNK9__gnu_cxx17__normal_iteratorIPN5Catch11SectionInfoESt6vectorIS2_SaIS2_EEEplEx"
 "_ZNK9__gnu_cxx17__normal_iteratorIPN5Catch14AssertionStatsESt6vectorIS2_SaIS2_EEE4baseEv"
 "_ZNK9__gnu_cxx17__normal_iteratorIPN5Catch14AssertionStatsESt6vectorIS2_SaIS2_EEEdeEv"
 "_ZNK9__gnu_cxx17__normal_iteratorIPN5Catch14AssertionStatsESt6vectorIS2_SaIS2_EEEmiEx"
 "_ZNK9__gnu_cxx17__normal_iteratorIPN5Catch14SectionEndInfoESt6vectorIS2_SaIS2_EEE4baseEv"
 "_ZNK9__gnu_cxx17__normal_iteratorIPN5Catch15ConsoleReporter13SummaryColumnESt6vectorIS3_SaIS3_EEE4baseEv"
 "_ZNK9__gnu_cxx17__normal_iteratorIPN5Catch3PtrINS1_16IReporterFactoryEEESt6vectorIS4_SaIS4_EEE4baseEv"
 "_ZNK9__gnu_cxx17__normal_iteratorIPN5Catch3PtrINS1_16TestCaseTracking8ITrackerEEESt6vectorIS5_SaIS5_EEE4baseEv"
 "_ZNK9__gnu_cxx17__normal_iteratorIPN5Catch3PtrINS1_16TestCaseTracking8ITrackerEEESt6vectorIS5_SaIS5_EEEdeEv"
 "_ZNK9__gnu_cxx17__normal_iteratorIPN5Catch3PtrINS1_16TestCaseTracking8ITrackerEEESt6vectorIS5_SaIS5_EEEmiEx"
 "_ZNK9__gnu_cxx17__normal_iteratorIPN5Catch3PtrINS1_18IStreamingReporterEEESt6vectorIS4_SaIS4_EEE4baseEv"
 "_ZNK9__gnu_cxx17__normal_iteratorIPN5Catch3PtrINS1_22CumulativeReporterBase11SectionNodeEEESt6vectorIS5_SaIS5_EEE4baseEv"
 "_ZNK9__gnu_cxx17__normal_iteratorIPN5Catch3PtrINS1_22CumulativeReporterBase11SectionNodeEEESt6vectorIS5_SaIS5_EEEdeEv"
 "_ZNK9__gnu_cxx17__normal_iteratorIPN5Catch3PtrINS1_22CumulativeReporterBase11SectionNodeEEESt6vectorIS5_SaIS5_EEEmiEx"
 "_ZNK9__gnu_cxx17__normal_iteratorIPN5Catch3PtrINS1_22CumulativeReporterBase4NodeINS1_12TestRunStatsENS4_INS1_14TestGroupStatsENS4_INS1_13TestCaseStatsENS3_11SectionNodeEEEEEEEEESt6vectorISC_SaISC_EEE4baseEv"
 "_ZNK9__gnu_cxx17__normal_iteratorIPN5Catch3PtrINS1_22CumulativeReporterBase4NodeINS1_13TestCaseStatsENS3_11SectionNodeEEEEESt6vectorIS8_SaIS8_EEE4baseEv"
 "_ZNK9__gnu_cxx17__normal_iteratorIPN5Catch3PtrINS1_22CumulativeReporterBase4NodeINS1_14TestGroupStatsENS4_INS1_13TestCaseStatsENS3_11SectionNodeEEEEEEESt6vectorISA_SaISA_EEE4baseEv"
 "_ZNK9__gnu_cxx17__normal_iteratorIPN5Catch3PtrINS1_22CumulativeReporterBase4NodeINS1_14TestGroupStatsENS4_INS1_13TestCaseStatsENS3_11SectionNodeEEEEEEESt6vectorISA_SaISA_EEEdeEv"
 "_ZNK9__gnu_cxx17__normal_iteratorIPN5Catch3PtrINS1_22CumulativeReporterBase4NodeINS1_14TestGroupStatsENS4_INS1_13TestCaseStatsENS3_11SectionNodeEEEEEEESt6vectorISA_SaISA_EEEmiEx"
 "_ZNK9__gnu_cxx17__normal_iteratorIPN5Catch3PtrINS1_8TestSpec7PatternEEESt6vectorIS5_SaIS5_EEE4baseEv"
 "_ZNK9__gnu_cxx17__normal_iteratorIPN5Catch5Clara11CommandLineINS1_10ConfigDataEE3ArgESt6vectorIS6_SaIS6_EEE4baseEv"
 "_ZNK9__gnu_cxx17__normal_iteratorIPN5Catch5Clara11CommandLineINS1_10ConfigDataEE3ArgESt6vectorIS6_SaIS6_EEEdeEv"
 "_ZNK9__gnu_cxx17__normal_iteratorIPN5Catch5Clara11CommandLineINS1_10ConfigDataEE3ArgESt6vectorIS6_SaIS6_EEEmiEx"
 "_ZNK9__gnu_cxx17__normal_iteratorIPN5Catch5Clara6Parser5TokenESt6vectorIS4_SaIS4_EEE4baseEv"
 "_ZNK9__gnu_cxx17__normal_iteratorIPN5Catch8TestCaseESt6vectorIS2_SaIS2_EEE4baseEv"
 "_ZNK9__gnu_cxx17__normal_iteratorIPN5Catch8TestCaseESt6vectorIS2_SaIS2_EEEdeEv"
 "_ZNK9__gnu_cxx17__normal_iteratorIPN5Catch8TestCaseESt6vectorIS2_SaIS2_EEEmiEx"
 "_ZNK9__gnu_cxx17__normal_iteratorIPN5Catch8TestCaseESt6vectorIS2_SaIS2_EEEplEx"
 "_ZNK9__gnu_cxx17__normal_iteratorIPN5Catch8TestSpec6FilterESt6vectorIS3_SaIS3_EEE4baseEv"
 "_ZNK9__gnu_cxx17__normal_iteratorIPNSt7__cxx1112basic_stringIcSt11char_traitsIcESaIcEEESt6vectorIS6_SaIS6_EEE4baseEv"
 "_ZNK9__gnu_cxx17__normal_iteratorIPNSt7__cxx1112basic_stringIcSt11char_traitsIcESaIcEEESt6vectorIS6_SaIS6_EEEdeEv"
 "_ZNK9__gnu_cxx17__normal_iteratorIPNSt7__cxx1112basic_stringIcSt11char_traitsIcESaIcEEESt6vectorIS6_SaIS6_EEEmiEx"
 "_ZNK9__gnu_cxx17__normal_iteratorIPNSt7__cxx1112basic_stringIcSt11char_traitsIcESaIcEEESt6vectorIS6_SaIS6_EEEplEx"
 "_ZNK9__gnu_cxx17__normal_iteratorIPNSt7__cxx1112basic_stringIcSt11char_traitsIcESaIcEEESt6vectorIS6_SaIS6_EEEptEv"
 "_ZNK9__gnu_cxx17__normal_iteratorIPPKN5Catch20IExceptionTranslatorESt6vectorIS4_SaIS4_EEE4baseEv"
 "_ZNK9__gnu_cxx17__normal_iteratorIPPN5Catch14IGeneratorInfoESt6vectorIS3_SaIS3_EEE4baseEv"
 "_ZNK9__gnu_cxx17__normal_iteratorIPPN5Catch16TestCaseTracking8ITrackerESt6vectorIS4_SaIS4_EEE4baseEv"
 "_ZNK9__gnu_cxx17__normal_iteratorIPPN5Catch16TestCaseTracking8ITrackerESt6vectorIS4_SaIS4_EEEdeEv"
 "_ZNK9__gnu_cxx17__normal_iteratorIPPN5Catch16TestCaseTracking8ITrackerESt6vectorIS4_SaIS4_EEEmiEx"
 "_ZNK9__gnu_cxx17__normal_iteratorIPySt6vectorIySaIyEEE4baseEv"
 "_ZNK9__gnu_cxx5__ops14_Iter_less_valclINS_17__normal_iteratorIPN5Catch8TestCaseESt6vectorIS5_SaIS5_EEEES5_EEbT_RT0_"
 "_ZNK9__gnu_cxx5__ops14_Val_less_iterclIN5Catch8TestCaseENS_17__normal_iteratorIPS4_St6vectorIS4_SaIS4_EEEEEEbRT_T0_"
 "_ZNK9__gnu_cxx5__ops15_Iter_less_iterclINS_17__normal_iteratorIPN5Catch8TestCaseESt6vectorIS5_SaIS5_EEEESA_EEbT_T0_"
 "_ZNKSt10_Select1stISt4pairIKiN5Catch5Clara11CommandLineINS2_10ConfigDataEE3ArgEEEclERKS8_"
 "_ZNKSt10_Select1stISt4pairIKNSt7__cxx1112basic_stringIcSt11char_traitsIcESaIcEEEN5Catch3PtrINS8_16IReporterFactoryEEEEEclERKSC_"
 "_ZNKSt10_Select1stISt4pairIKNSt7__cxx1112basic_stringIcSt11char_traitsIcESaIcEEEN5Catch7TagInfoEEEclERKSA_"
 "_ZNKSt10_Select1stISt4pairIKNSt7__cxx1112basic_stringIcSt11char_traitsIcESaIcEEEN5Catch8TagAliasEEEclERKSA_"
 "_ZNKSt10_Select1stISt4pairIKNSt7__cxx1112basic_stringIcSt11char_traitsIcESaIcEEEPN5Catch14IGeneratorInfoEEEclERKSB_"
 "_ZNKSt10_Select1stISt4pairIKNSt7__cxx1112basic_stringIcSt11char_traitsIcESaIcEEEPN5Catch18IGeneratorsForTestEEEclERKSB_"
 "_ZNKSt10unique_ptrIKN5Catch7IStreamESt14default_deleteIS2_EE3getEv"
 "_ZNKSt10unique_ptrIKN5Catch7IStreamESt14default_deleteIS2_EEptEv"
 "_ZNKSt10unique_ptrIN5Catch13StreamBufBaseESt14default_deleteIS1_EE3getEv"
 "_ZNKSt10unique_ptrIN5Catch5Clara11CommandLineINS0_10ConfigDataEE3ArgESt14default_deleteIS5_EE3getEv"
 "_ZNKSt10unique_ptrIN5Catch5Clara11CommandLineINS0_10ConfigDataEE3ArgESt14default_deleteIS5_EEptEv"
 "_ZNKSt12_Vector_baseIN5Catch11MessageInfoESaIS1_EE19_M_get_Tp_allocatorEv"
 "_ZNKSt12_Vector_baseIN5Catch11SectionInfoESaIS1_EE19_M_get_Tp_allocatorEv"
 "_ZNKSt12_Vector_baseIN5Catch14AssertionStatsESaIS1_EE19_M_get_Tp_allocatorEv"
 "_ZNKSt12_Vector_baseIN5Catch14SectionEndInfoESaIS1_EE19_M_get_Tp_allocatorEv"
 "_ZNKSt12_Vector_baseIN5Catch15ConsoleReporter13SummaryColumnESaIS2_EE19_M_get_Tp_allocatorEv"
 "_ZNKSt12_Vector_baseIN5Catch3PtrINS0_16IReporterFactoryEEESaIS3_EE19_M_get_Tp_allocatorEv"
 "_ZNKSt12_Vector_baseIN5Catch3PtrINS0_16TestCaseTracking8ITrackerEEESaIS4_EE19_M_get_Tp_allocatorEv"
 "_ZNKSt12_Vector_baseIN5Catch3PtrINS0_18IStreamingReporterEEESaIS3_EE19_M_get_Tp_allocatorEv"
 "_ZNKSt12_Vector_baseIN5Catch3PtrINS0_22CumulativeReporterBase11SectionNodeEEESaIS4_EE19_M_get_Tp_allocatorEv"
 "_ZNKSt12_Vector_baseIN5Catch3PtrINS0_22CumulativeReporterBase4NodeINS0_12TestRunStatsENS3_INS0_14TestGroupStatsENS3_INS0_13TestCaseStatsENS2_11SectionNodeEEEEEEEEESaISB_EE19_M_get_Tp_allocatorEv"
 "_ZNKSt12_Vector_baseIN5Catch3PtrINS0_22CumulativeReporterBase4NodeINS0_13TestCaseStatsENS2_11SectionNodeEEEEESaIS7_EE19_M_get_Tp_allocatorEv"
 "_ZNKSt12_Vector_baseIN5Catch3PtrINS0_22CumulativeReporterBase4NodeINS0_14TestGroupStatsENS3_INS0_13TestCaseStatsENS2_11SectionNodeEEEEEEESaIS9_EE19_M_get_Tp_allocatorEv"
 "_ZNKSt12_Vector_baseIN5Catch3PtrINS0_8TestSpec7PatternEEESaIS4_EE13get_allocatorEv"
 "_ZNKSt12_Vector_baseIN5Catch3PtrINS0_8TestSpec7PatternEEESaIS4_EE19_M_get_Tp_allocatorEv"
 "_ZNKSt12_Vector_baseIN5Catch5Clara11CommandLineINS0_10ConfigDataEE3ArgESaIS5_EE19_M_get_Tp_allocatorEv"
 "_ZNKSt12_Vector_baseIN5Catch5Clara6Parser5TokenESaIS3_EE13get_allocatorEv"
 "_ZNKSt12_Vector_baseIN5Catch5Clara6Parser5TokenESaIS3_EE19_M_get_Tp_allocatorEv"
 "_ZNKSt12_Vector_baseIN5Catch8TestCaseESaIS1_EE13get_allocatorEv"
 "_ZNKSt12_Vector_baseIN5Catch8TestCaseESaIS1_EE19_M_get_Tp_allocatorEv"
 "_ZNKSt12_Vector_baseIN5Catch8TestSpec6FilterESaIS2_EE13get_allocatorEv"
 "_ZNKSt12_Vector_baseIN5Catch8TestSpec6FilterESaIS2_EE19_M_get_Tp_allocatorEv"
 "_ZNKSt12_Vector_baseINSt7__cxx1112basic_stringIcSt11char_traitsIcESaIcEEESaIS5_EE19_M_get_Tp_allocatorEv"
 "_ZNKSt12_Vector_baseIPKN5Catch20IExceptionTranslatorESaIS3_EE19_M_get_Tp_allocatorEv"
 "_ZNKSt12_Vector_baseIPN5Catch14IGeneratorInfoESaIS2_EE19_M_get_Tp_allocatorEv"
 "_ZNKSt12_Vector_baseIPN5Catch16TestCaseTracking8ITrackerESaIS3_EE19_M_get_Tp_allocatorEv"
 "_ZNKSt12_Vector_baseIySaIyEE19_M_get_Tp_allocatorEv"
 "_ZNKSt13_Rb_tree_nodeIN5Catch8TestCaseEE9_M_valptrEv"
 "_ZNKSt13_Rb_tree_nodeINSt7__cxx1112basic_stringIcSt11char_traitsIcESaIcEEEE9_M_valptrEv"
 "_ZNKSt13_Rb_tree_nodeISt4pairIKiN5Catch5Clara11CommandLineINS2_10ConfigDataEE3ArgEEE9_M_valptrEv"
 "_ZNKSt13_Rb_tree_nodeISt4pairIKNSt7__cxx1112basic_stringIcSt11char_traitsIcESaIcEEEN5Catch3PtrINS8_16IReporterFactoryEEEEE9_M_valptrEv"
 "_ZNKSt13_Rb_tree_nodeISt4pairIKNSt7__cxx1112basic_stringIcSt11char_traitsIcESaIcEEEN5Catch7TagInfoEEE9_M_valptrEv"
 "_ZNKSt13_Rb_tree_nodeISt4pairIKNSt7__cxx1112basic_stringIcSt11char_traitsIcESaIcEEEN5Catch8TagAliasEEE9_M_valptrEv"
 "_ZNKSt13_Rb_tree_nodeISt4pairIKNSt7__cxx1112basic_stringIcSt11char_traitsIcESaIcEEEPN5Catch14IGeneratorInfoEEE9_M_valptrEv"
 "_ZNKSt13_Rb_tree_nodeISt4pairIKNSt7__cxx1112basic_stringIcSt11char_traitsIcESaIcEEEPN5Catch18IGeneratorsForTestEEE9_M_valptrEv"
 "_ZNKSt13move_iteratorIPN5Catch11MessageInfoEE4baseEv"
 "_ZNKSt13move_iteratorIPN5Catch11MessageInfoEEdeEv"
 "_ZNKSt13move_iteratorIPN5Catch11SectionInfoEE4baseEv"
 "_ZNKSt13move_iteratorIPN5Catch11SectionInfoEEdeEv"
 "_ZNKSt13move_iteratorIPN5Catch14AssertionStatsEE4baseEv"
 "_ZNKSt13move_iteratorIPN5Catch14AssertionStatsEEdeEv"
 "_ZNKSt13move_iteratorIPN5Catch14SectionEndInfoEE4baseEv"
 "_ZNKSt13move_iteratorIPN5Catch14SectionEndInfoEEdeEv"
 "_ZNKSt13move_iteratorIPN5Catch15ConsoleReporter13SummaryColumnEE4baseEv"
 "_ZNKSt13move_iteratorIPN5Catch15ConsoleReporter13SummaryColumnEEdeEv"
 "_ZNKSt13move_iteratorIPN5Catch5Clara6Parser5TokenEE4baseEv"
 "_ZNKSt13move_iteratorIPN5Catch5Clara6Parser5TokenEEdeEv"
 "_ZNKSt13move_iteratorIPN5Catch8TestSpec6FilterEE4baseEv"
 "_ZNKSt13move_iteratorIPN5Catch8TestSpec6FilterEEdeEv"
 "_ZNKSt13move_iteratorIPNSt7__cxx1112basic_stringIcSt11char_traitsIcESaIcEEEE4baseEv"
 "_ZNKSt13move_iteratorIPNSt7__cxx1112basic_stringIcSt11char_traitsIcESaIcEEEEdeEv"
 "_ZNKSt13move_iteratorIPPKN5Catch20IExceptionTranslatorEE4baseEv"
 "_ZNKSt13move_iteratorIPPN5Catch14IGeneratorInfoEE4baseEv"
 "_ZNKSt13move_iteratorIPPN5Catch16TestCaseTracking8ITrackerEE4baseEv"
 "_ZNKSt13move_iteratorIPyE4baseEv"
 "_ZNKSt14default_deleteIKN5Catch7IStreamEEclEPS2_"
 "_ZNKSt14default_deleteIN5Catch13StreamBufBaseEEclEPS1_"
 "_ZNKSt14default_deleteIN5Catch5Clara11CommandLineINS0_10ConfigDataEE3ArgEEclEPS5_"
 "_ZNKSt15__uniq_ptr_implIKN5Catch7IStreamESt14default_deleteIS2_EE6_M_ptrEv"
 "_ZNKSt15__uniq_ptr_implIN5Catch13StreamBufBaseESt14default_deleteIS1_EE6_M_ptrEv"
 "_ZNKSt15__uniq_ptr_implIN5Catch5Clara11CommandLineINS0_10ConfigDataEE3ArgESt14default_deleteIS5_EE6_M_ptrEv"
 "_ZNKSt16reverse_iteratorIN9__gnu_cxx17__normal_iteratorIPKcNSt7__cxx1112basic_stringIcSt11char_traitsIcESaIcEEEEEE4baseEv"
 "_ZNKSt16reverse_iteratorIN9__gnu_cxx17__normal_iteratorIPKN5Catch14SectionEndInfoESt6vectorIS3_SaIS3_EEEEE4baseEv"
 "_ZNKSt16reverse_iteratorIN9__gnu_cxx17__normal_iteratorIPKN5Catch14SectionEndInfoESt6vectorIS3_SaIS3_EEEEEdeEv"
 "_ZNKSt16reverse_iteratorIN9__gnu_cxx17__normal_iteratorIPN5Catch14SectionEndInfoESt6vectorIS3_SaIS3_EEEEE4baseEv"
 "_ZNKSt16reverse_iteratorIPKcE4baseEv"
 "_ZNKSt16reverse_iteratorIPKcEdeEv"
 "_ZNKSt17_Rb_tree_iteratorISt4pairIKNSt7__cxx1112basic_stringIcSt11char_traitsIcESaIcEEEN5Catch7TagInfoEEEptEv"
 "_ZNKSt17integral_constantIbLb1EEcvbEv"
 "_ZNKSt23_Rb_tree_const_iteratorIN5Catch8TestCaseEEptEv"
 "_ZNKSt23_Rb_tree_const_iteratorINSt7__cxx1112basic_stringIcSt11char_traitsIcESaIcEEEEdeEv"
 "_ZNKSt23_Rb_tree_const_iteratorISt4pairIKiN5Catch5Clara11CommandLineINS2_10ConfigDataEE3ArgEEEptEv"
 "_ZNKSt23_Rb_tree_const_iteratorISt4pairIKNSt7__cxx1112basic_stringIcSt11char_traitsIcESaIcEEEN5Catch3PtrINS8_16IReporterFactoryEEEEEptEv"
 "_ZNKSt23_Rb_tree_const_iteratorISt4pairIKNSt7__cxx1112basic_stringIcSt11char_traitsIcESaIcEEEN5Catch7TagInfoEEEptEv"
 "_ZNKSt23_Rb_tree_const_iteratorISt4pairIKNSt7__cxx1112basic_stringIcSt11char_traitsIcESaIcEEEN5Catch8TagAliasEEEptEv"
 "_ZNKSt23_Rb_tree_const_iteratorISt4pairIKNSt7__cxx1112basic_stringIcSt11char_traitsIcESaIcEEEPN5Catch14IGeneratorInfoEEEptEv"
 "_ZNKSt23_Rb_tree_const_iteratorISt4pairIKNSt7__cxx1112basic_stringIcSt11char_traitsIcESaIcEEEPN5Catch18IGeneratorsForTestEEEptEv"
 "_ZNKSt24uniform_int_distributionIyE10param_type1aEv"
 "_ZNKSt24uniform_int_distributionIyE10param_type1bEv"
 "_ZNKSt3mapIiN5Catch5Clara11CommandLineINS0_10ConfigDataEE3ArgESt4lessIiESaISt4pairIKiS5_EEE3endEv"
 "_ZNKSt3mapIiN5Catch5Clara11CommandLineINS0_10ConfigDataEE3ArgESt4lessIiESaISt4pairIKiS5_EEE4findERS9_"
 "_ZNKSt3mapIiN5Catch5Clara11CommandLineINS0_10ConfigDataEE3ArgESt4lessIiESaISt4pairIKiS5_EEE5emptyEv"
 "_ZNKSt3mapINSt7__cxx1112basic_stringIcSt11char_traitsIcESaIcEEEN5Catch3PtrINS6_16IReporterFactoryEEESt4lessIS5_ESaISt4pairIKS5_S9_EEE3endEv"
 "_ZNKSt3mapINSt7__cxx1112basic_stringIcSt11char_traitsIcESaIcEEEN5Catch3PtrINS6_16IReporterFactoryEEESt4lessIS5_ESaISt4pairIKS5_S9_EEE4findERSD_"
 "_ZNKSt3mapINSt7__cxx1112basic_stringIcSt11char_traitsIcESaIcEEEN5Catch3PtrINS6_16IReporterFactoryEEESt4lessIS5_ESaISt4pairIKS5_S9_EEE4sizeEv"
 "_ZNKSt3mapINSt7__cxx1112basic_stringIcSt11char_traitsIcESaIcEEEN5Catch3PtrINS6_16IReporterFactoryEEESt4lessIS5_ESaISt4pairIKS5_S9_EEE5beginEv"
 "_ZNKSt3mapINSt7__cxx1112basic_stringIcSt11char_traitsIcESaIcEEEN5Catch7TagInfoESt4lessIS5_ESaISt4pairIKS5_S7_EEE4sizeEv"
 "_ZNKSt3mapINSt7__cxx1112basic_stringIcSt11char_traitsIcESaIcEEEN5Catch8TagAliasESt4lessIS5_ESaISt4pairIKS5_S7_EEE3endEv"
 "_ZNKSt3mapINSt7__cxx1112basic_stringIcSt11char_traitsIcESaIcEEEN5Catch8TagAliasESt4lessIS5_ESaISt4pairIKS5_S7_EEE4findERSB_"
 "_ZNKSt3mapINSt7__cxx1112basic_stringIcSt11char_traitsIcESaIcEEEN5Catch8TagAliasESt4lessIS5_ESaISt4pairIKS5_S7_EEE5beginEv"
 "_ZNKSt3setINSt7__cxx1112basic_stringIcSt11char_traitsIcESaIcEEESt4lessIS5_ESaIS5_EE3endEv"
 "_ZNKSt3setINSt7__cxx1112basic_stringIcSt11char_traitsIcESaIcEEESt4lessIS5_ESaIS5_EE4findERKS5_"
 "_ZNKSt3setINSt7__cxx1112basic_stringIcSt11char_traitsIcESaIcEEESt4lessIS5_ESaIS5_EE5beginEv"
 "_ZNKSt3setINSt7__cxx1112basic_stringIcSt11char_traitsIcESaIcEEESt4lessIS5_ESaIS5_EE5emptyEv"
 "_ZNKSt4lessIiEclERKiS2_"
 "_ZNKSt4lessIN5Catch8TestCaseEEclERKS1_S4_"
 "_ZNKSt4lessINSt7__cxx1112basic_stringIcSt11char_traitsIcESaIcEEEEclERKS5_S8_"
 "_ZNKSt6vectorIN5Catch11MessageInfoESaIS1_EE12_M_check_lenEyPKc"
 "_ZNKSt6vectorIN5Catch11MessageInfoESaIS1_EE3endEv"
 "_ZNKSt6vectorIN5Catch11MessageInfoESaIS1_EE4sizeEv"
 "_ZNKSt6vectorIN5Catch11MessageInfoESaIS1_EE5beginEv"
 "_ZNKSt6vectorIN5Catch11MessageInfoESaIS1_EE6cbeginEv"
 "_ZNKSt6vectorIN5Catch11MessageInfoESaIS1_EE8max_sizeEv"
 "_ZNKSt6vectorIN5Catch11SectionInfoESaIS1_EE12_M_check_lenEyPKc"
 "_ZNKSt6vectorIN5Catch11SectionInfoESaIS1_EE3endEv"
 "_ZNKSt6vectorIN5Catch11SectionInfoESaIS1_EE4sizeEv"
 "_ZNKSt6vectorIN5Catch11SectionInfoESaIS1_EE5beginEv"
 "_ZNKSt6vectorIN5Catch11SectionInfoESaIS1_EE5emptyEv"
 "_ZNKSt6vectorIN5Catch11SectionInfoESaIS1_EE8max_sizeEv"
 "_ZNKSt6vectorIN5Catch14AssertionStatsESaIS1_EE12_M_check_lenEyPKc"
 "_ZNKSt6vectorIN5Catch14AssertionStatsESaIS1_EE3endEv"
 "_ZNKSt6vectorIN5Catch14AssertionStatsESaIS1_EE4sizeEv"
 "_ZNKSt6vectorIN5Catch14AssertionStatsESaIS1_EE5beginEv"
 "_ZNKSt6vectorIN5Catch14AssertionStatsESaIS1_EE5emptyEv"
 "_ZNKSt6vectorIN5Catch14AssertionStatsESaIS1_EE8max_sizeEv"
 "_ZNKSt6vectorIN5Catch14SectionEndInfoESaIS1_EE12_M_check_lenEyPKc"
 "_ZNKSt6vectorIN5Catch14SectionEndInfoESaIS1_EE3endEv"
 "_ZNKSt6vectorIN5Catch14SectionEndInfoESaIS1_EE4sizeEv"
 "_ZNKSt6vectorIN5Catch14SectionEndInfoESaIS1_EE5beginEv"
 "_ZNKSt6vectorIN5Catch14SectionEndInfoESaIS1_EE5emptyEv"
 "_ZNKSt6vectorIN5Catch14SectionEndInfoESaIS1_EE8max_sizeEv"
 "_ZNKSt6vectorIN5Catch15ConsoleReporter13SummaryColumnESaIS2_EE12_M_check_lenEyPKc"
 "_ZNKSt6vectorIN5Catch15ConsoleReporter13SummaryColumnESaIS2_EE3endEv"
 "_ZNKSt6vectorIN5Catch15ConsoleReporter13SummaryColumnESaIS2_EE4sizeEv"
 "_ZNKSt6vectorIN5Catch15ConsoleReporter13SummaryColumnESaIS2_EE5beginEv"
 "_ZNKSt6vectorIN5Catch15ConsoleReporter13SummaryColumnESaIS2_EE8max_sizeEv"
 "_ZNKSt6vectorIN5Catch3PtrINS0_16IReporterFactoryEEESaIS3_EE12_M_check_lenEyPKc"
 "_ZNKSt6vectorIN5Catch3PtrINS0_16IReporterFactoryEEESaIS3_EE3endEv"
 "_ZNKSt6vectorIN5Catch3PtrINS0_16IReporterFactoryEEESaIS3_EE4sizeEv"
 "_ZNKSt6vectorIN5Catch3PtrINS0_16IReporterFactoryEEESaIS3_EE5beginEv"
 "_ZNKSt6vectorIN5Catch3PtrINS0_16IReporterFactoryEEESaIS3_EE8max_sizeEv"
 "_ZNKSt6vectorIN5Catch3PtrINS0_16TestCaseTracking8ITrackerEEESaIS4_EE12_M_check_lenEyPKc"
 "_ZNKSt6vectorIN5Catch3PtrINS0_16TestCaseTracking8ITrackerEEESaIS4_EE3endEv"
 "_ZNKSt6vectorIN5Catch3PtrINS0_16TestCaseTracking8ITrackerEEESaIS4_EE4sizeEv"
 "_ZNKSt6vectorIN5Catch3PtrINS0_16TestCaseTracking8ITrackerEEESaIS4_EE5beginEv"
 "_ZNKSt6vectorIN5Catch3PtrINS0_16TestCaseTracking8ITrackerEEESaIS4_EE5emptyEv"
 "_ZNKSt6vectorIN5Catch3PtrINS0_16TestCaseTracking8ITrackerEEESaIS4_EE8max_sizeEv"
 "_ZNKSt6vectorIN5Catch3PtrINS0_18IStreamingReporterEEESaIS3_EE12_M_check_lenEyPKc"
 "_ZNKSt6vectorIN5Catch3PtrINS0_18IStreamingReporterEEESaIS3_EE4sizeEv"
 "_ZNKSt6vectorIN5Catch3PtrINS0_18IStreamingReporterEEESaIS3_EE8max_sizeEv"
 "_ZNKSt6vectorIN5Catch3PtrINS0_18IStreamingReporterEEESaIS3_EEixEy"
 "_ZNKSt6vectorIN5Catch3PtrINS0_22CumulativeReporterBase11SectionNodeEEESaIS4_EE12_M_check_lenEyPKc"
 "_ZNKSt6vectorIN5Catch3PtrINS0_22CumulativeReporterBase11SectionNodeEEESaIS4_EE3endEv"
 "_ZNKSt6vectorIN5Catch3PtrINS0_22CumulativeReporterBase11SectionNodeEEESaIS4_EE4sizeEv"
 "_ZNKSt6vectorIN5Catch3PtrINS0_22CumulativeReporterBase11SectionNodeEEESaIS4_EE5beginEv"
 "_ZNKSt6vectorIN5Catch3PtrINS0_22CumulativeReporterBase11SectionNodeEEESaIS4_EE5emptyEv"
 "_ZNKSt6vectorIN5Catch3PtrINS0_22CumulativeReporterBase11SectionNodeEEESaIS4_EE5frontEv"
 "_ZNKSt6vectorIN5Catch3PtrINS0_22CumulativeReporterBase11SectionNodeEEESaIS4_EE8max_sizeEv"
 "_ZNKSt6vectorIN5Catch3PtrINS0_22CumulativeReporterBase4NodeINS0_12TestRunStatsENS3_INS0_14TestGroupStatsENS3_INS0_13TestCaseStatsENS2_11SectionNodeEEEEEEEEESaISB_EE12_M_check_lenEyPKc"
 "_ZNKSt6vectorIN5Catch3PtrINS0_22CumulativeReporterBase4NodeINS0_12TestRunStatsENS3_INS0_14TestGroupStatsENS3_INS0_13TestCaseStatsENS2_11SectionNodeEEEEEEEEESaISB_EE4sizeEv"
 "_ZNKSt6vectorIN5Catch3PtrINS0_22CumulativeReporterBase4NodeINS0_12TestRunStatsENS3_INS0_14TestGroupStatsENS3_INS0_13TestCaseStatsENS2_11SectionNodeEEEEEEEEESaISB_EE8max_sizeEv"
 "_ZNKSt6vectorIN5Catch3PtrINS0_22CumulativeReporterBase4NodeINS0_13TestCaseStatsENS2_11SectionNodeEEEEESaIS7_EE12_M_check_lenEyPKc"
 "_ZNKSt6vectorIN5Catch3PtrINS0_22CumulativeReporterBase4NodeINS0_13TestCaseStatsENS2_11SectionNodeEEEEESaIS7_EE3endEv"
 "_ZNKSt6vectorIN5Catch3PtrINS0_22CumulativeReporterBase4NodeINS0_13TestCaseStatsENS2_11SectionNodeEEEEESaIS7_EE4sizeEv"
 "_ZNKSt6vectorIN5Catch3PtrINS0_22CumulativeReporterBase4NodeINS0_13TestCaseStatsENS2_11SectionNodeEEEEESaIS7_EE5beginEv"
 "_ZNKSt6vectorIN5Catch3PtrINS0_22CumulativeReporterBase4NodeINS0_13TestCaseStatsENS2_11SectionNodeEEEEESaIS7_EE8max_sizeEv"
 "_ZNKSt6vectorIN5Catch3PtrINS0_22CumulativeReporterBase4NodeINS0_14TestGroupStatsENS3_INS0_13TestCaseStatsENS2_11SectionNodeEEEEEEESaIS9_EE12_M_check_lenEyPKc"
 "_ZNKSt6vectorIN5Catch3PtrINS0_22CumulativeReporterBase4NodeINS0_14TestGroupStatsENS3_INS0_13TestCaseStatsENS2_11SectionNodeEEEEEEESaIS9_EE4sizeEv"
 "_ZNKSt6vectorIN5Catch3PtrINS0_22CumulativeReporterBase4NodeINS0_14TestGroupStatsENS3_INS0_13TestCaseStatsENS2_11SectionNodeEEEEEEESaIS9_EE8max_sizeEv"
 "_ZNKSt6vectorIN5Catch3PtrINS0_8TestSpec7PatternEEESaIS4_EE12_M_check_lenEyPKc"
 "_ZNKSt6vectorIN5Catch3PtrINS0_8TestSpec7PatternEEESaIS4_EE3endEv"
 "_ZNKSt6vectorIN5Catch3PtrINS0_8TestSpec7PatternEEESaIS4_EE4sizeEv"
 "_ZNKSt6vectorIN5Catch3PtrINS0_8TestSpec7PatternEEESaIS4_EE5beginEv"
 "_ZNKSt6vectorIN5Catch3PtrINS0_8TestSpec7PatternEEESaIS4_EE5emptyEv"
 "_ZNKSt6vectorIN5Catch3PtrINS0_8TestSpec7PatternEEESaIS4_EE8max_sizeEv"
 "_ZNKSt6vectorIN5Catch5Clara11CommandLineINS0_10ConfigDataEE3ArgESaIS5_EE12_M_check_lenEyPKc"
 "_ZNKSt6vectorIN5Catch5Clara11CommandLineINS0_10ConfigDataEE3ArgESaIS5_EE3endEv"
 "_ZNKSt6vectorIN5Catch5Clara11CommandLineINS0_10ConfigDataEE3ArgESaIS5_EE4sizeEv"
 "_ZNKSt6vectorIN5Catch5Clara11CommandLineINS0_10ConfigDataEE3ArgESaIS5_EE5beginEv"
 "_ZNKSt6vectorIN5Catch5Clara11CommandLineINS0_10ConfigDataEE3ArgESaIS5_EE5emptyEv"
 "_ZNKSt6vectorIN5Catch5Clara11CommandLineINS0_10ConfigDataEE3ArgESaIS5_EE8max_sizeEv"
 "_ZNKSt6vectorIN5Catch5Clara6Parser5TokenESaIS3_EE12_M_check_lenEyPKc"
 "_ZNKSt6vectorIN5Catch5Clara6Parser5TokenESaIS3_EE3endEv"
 "_ZNKSt6vectorIN5Catch5Clara6Parser5TokenESaIS3_EE4sizeEv"
 "_ZNKSt6vectorIN5Catch5Clara6Parser5TokenESaIS3_EE5beginEv"
 "_ZNKSt6vectorIN5Catch5Clara6Parser5TokenESaIS3_EE8max_sizeEv"
 "_ZNKSt6vectorIN5Catch5Clara6Parser5TokenESaIS3_EEixEy"
 "_ZNKSt6vectorIN5Catch8TestCaseESaIS1_EE12_M_check_lenEyPKc"
 "_ZNKSt6vectorIN5Catch8TestCaseESaIS1_EE3endEv"
 "_ZNKSt6vectorIN5Catch8TestCaseESaIS1_EE4sizeEv"
 "_ZNKSt6vectorIN5Catch8TestCaseESaIS1_EE5beginEv"
 "_ZNKSt6vectorIN5Catch8TestCaseESaIS1_EE5emptyEv"
 "_ZNKSt6vectorIN5Catch8TestCaseESaIS1_EE8capacityEv"
 "_ZNKSt6vectorIN5Catch8TestCaseESaIS1_EE8max_sizeEv"
 "_ZNKSt6vectorIN5Catch8TestCaseESaIS1_EEixEy"
 "_ZNKSt6vectorIN5Catch8TestSpec6FilterESaIS2_EE12_M_check_lenEyPKc"
 "_ZNKSt6vectorIN5Catch8TestSpec6FilterESaIS2_EE3endEv"
 "_ZNKSt6vectorIN5Catch8TestSpec6FilterESaIS2_EE4sizeEv"
 "_ZNKSt6vectorIN5Catch8TestSpec6FilterESaIS2_EE5beginEv"
 "_ZNKSt6vectorIN5Catch8TestSpec6FilterESaIS2_EE5emptyEv"
 "_ZNKSt6vectorIN5Catch8TestSpec6FilterESaIS2_EE8max_sizeEv"
 "_ZNKSt6vectorINSt7__cxx1112basic_stringIcSt11char_traitsIcESaIcEEESaIS5_EE12_M_check_lenEyPKc"
 "_ZNKSt6vectorINSt7__cxx1112basic_stringIcSt11char_traitsIcESaIcEEESaIS5_EE3endEv"
 "_ZNKSt6vectorINSt7__cxx1112basic_stringIcSt11char_traitsIcESaIcEEESaIS5_EE4sizeEv"
 "_ZNKSt6vectorINSt7__cxx1112basic_stringIcSt11char_traitsIcESaIcEEESaIS5_EE5beginEv"
 "_ZNKSt6vectorINSt7__cxx1112basic_stringIcSt11char_traitsIcESaIcEEESaIS5_EE5emptyEv"
 "_ZNKSt6vectorINSt7__cxx1112basic_stringIcSt11char_traitsIcESaIcEEESaIS5_EE6cbeginEv"
 "_ZNKSt6vectorINSt7__cxx1112basic_stringIcSt11char_traitsIcESaIcEEESaIS5_EE8max_sizeEv"
 "_ZNKSt6vectorINSt7__cxx1112basic_stringIcSt11char_traitsIcESaIcEEESaIS5_EEixEy"
 "_ZNKSt6vectorIPKN5Catch20IExceptionTranslatorESaIS3_EE12_M_check_lenEyPKc"
 "_ZNKSt6vectorIPKN5Catch20IExceptionTranslatorESaIS3_EE3endEv"
 "_ZNKSt6vectorIPKN5Catch20IExceptionTranslatorESaIS3_EE4sizeEv"
 "_ZNKSt6vectorIPKN5Catch20IExceptionTranslatorESaIS3_EE5beginEv"
 "_ZNKSt6vectorIPKN5Catch20IExceptionTranslatorESaIS3_EE5emptyEv"
 "_ZNKSt6vectorIPKN5Catch20IExceptionTranslatorESaIS3_EE8max_sizeEv"
 "_ZNKSt6vectorIPKN5Catch20IExceptionTranslatorESaIS3_EEixEy"
 "_ZNKSt6vectorIPKN5Catch8Matchers4Impl11MatcherBaseINSt7__cxx1112basic_stringIcSt11char_traitsIcESaIcEEES9_EESaISC_EE4sizeEv"
 "_ZNKSt6vectorIPKN5Catch8Matchers4Impl11MatcherBaseINSt7__cxx1112basic_stringIcSt11char_traitsIcESaIcEEES9_EESaISC_EEixEy"
 "_ZNKSt6vectorIPN5Catch14IGeneratorInfoESaIS2_EE12_M_check_lenEyPKc"
 "_ZNKSt6vectorIPN5Catch14IGeneratorInfoESaIS2_EE4sizeEv"
 "_ZNKSt6vectorIPN5Catch14IGeneratorInfoESaIS2_EE8max_sizeEv"
 "_ZNKSt6vectorIPN5Catch16TestCaseTracking8ITrackerESaIS3_EE12_M_check_lenEyPKc"
 "_ZNKSt6vectorIPN5Catch16TestCaseTracking8ITrackerESaIS3_EE3endEv"
 "_ZNKSt6vectorIPN5Catch16TestCaseTracking8ITrackerESaIS3_EE4sizeEv"
 "_ZNKSt6vectorIPN5Catch16TestCaseTracking8ITrackerESaIS3_EE5beginEv"
 "_ZNKSt6vectorIPN5Catch16TestCaseTracking8ITrackerESaIS3_EE5emptyEv"
 "_ZNKSt6vectorIPN5Catch16TestCaseTracking8ITrackerESaIS3_EE8max_sizeEv"
 "_ZNKSt6vectorIySaIyEE12_M_check_lenEyPKc"
 "_ZNKSt6vectorIySaIyEE4sizeEv"
 "_ZNKSt6vectorIySaIyEE8max_sizeEv"
 "_ZNKSt8_Rb_treeIiSt4pairIKiN5Catch5Clara11CommandLineINS2_10ConfigDataEE3ArgEESt10_Select1stIS8_ESt4lessIiESaIS8_EE14_M_lower_boundEPKSt13_Rb_tree_nodeIS8_EPKSt18_Rb_tree_node_baseRS1_"
 "_ZNKSt8_Rb_treeIiSt4pairIKiN5Catch5Clara11CommandLineINS2_10ConfigDataEE3ArgEESt10_Select1stIS8_ESt4lessIiESaIS8_EE3endEv"
 "_ZNKSt8_Rb_treeIiSt4pairIKiN5Catch5Clara11CommandLineINS2_10ConfigDataEE3ArgEESt10_Select1stIS8_ESt4lessIiESaIS8_EE4findERS1_"
 "_ZNKSt8_Rb_treeIiSt4pairIKiN5Catch5Clara11CommandLineINS2_10ConfigDataEE3ArgEESt10_Select1stIS8_ESt4lessIiESaIS8_EE5emptyEv"
 "_ZNKSt8_Rb_treeIiSt4pairIKiN5Catch5Clara11CommandLineINS2_10ConfigDataEE3ArgEESt10_Select1stIS8_ESt4lessIiESaIS8_EE6_M_endEv"
 "_ZNKSt8_Rb_treeIiSt4pairIKiN5Catch5Clara11CommandLineINS2_10ConfigDataEE3ArgEESt10_Select1stIS8_ESt4lessIiESaIS8_EE8_M_beginEv"
 "_ZNKSt8_Rb_treeIN5Catch8TestCaseES1_St9_IdentityIS1_ESt4lessIS1_ESaIS1_EE11_Alloc_nodeclIRKS1_EEPSt13_Rb_tree_nodeIS1_EOT_"
 "_ZNKSt8_Rb_treeINSt7__cxx1112basic_stringIcSt11char_traitsIcESaIcEEES5_St9_IdentityIS5_ESt4lessIS5_ESaIS5_EE11_Alloc_nodeclIRKS5_EEPSt13_Rb_tree_nodeIS5_EOT_"
 "_ZNKSt8_Rb_treeINSt7__cxx1112basic_stringIcSt11char_traitsIcESaIcEEES5_St9_IdentityIS5_ESt4lessIS5_ESaIS5_EE11_Alloc_nodeclIS5_EEPSt13_Rb_tree_nodeIS5_EOT_"
 "_ZNKSt8_Rb_treeINSt7__cxx1112basic_stringIcSt11char_traitsIcESaIcEEES5_St9_IdentityIS5_ESt4lessIS5_ESaIS5_EE14_M_lower_boundEPKSt13_Rb_tree_nodeIS5_EPKSt18_Rb_tree_node_baseRKS5_"
 "_ZNKSt8_Rb_treeINSt7__cxx1112basic_stringIcSt11char_traitsIcESaIcEEES5_St9_IdentityIS5_ESt4lessIS5_ESaIS5_EE21_M_get_Node_allocatorEv"
 "_ZNKSt8_Rb_treeINSt7__cxx1112basic_stringIcSt11char_traitsIcESaIcEEES5_St9_IdentityIS5_ESt4lessIS5_ESaIS5_EE3endEv"
 "_ZNKSt8_Rb_treeINSt7__cxx1112basic_stringIcSt11char_traitsIcESaIcEEES5_St9_IdentityIS5_ESt4lessIS5_ESaIS5_EE4findERKS5_"
 "_ZNKSt8_Rb_treeINSt7__cxx1112basic_stringIcSt11char_traitsIcESaIcEEES5_St9_IdentityIS5_ESt4lessIS5_ESaIS5_EE5beginEv"
 "_ZNKSt8_Rb_treeINSt7__cxx1112basic_stringIcSt11char_traitsIcESaIcEEES5_St9_IdentityIS5_ESt4lessIS5_ESaIS5_EE5emptyEv"
 "_ZNKSt8_Rb_treeINSt7__cxx1112basic_stringIcSt11char_traitsIcESaIcEEES5_St9_IdentityIS5_ESt4lessIS5_ESaIS5_EE6_M_endEv"
 "_ZNKSt8_Rb_treeINSt7__cxx1112basic_stringIcSt11char_traitsIcESaIcEEES5_St9_IdentityIS5_ESt4lessIS5_ESaIS5_EE7_M_rootEv"
 "_ZNKSt8_Rb_treeINSt7__cxx1112basic_stringIcSt11char_traitsIcESaIcEEES5_St9_IdentityIS5_ESt4lessIS5_ESaIS5_EE8_M_beginEv"
 "_ZNKSt8_Rb_treeINSt7__cxx1112basic_stringIcSt11char_traitsIcESaIcEEESt4pairIKS5_N5Catch3PtrINS8_16IReporterFactoryEEEESt10_Select1stISC_ESt4lessIS5_ESaISC_EE14_M_lower_boundEPKSt13_Rb_tree_nodeISC_EPKSt18_Rb_tree_node_baseRS7_"
 "_ZNKSt8_Rb_treeINSt7__cxx1112basic_stringIcSt11char_traitsIcESaIcEEESt4pairIKS5_N5Catch3PtrINS8_16IReporterFactoryEEEESt10_Select1stISC_ESt4lessIS5_ESaISC_EE3endEv"
 "_ZNKSt8_Rb_treeINSt7__cxx1112basic_stringIcSt11char_traitsIcESaIcEEESt4pairIKS5_N5Catch3PtrINS8_16IReporterFactoryEEEESt10_Select1stISC_ESt4lessIS5_ESaISC_EE4findERS7_"
 "_ZNKSt8_Rb_treeINSt7__cxx1112basic_stringIcSt11char_traitsIcESaIcEEESt4pairIKS5_N5Catch3PtrINS8_16IReporterFactoryEEEESt10_Select1stISC_ESt4lessIS5_ESaISC_EE4sizeEv"
 "_ZNKSt8_Rb_treeINSt7__cxx1112basic_stringIcSt11char_traitsIcESaIcEEESt4pairIKS5_N5Catch3PtrINS8_16IReporterFactoryEEEESt10_Select1stISC_ESt4lessIS5_ESaISC_EE5beginEv"
 "_ZNKSt8_Rb_treeINSt7__cxx1112basic_stringIcSt11char_traitsIcESaIcEEESt4pairIKS5_N5Catch3PtrINS8_16IReporterFactoryEEEESt10_Select1stISC_ESt4lessIS5_ESaISC_EE6_M_endEv"
 "_ZNKSt8_Rb_treeINSt7__cxx1112basic_stringIcSt11char_traitsIcESaIcEEESt4pairIKS5_N5Catch3PtrINS8_16IReporterFactoryEEEESt10_Select1stISC_ESt4lessIS5_ESaISC_EE8_M_beginEv"
 "_ZNKSt8_Rb_treeINSt7__cxx1112basic_stringIcSt11char_traitsIcESaIcEEESt4pairIKS5_N5Catch7TagInfoEESt10_Select1stISA_ESt4lessIS5_ESaISA_EE4sizeEv"
 "_ZNKSt8_Rb_treeINSt7__cxx1112basic_stringIcSt11char_traitsIcESaIcEEESt4pairIKS5_N5Catch8TagAliasEESt10_Select1stISA_ESt4lessIS5_ESaISA_EE14_M_lower_boundEPKSt13_Rb_tree_nodeISA_EPKSt18_Rb_tree_node_baseRS7_"
 "_ZNKSt8_Rb_treeINSt7__cxx1112basic_stringIcSt11char_traitsIcESaIcEEESt4pairIKS5_N5Catch8TagAliasEESt10_Select1stISA_ESt4lessIS5_ESaISA_EE3endEv"
 "_ZNKSt8_Rb_treeINSt7__cxx1112basic_stringIcSt11char_traitsIcESaIcEEESt4pairIKS5_N5Catch8TagAliasEESt10_Select1stISA_ESt4lessIS5_ESaISA_EE4findERS7_"
 "_ZNKSt8_Rb_treeINSt7__cxx1112basic_stringIcSt11char_traitsIcESaIcEEESt4pairIKS5_N5Catch8TagAliasEESt10_Select1stISA_ESt4lessIS5_ESaISA_EE5beginEv"
 "_ZNKSt8_Rb_treeINSt7__cxx1112basic_stringIcSt11char_traitsIcESaIcEEESt4pairIKS5_N5Catch8TagAliasEESt10_Select1stISA_ESt4lessIS5_ESaISA_EE6_M_endEv"
 "_ZNKSt8_Rb_treeINSt7__cxx1112basic_stringIcSt11char_traitsIcESaIcEEESt4pairIKS5_N5Catch8TagAliasEESt10_Select1stISA_ESt4lessIS5_ESaISA_EE8_M_beginEv"
 "_ZNKSt9_IdentityIN5Catch8TestCaseEEclERKS1_"
 "_ZNKSt9_IdentityINSt7__cxx1112basic_stringIcSt11char_traitsIcESaIcEEEEclERKS5_"
 "_ZNKSt9_IdentityINSt7__cxx1112basic_stringIcSt11char_traitsIcESaIcEEEEclERS5_"
 "_ZNSaIN5Catch11MessageInfoEEC1ERKS1_"
 "_ZNSaIN5Catch11MessageInfoEEC2ERKS1_"
 "_ZNSaIN5Catch11MessageInfoEEC2Ev"
 "_ZNSaIN5Catch11MessageInfoEED1Ev"
 "_ZNSaIN5Catch11MessageInfoEED2Ev"
 "_ZNSaIN5Catch11SectionInfoEEC2Ev"
 "_ZNSaIN5Catch11SectionInfoEED2Ev"
 "_ZNSaIN5Catch14AssertionStatsEEC2Ev"
 "_ZNSaIN5Catch14AssertionStatsEED2Ev"
 "_ZNSaIN5Catch14SectionEndInfoEEC2Ev"
 "_ZNSaIN5Catch14SectionEndInfoEED2Ev"
 "_ZNSaIN5Catch15ConsoleReporter13SummaryColumnEEC2Ev"
 "_ZNSaIN5Catch15ConsoleReporter13SummaryColumnEED2Ev"
 "_ZNSaIN5Catch3PtrINS_16IReporterFactoryEEEEC1ERKS3_"
 "_ZNSaIN5Catch3PtrINS_16IReporterFactoryEEEEC2ERKS3_"
 "_ZNSaIN5Catch3PtrINS_16IReporterFactoryEEEEC2Ev"
 "_ZNSaIN5Catch3PtrINS_16IReporterFactoryEEEED1Ev"
 "_ZNSaIN5Catch3PtrINS_16IReporterFactoryEEEED2Ev"
 "_ZNSaIN5Catch3PtrINS_16TestCaseTracking8ITrackerEEEEC2Ev"
 "_ZNSaIN5Catch3PtrINS_16TestCaseTracking8ITrackerEEEED2Ev"
 "_ZNSaIN5Catch3PtrINS_18IStreamingReporterEEEEC2Ev"
 "_ZNSaIN5Catch3PtrINS_18IStreamingReporterEEEED2Ev"
 "_ZNSaIN5Catch3PtrINS_22CumulativeReporterBase11SectionNodeEEEEC2Ev"
 "_ZNSaIN5Catch3PtrINS_22CumulativeReporterBase11SectionNodeEEEED2Ev"
 "_ZNSaIN5Catch3PtrINS_22CumulativeReporterBase4NodeINS_12TestRunStatsENS2_INS_14TestGroupStatsENS2_INS_13TestCaseStatsENS1_11SectionNodeEEEEEEEEEEC2Ev"
 "_ZNSaIN5Catch3PtrINS_22CumulativeReporterBase4NodeINS_12TestRunStatsENS2_INS_14TestGroupStatsENS2_INS_13TestCaseStatsENS1_11SectionNodeEEEEEEEEEED2Ev"
 "_ZNSaIN5Catch3PtrINS_22CumulativeReporterBase4NodeINS_13TestCaseStatsENS1_11SectionNodeEEEEEEC2Ev"
 "_ZNSaIN5Catch3PtrINS_22CumulativeReporterBase4NodeINS_13TestCaseStatsENS1_11SectionNodeEEEEEED2Ev"
 "_ZNSaIN5Catch3PtrINS_22CumulativeReporterBase4NodeINS_14TestGroupStatsENS2_INS_13TestCaseStatsENS1_11SectionNodeEEEEEEEEC2Ev"
 "_ZNSaIN5Catch3PtrINS_22CumulativeReporterBase4NodeINS_14TestGroupStatsENS2_INS_13TestCaseStatsENS1_11SectionNodeEEEEEEEED2Ev"
 "_ZNSaIN5Catch3PtrINS_8TestSpec7PatternEEEEC1ERKS4_"
 "_ZNSaIN5Catch3PtrINS_8TestSpec7PatternEEEEC2ERKS4_"
 "_ZNSaIN5Catch3PtrINS_8TestSpec7PatternEEEEC2Ev"
 "_ZNSaIN5Catch3PtrINS_8TestSpec7PatternEEEED1Ev"
 "_ZNSaIN5Catch3PtrINS_8TestSpec7PatternEEEED2Ev"
 "_ZNSaIN5Catch5Clara11CommandLineINS_10ConfigDataEE3ArgEEC2Ev"
 "_ZNSaIN5Catch5Clara11CommandLineINS_10ConfigDataEE3ArgEED2Ev"
 "_ZNSaIN5Catch5Clara6Parser5TokenEEC1ERKS3_"
 "_ZNSaIN5Catch5Clara6Parser5TokenEEC2ERKS3_"
 "_ZNSaIN5Catch5Clara6Parser5TokenEEC2Ev"
 "_ZNSaIN5Catch5Clara6Parser5TokenEED1Ev"
 "_ZNSaIN5Catch5Clara6Parser5TokenEED2Ev"
 "_ZNSaIN5Catch8TestCaseEEC1ERKS1_"
 "_ZNSaIN5Catch8TestCaseEEC2ERKS1_"
 "_ZNSaIN5Catch8TestCaseEEC2Ev"
 "_ZNSaIN5Catch8TestCaseEED1Ev"
 "_ZNSaIN5Catch8TestCaseEED2Ev"
 "_ZNSaIN5Catch8TestSpec6FilterEEC1ERKS2_"
 "_ZNSaIN5Catch8TestSpec6FilterEEC2ERKS2_"
 "_ZNSaIN5Catch8TestSpec6FilterEEC2Ev"
 "_ZNSaIN5Catch8TestSpec6FilterEED1Ev"
 "_ZNSaIN5Catch8TestSpec6FilterEED2Ev"
 "_ZNSaINSt7__cxx1112basic_stringIcSt11char_traitsIcESaIcEEEEC1ERKS5_"
 "_ZNSaINSt7__cxx1112basic_stringIcSt11char_traitsIcESaIcEEEEC1Ev"
 "_ZNSaINSt7__cxx1112basic_stringIcSt11char_traitsIcESaIcEEEEC2ERKS5_"
 "_ZNSaINSt7__cxx1112basic_stringIcSt11char_traitsIcESaIcEEEEC2Ev"
 "_ZNSaINSt7__cxx1112basic_stringIcSt11char_traitsIcESaIcEEEED1Ev"
 "_ZNSaINSt7__cxx1112basic_stringIcSt11char_traitsIcESaIcEEEED2Ev"
 "_ZNSaIPKN5Catch20IExceptionTranslatorEEC2Ev"
 "_ZNSaIPKN5Catch20IExceptionTranslatorEED2Ev"
 "_ZNSaIPKN5Catch8Matchers4Impl11MatcherBaseINSt7__cxx1112basic_stringIcSt11char_traitsIcESaIcEEES8_EEEC2Ev"
 "_ZNSaIPKN5Catch8Matchers4Impl11MatcherBaseINSt7__cxx1112basic_stringIcSt11char_traitsIcESaIcEEES8_EEED2Ev"
 "_ZNSaIPN5Catch14IGeneratorInfoEEC2Ev"
 "_ZNSaIPN5Catch14IGeneratorInfoEED2Ev"
 "_ZNSaIPN5Catch16TestCaseTracking8ITrackerEEC2Ev"
 "_ZNSaIPN5Catch16TestCaseTracking8ITrackerEED2Ev"
 "_ZNSaISt13_Rb_tree_nodeIN5Catch8TestCaseEEEC2Ev"
 "_ZNSaISt13_Rb_tree_nodeIN5Catch8TestCaseEEED2Ev"
 "_ZNSaISt13_Rb_tree_nodeINSt7__cxx1112basic_stringIcSt11char_traitsIcESaIcEEEEEC1ERKS7_"
 "_ZNSaISt13_Rb_tree_nodeINSt7__cxx1112basic_stringIcSt11char_traitsIcESaIcEEEEEC2ERKS7_"
 "_ZNSaISt13_Rb_tree_nodeINSt7__cxx1112basic_stringIcSt11char_traitsIcESaIcEEEEEC2Ev"
 "_ZNSaISt13_Rb_tree_nodeINSt7__cxx1112basic_stringIcSt11char_traitsIcESaIcEEEEED2Ev"
 "_ZNSaISt13_Rb_tree_nodeISt4pairIKiN5Catch5Clara11CommandLineINS2_10ConfigDataEE3ArgEEEEC2Ev"
 "_ZNSaISt13_Rb_tree_nodeISt4pairIKiN5Catch5Clara11CommandLineINS2_10ConfigDataEE3ArgEEEED2Ev"
 "_ZNSaISt13_Rb_tree_nodeISt4pairIKNSt7__cxx1112basic_stringIcSt11char_traitsIcESaIcEEEN5Catch3PtrINS8_16IReporterFactoryEEEEEEC2Ev"
 "_ZNSaISt13_Rb_tree_nodeISt4pairIKNSt7__cxx1112basic_stringIcSt11char_traitsIcESaIcEEEN5Catch3PtrINS8_16IReporterFactoryEEEEEED2Ev"
 "_ZNSaISt13_Rb_tree_nodeISt4pairIKNSt7__cxx1112basic_stringIcSt11char_traitsIcESaIcEEEN5Catch7TagInfoEEEEC2Ev"
 "_ZNSaISt13_Rb_tree_nodeISt4pairIKNSt7__cxx1112basic_stringIcSt11char_traitsIcESaIcEEEN5Catch7TagInfoEEEED2Ev"
 "_ZNSaISt13_Rb_tree_nodeISt4pairIKNSt7__cxx1112basic_stringIcSt11char_traitsIcESaIcEEEN5Catch8TagAliasEEEEC2Ev"
 "_ZNSaISt13_Rb_tree_nodeISt4pairIKNSt7__cxx1112basic_stringIcSt11char_traitsIcESaIcEEEN5Catch8TagAliasEEEED2Ev"
 "_ZNSaISt13_Rb_tree_nodeISt4pairIKNSt7__cxx1112basic_stringIcSt11char_traitsIcESaIcEEEPN5Catch14IGeneratorInfoEEEEC2Ev"
 "_ZNSaISt13_Rb_tree_nodeISt4pairIKNSt7__cxx1112basic_stringIcSt11char_traitsIcESaIcEEEPN5Catch14IGeneratorInfoEEEED2Ev"
 "_ZNSaISt13_Rb_tree_nodeISt4pairIKNSt7__cxx1112basic_stringIcSt11char_traitsIcESaIcEEEPN5Catch18IGeneratorsForTestEEEEC2Ev"
 "_ZNSaISt13_Rb_tree_nodeISt4pairIKNSt7__cxx1112basic_stringIcSt11char_traitsIcESaIcEEEPN5Catch18IGeneratorsForTestEEEED2Ev"
 "_ZNSaISt6vectorIN5Catch3PtrINS0_22CumulativeReporterBase11SectionNodeEEESaIS4_EEEC2Ev"
 "_ZNSaISt6vectorIN5Catch3PtrINS0_22CumulativeReporterBase11SectionNodeEEESaIS4_EEED2Ev"
 "_ZNSaIyEC2Ev"
 "_ZNSaIyED2Ev"
 "_ZNSt10_Head_baseILy0EPKN5Catch7IStreamELb0EE7_M_headERKS4_"
 "_ZNSt10_Head_baseILy0EPKN5Catch7IStreamELb0EE7_M_headERS4_"
 "_ZNSt10_Head_baseILy0EPKN5Catch7IStreamELb0EEC2Ev"
 "_ZNSt10_Head_baseILy0EPN5Catch13StreamBufBaseELb0EE7_M_headERKS3_"
 "_ZNSt10_Head_baseILy0EPN5Catch13StreamBufBaseELb0EE7_M_headERS3_"
 "_ZNSt10_Head_baseILy0EPN5Catch13StreamBufBaseELb0EEC2Ev"
 "_ZNSt10_Head_baseILy0EPN5Catch5Clara11CommandLineINS0_10ConfigDataEE3ArgELb0EE7_M_headERKS7_"
 "_ZNSt10_Head_baseILy0EPN5Catch5Clara11CommandLineINS0_10ConfigDataEE3ArgELb0EE7_M_headERS7_"
 "_ZNSt10_Head_baseILy0EPN5Catch5Clara11CommandLineINS0_10ConfigDataEE3ArgELb0EEC2Ev"
 "_ZNSt10_Head_baseILy1ESt14default_deleteIKN5Catch7IStreamEELb1EE7_M_headERS5_"
 "_ZNSt10_Head_baseILy1ESt14default_deleteIKN5Catch7IStreamEELb1EEC2Ev"
 "_ZNSt10_Head_baseILy1ESt14default_deleteIN5Catch13StreamBufBaseEELb1EE7_M_headERS4_"
 "_ZNSt10_Head_baseILy1ESt14default_deleteIN5Catch13StreamBufBaseEELb1EEC2Ev"
 "_ZNSt10_Head_baseILy1ESt14default_deleteIN5Catch5Clara11CommandLineINS1_10ConfigDataEE3ArgEELb1EE7_M_headERS8_"
 "_ZNSt10_Head_baseILy1ESt14default_deleteIN5Catch5Clara11CommandLineINS1_10ConfigDataEE3ArgEELb1EEC2Ev"
 "_ZNSt10unique_ptrIKN5Catch7IStreamESt14default_deleteIS2_EE11get_deleterEv"
 "_ZNSt10unique_ptrIKN5Catch7IStreamESt14default_deleteIS2_EEC1IS4_vEEPS2_"
 "_ZNSt10unique_ptrIKN5Catch7IStreamESt14default_deleteIS2_EED1Ev"
 "_ZNSt10unique_ptrIN5Catch13StreamBufBaseESt14default_deleteIS1_EE11get_deleterEv"
 "_ZNSt10unique_ptrIN5Catch13StreamBufBaseESt14default_deleteIS1_EEC1IS3_vEEPS1_"
 "_ZNSt10unique_ptrIN5Catch13StreamBufBaseESt14default_deleteIS1_EED1Ev"
 "_ZNSt10unique_ptrIN5Catch5Clara11CommandLineINS0_10ConfigDataEE3ArgESt14default_deleteIS5_EE11get_deleterEv"
 "_ZNSt10unique_ptrIN5Catch5Clara11CommandLineINS0_10ConfigDataEE3ArgESt14default_deleteIS5_EE5resetEPS5_"
 "_ZNSt10unique_ptrIN5Catch5Clara11CommandLineINS0_10ConfigDataEE3ArgESt14default_deleteIS5_EEC1IS7_vEEv"
 "_ZNSt10unique_ptrIN5Catch5Clara11CommandLineINS0_10ConfigDataEE3ArgESt14default_deleteIS5_EED1Ev"
 "_ZNSt11__copy_moveILb0ELb0ESt26random_access_iterator_tagE8__copy_mIPKNSt7__cxx1112basic_stringIcSt11char_traitsIcESaIcEEEPS8_EET0_T_SD_SC_"
 "_ZNSt11__copy_moveILb1ELb0ESt26random_access_iterator_tagE8__copy_mIPN5Catch11MessageInfoES5_EET0_T_S7_S6_"
 "_ZNSt11__copy_moveILb1ELb1ESt26random_access_iterator_tagE8__copy_mIPKN5Catch20IExceptionTranslatorEEEPT_PKS7_SA_S8_"
 "_ZNSt11__copy_moveILb1ELb1ESt26random_access_iterator_tagE8__copy_mIPN5Catch14IGeneratorInfoEEEPT_PKS6_S9_S7_"
 "_ZNSt11__copy_moveILb1ELb1ESt26random_access_iterator_tagE8__copy_mIPN5Catch16TestCaseTracking8ITrackerEEEPT_PKS7_SA_S8_"
 "_ZNSt11__copy_moveILb1ELb1ESt26random_access_iterator_tagE8__copy_mIyEEPT_PKS3_S6_S4_"
 "_ZNSt11_Tuple_implILy0EJPKN5Catch7IStreamESt14default_deleteIS2_EEE7_M_headERKS6_"
 "_ZNSt11_Tuple_implILy0EJPKN5Catch7IStreamESt14default_deleteIS2_EEE7_M_headERS6_"
 "_ZNSt11_Tuple_implILy0EJPKN5Catch7IStreamESt14default_deleteIS2_EEEC2Ev"
 "_ZNSt11_Tuple_implILy0EJPN5Catch13StreamBufBaseESt14default_deleteIS1_EEE7_M_headERKS5_"
 "_ZNSt11_Tuple_implILy0EJPN5Catch13StreamBufBaseESt14default_deleteIS1_EEE7_M_headERS5_"
 "_ZNSt11_Tuple_implILy0EJPN5Catch13StreamBufBaseESt14default_deleteIS1_EEEC2Ev"
 "_ZNSt11_Tuple_implILy0EJPN5Catch5Clara11CommandLineINS0_10ConfigDataEE3ArgESt14default_deleteIS5_EEE7_M_headERKS9_"
 "_ZNSt11_Tuple_implILy0EJPN5Catch5Clara11CommandLineINS0_10ConfigDataEE3ArgESt14default_deleteIS5_EEE7_M_headERS9_"
 "_ZNSt11_Tuple_implILy0EJPN5Catch5Clara11CommandLineINS0_10ConfigDataEE3ArgESt14default_deleteIS5_EEEC2Ev"
 "_ZNSt11_Tuple_implILy1EJSt14default_deleteIKN5Catch7IStreamEEEE7_M_headERS5_"
 "_ZNSt11_Tuple_implILy1EJSt14default_deleteIKN5Catch7IStreamEEEEC2Ev"
 "_ZNSt11_Tuple_implILy1EJSt14default_deleteIN5Catch13StreamBufBaseEEEE7_M_headERS4_"
 "_ZNSt11_Tuple_implILy1EJSt14default_deleteIN5Catch13StreamBufBaseEEEEC2Ev"
 "_ZNSt11_Tuple_implILy1EJSt14default_deleteIN5Catch5Clara11CommandLineINS1_10ConfigDataEE3ArgEEEE7_M_headERS8_"
 "_ZNSt11_Tuple_implILy1EJSt14default_deleteIN5Catch5Clara11CommandLineINS1_10ConfigDataEE3ArgEEEEC2Ev"
 "_ZNSt11char_traitsIcE6lengthEPKc"
 "_ZNSt11char_traitsIcE7compareEPKcS2_y"
 "_ZNSt12_Destroy_auxILb0EE9__destroyIPN5Catch11MessageInfoEEEvT_S5_"
 "_ZNSt12_Destroy_auxILb0EE9__destroyIPN5Catch11SectionInfoEEEvT_S5_"
 "_ZNSt12_Destroy_auxILb0EE9__destroyIPN5Catch14AssertionStatsEEEvT_S5_"
 "_ZNSt12_Destroy_auxILb0EE9__destroyIPN5Catch14SectionEndInfoEEEvT_S5_"
 "_ZNSt12_Destroy_auxILb0EE9__destroyIPN5Catch15ConsoleReporter13SummaryColumnEEEvT_S6_"
 "_ZNSt12_Destroy_auxILb0EE9__destroyIPN5Catch3PtrINS2_16IReporterFactoryEEEEEvT_S7_"
 "_ZNSt12_Destroy_auxILb0EE9__destroyIPN5Catch3PtrINS2_16TestCaseTracking8ITrackerEEEEEvT_S8_"
 "_ZNSt12_Destroy_auxILb0EE9__destroyIPN5Catch3PtrINS2_18IStreamingReporterEEEEEvT_S7_"
 "_ZNSt12_Destroy_auxILb0EE9__destroyIPN5Catch3PtrINS2_22CumulativeReporterBase11SectionNodeEEEEEvT_S8_"
 "_ZNSt12_Destroy_auxILb0EE9__destroyIPN5Catch3PtrINS2_22CumulativeReporterBase4NodeINS2_12TestRunStatsENS5_INS2_14TestGroupStatsENS5_INS2_13TestCaseStatsENS4_11SectionNodeEEEEEEEEEEEvT_SF_"
 "_ZNSt12_Destroy_auxILb0EE9__destroyIPN5Catch3PtrINS2_22CumulativeReporterBase4NodeINS2_13TestCaseStatsENS4_11SectionNodeEEEEEEEvT_SB_"
 "_ZNSt12_Destroy_auxILb0EE9__destroyIPN5Catch3PtrINS2_22CumulativeReporterBase4NodeINS2_14TestGroupStatsENS5_INS2_13TestCaseStatsENS4_11SectionNodeEEEEEEEEEvT_SD_"
 "_ZNSt12_Destroy_auxILb0EE9__destroyIPN5Catch3PtrINS2_8TestSpec7PatternEEEEEvT_S8_"
 "_ZNSt12_Destroy_auxILb0EE9__destroyIPN5Catch5Clara11CommandLineINS2_10ConfigDataEE3ArgEEEvT_S9_"
 "_ZNSt12_Destroy_auxILb0EE9__destroyIPN5Catch5Clara6Parser5TokenEEEvT_S7_"
 "_ZNSt12_Destroy_auxILb0EE9__destroyIPN5Catch8TestCaseEEEvT_S5_"
 "_ZNSt12_Destroy_auxILb0EE9__destroyIPN5Catch8TestSpec6FilterEEEvT_S6_"
 "_ZNSt12_Destroy_auxILb0EE9__destroyIPNSt7__cxx1112basic_stringIcSt11char_traitsIcESaIcEEEEEvT_S9_"
 "_ZNSt12_Destroy_auxILb0EE9__destroyIPSt6vectorIN5Catch3PtrINS3_22CumulativeReporterBase11SectionNodeEEESaIS7_EEEEvT_SB_"
 "_ZNSt12_Destroy_auxILb1EE9__destroyIPPKN5Catch20IExceptionTranslatorEEEvT_S7_"
 "_ZNSt12_Destroy_auxILb1EE9__destroyIPPKN5Catch8Matchers4Impl11MatcherBaseINSt7__cxx1112basic_stringIcSt11char_traitsIcESaIcEEESB_EEEEvT_SG_"
 "_ZNSt12_Destroy_auxILb1EE9__destroyIPPN5Catch14IGeneratorInfoEEEvT_S6_"
 "_ZNSt12_Destroy_auxILb1EE9__destroyIPPN5Catch16TestCaseTracking8ITrackerEEEvT_S7_"
 "_ZNSt12_Destroy_auxILb1EE9__destroyIPyEEvT_S3_"
 "_ZNSt12_Vector_baseIN5Catch11MessageInfoESaIS1_EE11_M_allocateEy"
 "_ZNSt12_Vector_baseIN5Catch11MessageInfoESaIS1_EE12_Vector_implC1EOS4_"
 "_ZNSt12_Vector_baseIN5Catch11MessageInfoESaIS1_EE12_Vector_implC1ERKS2_"
 "_ZNSt12_Vector_baseIN5Catch11MessageInfoESaIS1_EE12_Vector_implC1Ev"
 "_ZNSt12_Vector_baseIN5Catch11MessageInfoESaIS1_EE12_Vector_implD1Ev"
 "_ZNSt12_Vector_baseIN5Catch11MessageInfoESaIS1_EE13_M_deallocateEPS1_y"
 "_ZNSt12_Vector_baseIN5Catch11MessageInfoESaIS1_EE17_M_create_storageEy"
 "_ZNSt12_Vector_baseIN5Catch11MessageInfoESaIS1_EE17_Vector_impl_dataC2EOS4_"
 "_ZNSt12_Vector_baseIN5Catch11MessageInfoESaIS1_EE17_Vector_impl_dataC2Ev"
 "_ZNSt12_Vector_baseIN5Catch11MessageInfoESaIS1_EE19_M_get_Tp_allocatorEv"
 "_ZNSt12_Vector_baseIN5Catch11MessageInfoESaIS1_EEC2EOS3_"
 "_ZNSt12_Vector_baseIN5Catch11MessageInfoESaIS1_EEC2Ev"
 "_ZNSt12_Vector_baseIN5Catch11MessageInfoESaIS1_EEC2EyRKS2_"
 "_ZNSt12_Vector_baseIN5Catch11MessageInfoESaIS1_EED2Ev"
 "_ZNSt12_Vector_baseIN5Catch11SectionInfoESaIS1_EE11_M_allocateEy"
 "_ZNSt12_Vector_baseIN5Catch11SectionInfoESaIS1_EE12_Vector_implC1Ev"
 "_ZNSt12_Vector_baseIN5Catch11SectionInfoESaIS1_EE12_Vector_implD1Ev"
 "_ZNSt12_Vector_baseIN5Catch11SectionInfoESaIS1_EE13_M_deallocateEPS1_y"
 "_ZNSt12_Vector_baseIN5Catch11SectionInfoESaIS1_EE17_Vector_impl_dataC2Ev"
 "_ZNSt12_Vector_baseIN5Catch11SectionInfoESaIS1_EE19_M_get_Tp_allocatorEv"
 "_ZNSt12_Vector_baseIN5Catch11SectionInfoESaIS1_EEC2Ev"
 "_ZNSt12_Vector_baseIN5Catch11SectionInfoESaIS1_EED2Ev"
 "_ZNSt12_Vector_baseIN5Catch14AssertionStatsESaIS1_EE11_M_allocateEy"
 "_ZNSt12_Vector_baseIN5Catch14AssertionStatsESaIS1_EE12_Vector_implC1Ev"
 "_ZNSt12_Vector_baseIN5Catch14AssertionStatsESaIS1_EE12_Vector_implD1Ev"
 "_ZNSt12_Vector_baseIN5Catch14AssertionStatsESaIS1_EE13_M_deallocateEPS1_y"
 "_ZNSt12_Vector_baseIN5Catch14AssertionStatsESaIS1_EE17_Vector_impl_dataC2Ev"
 "_ZNSt12_Vector_baseIN5Catch14AssertionStatsESaIS1_EE19_M_get_Tp_allocatorEv"
 "_ZNSt12_Vector_baseIN5Catch14AssertionStatsESaIS1_EEC2Ev"
 "_ZNSt12_Vector_baseIN5Catch14AssertionStatsESaIS1_EED2Ev"
 "_ZNSt12_Vector_baseIN5Catch14SectionEndInfoESaIS1_EE11_M_allocateEy"
 "_ZNSt12_Vector_baseIN5Catch14SectionEndInfoESaIS1_EE12_Vector_implC1Ev"
 "_ZNSt12_Vector_baseIN5Catch14SectionEndInfoESaIS1_EE12_Vector_implD1Ev"
 "_ZNSt12_Vector_baseIN5Catch14SectionEndInfoESaIS1_EE13_M_deallocateEPS1_y"
 "_ZNSt12_Vector_baseIN5Catch14SectionEndInfoESaIS1_EE17_Vector_impl_dataC2Ev"
 "_ZNSt12_Vector_baseIN5Catch14SectionEndInfoESaIS1_EE19_M_get_Tp_allocatorEv"
 "_ZNSt12_Vector_baseIN5Catch14SectionEndInfoESaIS1_EEC2Ev"
 "_ZNSt12_Vector_baseIN5Catch14SectionEndInfoESaIS1_EED2Ev"
 "_ZNSt12_Vector_baseIN5Catch15ConsoleReporter13SummaryColumnESaIS2_EE11_M_allocateEy"
 "_ZNSt12_Vector_baseIN5Catch15ConsoleReporter13SummaryColumnESaIS2_EE12_Vector_implC1Ev"
 "_ZNSt12_Vector_baseIN5Catch15ConsoleReporter13SummaryColumnESaIS2_EE12_Vector_implD1Ev"
 "_ZNSt12_Vector_baseIN5Catch15ConsoleReporter13SummaryColumnESaIS2_EE13_M_deallocateEPS2_y"
 "_ZNSt12_Vector_baseIN5Catch15ConsoleReporter13SummaryColumnESaIS2_EE17_Vector_impl_dataC2Ev"
 "_ZNSt12_Vector_baseIN5Catch15ConsoleReporter13SummaryColumnESaIS2_EE19_M_get_Tp_allocatorEv"
 "_ZNSt12_Vector_baseIN5Catch15ConsoleReporter13SummaryColumnESaIS2_EEC2Ev"
 "_ZNSt12_Vector_baseIN5Catch15ConsoleReporter13SummaryColumnESaIS2_EED2Ev"
 "_ZNSt12_Vector_baseIN5Catch3PtrINS0_16IReporterFactoryEEESaIS3_EE11_M_allocateEy"
 "_ZNSt12_Vector_baseIN5Catch3PtrINS0_16IReporterFactoryEEESaIS3_EE12_Vector_implC1ERKS4_"
 "_ZNSt12_Vector_baseIN5Catch3PtrINS0_16IReporterFactoryEEESaIS3_EE12_Vector_implC1Ev"
 "_ZNSt12_Vector_baseIN5Catch3PtrINS0_16IReporterFactoryEEESaIS3_EE12_Vector_implD1Ev"
 "_ZNSt12_Vector_baseIN5Catch3PtrINS0_16IReporterFactoryEEESaIS3_EE13_M_deallocateEPS3_y"
 "_ZNSt12_Vector_baseIN5Catch3PtrINS0_16IReporterFactoryEEESaIS3_EE17_M_create_storageEy"
 "_ZNSt12_Vector_baseIN5Catch3PtrINS0_16IReporterFactoryEEESaIS3_EE17_Vector_impl_dataC2Ev"
 "_ZNSt12_Vector_baseIN5Catch3PtrINS0_16IReporterFactoryEEESaIS3_EE19_M_get_Tp_allocatorEv"
 "_ZNSt12_Vector_baseIN5Catch3PtrINS0_16IReporterFactoryEEESaIS3_EEC2Ev"
 "_ZNSt12_Vector_baseIN5Catch3PtrINS0_16IReporterFactoryEEESaIS3_EEC2EyRKS4_"
 "_ZNSt12_Vector_baseIN5Catch3PtrINS0_16IReporterFactoryEEESaIS3_EED2Ev"
 "_ZNSt12_Vector_baseIN5Catch3PtrINS0_16TestCaseTracking8ITrackerEEESaIS4_EE11_M_allocateEy"
 "_ZNSt12_Vector_baseIN5Catch3PtrINS0_16TestCaseTracking8ITrackerEEESaIS4_EE12_Vector_implC1Ev"
 "_ZNSt12_Vector_baseIN5Catch3PtrINS0_16TestCaseTracking8ITrackerEEESaIS4_EE12_Vector_implD1Ev"
 "_ZNSt12_Vector_baseIN5Catch3PtrINS0_16TestCaseTracking8ITrackerEEESaIS4_EE13_M_deallocateEPS4_y"
 "_ZNSt12_Vector_baseIN5Catch3PtrINS0_16TestCaseTracking8ITrackerEEESaIS4_EE17_Vector_impl_dataC2Ev"
 "_ZNSt12_Vector_baseIN5Catch3PtrINS0_16TestCaseTracking8ITrackerEEESaIS4_EE19_M_get_Tp_allocatorEv"
 "_ZNSt12_Vector_baseIN5Catch3PtrINS0_16TestCaseTracking8ITrackerEEESaIS4_EEC2Ev"
 "_ZNSt12_Vector_baseIN5Catch3PtrINS0_16TestCaseTracking8ITrackerEEESaIS4_EED2Ev"
 "_ZNSt12_Vector_baseIN5Catch3PtrINS0_18IStreamingReporterEEESaIS3_EE11_M_allocateEy"
 "_ZNSt12_Vector_baseIN5Catch3PtrINS0_18IStreamingReporterEEESaIS3_EE12_Vector_implC1Ev"
 "_ZNSt12_Vector_baseIN5Catch3PtrINS0_18IStreamingReporterEEESaIS3_EE12_Vector_implD1Ev"
 "_ZNSt12_Vector_baseIN5Catch3PtrINS0_18IStreamingReporterEEESaIS3_EE13_M_deallocateEPS3_y"
 "_ZNSt12_Vector_baseIN5Catch3PtrINS0_18IStreamingReporterEEESaIS3_EE17_Vector_impl_dataC2Ev"
 "_ZNSt12_Vector_baseIN5Catch3PtrINS0_18IStreamingReporterEEESaIS3_EE19_M_get_Tp_allocatorEv"
 "_ZNSt12_Vector_baseIN5Catch3PtrINS0_18IStreamingReporterEEESaIS3_EEC2Ev"
 "_ZNSt12_Vector_baseIN5Catch3PtrINS0_18IStreamingReporterEEESaIS3_EED2Ev"
 "_ZNSt12_Vector_baseIN5Catch3PtrINS0_22CumulativeReporterBase11SectionNodeEEESaIS4_EE11_M_allocateEy"
 "_ZNSt12_Vector_baseIN5Catch3PtrINS0_22CumulativeReporterBase11SectionNodeEEESaIS4_EE12_Vector_implC1Ev"
 "_ZNSt12_Vector_baseIN5Catch3PtrINS0_22CumulativeReporterBase11SectionNodeEEESaIS4_EE12_Vector_implD1Ev"
 "_ZNSt12_Vector_baseIN5Catch3PtrINS0_22CumulativeReporterBase11SectionNodeEEESaIS4_EE13_M_deallocateEPS4_y"
 "_ZNSt12_Vector_baseIN5Catch3PtrINS0_22CumulativeReporterBase11SectionNodeEEESaIS4_EE17_Vector_impl_dataC2Ev"
 "_ZNSt12_Vector_baseIN5Catch3PtrINS0_22CumulativeReporterBase11SectionNodeEEESaIS4_EE19_M_get_Tp_allocatorEv"
 "_ZNSt12_Vector_baseIN5Catch3PtrINS0_22CumulativeReporterBase11SectionNodeEEESaIS4_EEC2Ev"
 "_ZNSt12_Vector_baseIN5Catch3PtrINS0_22CumulativeReporterBase11SectionNodeEEESaIS4_EED2Ev"
 "_ZNSt12_Vector_baseIN5Catch3PtrINS0_22CumulativeReporterBase4NodeINS0_12TestRunStatsENS3_INS0_14TestGroupStatsENS3_INS0_13TestCaseStatsENS2_11SectionNodeEEEEEEEEESaISB_EE11_M_allocateEy"
 "_ZNSt12_Vector_baseIN5Catch3PtrINS0_22CumulativeReporterBase4NodeINS0_12TestRunStatsENS3_INS0_14TestGroupStatsENS3_INS0_13TestCaseStatsENS2_11SectionNodeEEEEEEEEESaISB_EE12_Vector_implC1Ev"
 "_ZNSt12_Vector_baseIN5Catch3PtrINS0_22CumulativeReporterBase4NodeINS0_12TestRunStatsENS3_INS0_14TestGroupStatsENS3_INS0_13TestCaseStatsENS2_11SectionNodeEEEEEEEEESaISB_EE12_Vector_implD1Ev"
 "_ZNSt12_Vector_baseIN5Catch3PtrINS0_22CumulativeReporterBase4NodeINS0_12TestRunStatsENS3_INS0_14TestGroupStatsENS3_INS0_13TestCaseStatsENS2_11SectionNodeEEEEEEEEESaISB_EE13_M_deallocateEPSB_y"
 "_ZNSt12_Vector_baseIN5Catch3PtrINS0_22CumulativeReporterBase4NodeINS0_12TestRunStatsENS3_INS0_14TestGroupStatsENS3_INS0_13TestCaseStatsENS2_11SectionNodeEEEEEEEEESaISB_EE17_Vector_impl_dataC2Ev"
 "_ZNSt12_Vector_baseIN5Catch3PtrINS0_22CumulativeReporterBase4NodeINS0_12TestRunStatsENS3_INS0_14TestGroupStatsENS3_INS0_13TestCaseStatsENS2_11SectionNodeEEEEEEEEESaISB_EE19_M_get_Tp_allocatorEv"
 "_ZNSt12_Vector_baseIN5Catch3PtrINS0_22CumulativeReporterBase4NodeINS0_12TestRunStatsENS3_INS0_14TestGroupStatsENS3_INS0_13TestCaseStatsENS2_11SectionNodeEEEEEEEEESaISB_EEC2Ev"
 "_ZNSt12_Vector_baseIN5Catch3PtrINS0_22CumulativeReporterBase4NodeINS0_12TestRunStatsENS3_INS0_14TestGroupStatsENS3_INS0_13TestCaseStatsENS2_11SectionNodeEEEEEEEEESaISB_EED2Ev"
 "_ZNSt12_Vector_baseIN5Catch3PtrINS0_22CumulativeReporterBase4NodeINS0_13TestCaseStatsENS2_11SectionNodeEEEEESaIS7_EE11_M_allocateEy"
 "_ZNSt12_Vector_baseIN5Catch3PtrINS0_22CumulativeReporterBase4NodeINS0_13TestCaseStatsENS2_11SectionNodeEEEEESaIS7_EE12_Vector_implC1Ev"
 "_ZNSt12_Vector_baseIN5Catch3PtrINS0_22CumulativeReporterBase4NodeINS0_13TestCaseStatsENS2_11SectionNodeEEEEESaIS7_EE12_Vector_implD1Ev"
 "_ZNSt12_Vector_baseIN5Catch3PtrINS0_22CumulativeReporterBase4NodeINS0_13TestCaseStatsENS2_11SectionNodeEEEEESaIS7_EE13_M_deallocateEPS7_y"
 "_ZNSt12_Vector_baseIN5Catch3PtrINS0_22CumulativeReporterBase4NodeINS0_13TestCaseStatsENS2_11SectionNodeEEEEESaIS7_EE17_Vector_impl_data12_M_copy_dataERKSA_"
 "_ZNSt12_Vector_baseIN5Catch3PtrINS0_22CumulativeReporterBase4NodeINS0_13TestCaseStatsENS2_11SectionNodeEEEEESaIS7_EE17_Vector_impl_data12_M_swap_dataERSA_"
 "_ZNSt12_Vector_baseIN5Catch3PtrINS0_22CumulativeReporterBase4NodeINS0_13TestCaseStatsENS2_11SectionNodeEEEEESaIS7_EE17_Vector_impl_dataC1Ev"
 "_ZNSt12_Vector_baseIN5Catch3PtrINS0_22CumulativeReporterBase4NodeINS0_13TestCaseStatsENS2_11SectionNodeEEEEESaIS7_EE17_Vector_impl_dataC2Ev"
 "_ZNSt12_Vector_baseIN5Catch3PtrINS0_22CumulativeReporterBase4NodeINS0_13TestCaseStatsENS2_11SectionNodeEEEEESaIS7_EE19_M_get_Tp_allocatorEv"
 "_ZNSt12_Vector_baseIN5Catch3PtrINS0_22CumulativeReporterBase4NodeINS0_13TestCaseStatsENS2_11SectionNodeEEEEESaIS7_EEC2Ev"
 "_ZNSt12_Vector_baseIN5Catch3PtrINS0_22CumulativeReporterBase4NodeINS0_13TestCaseStatsENS2_11SectionNodeEEEEESaIS7_EED2Ev"
 "_ZNSt12_Vector_baseIN5Catch3PtrINS0_22CumulativeReporterBase4NodeINS0_14TestGroupStatsENS3_INS0_13TestCaseStatsENS2_11SectionNodeEEEEEEESaIS9_EE11_M_allocateEy"
 "_ZNSt12_Vector_baseIN5Catch3PtrINS0_22CumulativeReporterBase4NodeINS0_14TestGroupStatsENS3_INS0_13TestCaseStatsENS2_11SectionNodeEEEEEEESaIS9_EE12_Vector_implC1Ev"
 "_ZNSt12_Vector_baseIN5Catch3PtrINS0_22CumulativeReporterBase4NodeINS0_14TestGroupStatsENS3_INS0_13TestCaseStatsENS2_11SectionNodeEEEEEEESaIS9_EE12_Vector_implD1Ev"
 "_ZNSt12_Vector_baseIN5Catch3PtrINS0_22CumulativeReporterBase4NodeINS0_14TestGroupStatsENS3_INS0_13TestCaseStatsENS2_11SectionNodeEEEEEEESaIS9_EE13_M_deallocateEPS9_y"
 "_ZNSt12_Vector_baseIN5Catch3PtrINS0_22CumulativeReporterBase4NodeINS0_14TestGroupStatsENS3_INS0_13TestCaseStatsENS2_11SectionNodeEEEEEEESaIS9_EE17_Vector_impl_data12_M_copy_dataERKSC_"
 "_ZNSt12_Vector_baseIN5Catch3PtrINS0_22CumulativeReporterBase4NodeINS0_14TestGroupStatsENS3_INS0_13TestCaseStatsENS2_11SectionNodeEEEEEEESaIS9_EE17_Vector_impl_data12_M_swap_dataERSC_"
 "_ZNSt12_Vector_baseIN5Catch3PtrINS0_22CumulativeReporterBase4NodeINS0_14TestGroupStatsENS3_INS0_13TestCaseStatsENS2_11SectionNodeEEEEEEESaIS9_EE17_Vector_impl_dataC1Ev"
 "_ZNSt12_Vector_baseIN5Catch3PtrINS0_22CumulativeReporterBase4NodeINS0_14TestGroupStatsENS3_INS0_13TestCaseStatsENS2_11SectionNodeEEEEEEESaIS9_EE17_Vector_impl_dataC2Ev"
 "_ZNSt12_Vector_baseIN5Catch3PtrINS0_22CumulativeReporterBase4NodeINS0_14TestGroupStatsENS3_INS0_13TestCaseStatsENS2_11SectionNodeEEEEEEESaIS9_EE19_M_get_Tp_allocatorEv"
 "_ZNSt12_Vector_baseIN5Catch3PtrINS0_22CumulativeReporterBase4NodeINS0_14TestGroupStatsENS3_INS0_13TestCaseStatsENS2_11SectionNodeEEEEEEESaIS9_EEC2Ev"
 "_ZNSt12_Vector_baseIN5Catch3PtrINS0_22CumulativeReporterBase4NodeINS0_14TestGroupStatsENS3_INS0_13TestCaseStatsENS2_11SectionNodeEEEEEEESaIS9_EED2Ev"
 "_ZNSt12_Vector_baseIN5Catch3PtrINS0_8TestSpec7PatternEEESaIS4_EE11_M_allocateEy"
 "_ZNSt12_Vector_baseIN5Catch3PtrINS0_8TestSpec7PatternEEESaIS4_EE12_Vector_implC1EOS7_"
 "_ZNSt12_Vector_baseIN5Catch3PtrINS0_8TestSpec7PatternEEESaIS4_EE12_Vector_implC1ERKS5_"
 "_ZNSt12_Vector_baseIN5Catch3PtrINS0_8TestSpec7PatternEEESaIS4_EE12_Vector_implC1Ev"
 "_ZNSt12_Vector_baseIN5Catch3PtrINS0_8TestSpec7PatternEEESaIS4_EE12_Vector_implD1Ev"
 "_ZNSt12_Vector_baseIN5Catch3PtrINS0_8TestSpec7PatternEEESaIS4_EE13_M_deallocateEPS4_y"
 "_ZNSt12_Vector_baseIN5Catch3PtrINS0_8TestSpec7PatternEEESaIS4_EE17_M_create_storageEy"
 "_ZNSt12_Vector_baseIN5Catch3PtrINS0_8TestSpec7PatternEEESaIS4_EE17_Vector_impl_data12_M_copy_dataERKS7_"
 "_ZNSt12_Vector_baseIN5Catch3PtrINS0_8TestSpec7PatternEEESaIS4_EE17_Vector_impl_data12_M_swap_dataERS7_"
 "_ZNSt12_Vector_baseIN5Catch3PtrINS0_8TestSpec7PatternEEESaIS4_EE17_Vector_impl_dataC1Ev"
 "_ZNSt12_Vector_baseIN5Catch3PtrINS0_8TestSpec7PatternEEESaIS4_EE17_Vector_impl_dataC2EOS7_"
 "_ZNSt12_Vector_baseIN5Catch3PtrINS0_8TestSpec7PatternEEESaIS4_EE17_Vector_impl_dataC2Ev"
 "_ZNSt12_Vector_baseIN5Catch3PtrINS0_8TestSpec7PatternEEESaIS4_EE19_M_get_Tp_allocatorEv"
 "_ZNSt12_Vector_baseIN5Catch3PtrINS0_8TestSpec7PatternEEESaIS4_EEC2EOS6_"
 "_ZNSt12_Vector_baseIN5Catch3PtrINS0_8TestSpec7PatternEEESaIS4_EEC2ERKS5_"
 "_ZNSt12_Vector_baseIN5Catch3PtrINS0_8TestSpec7PatternEEESaIS4_EEC2Ev"
 "_ZNSt12_Vector_baseIN5Catch3PtrINS0_8TestSpec7PatternEEESaIS4_EEC2EyRKS5_"
 "_ZNSt12_Vector_baseIN5Catch3PtrINS0_8TestSpec7PatternEEESaIS4_EED2Ev"
 "_ZNSt12_Vector_baseIN5Catch5Clara11CommandLineINS0_10ConfigDataEE3ArgESaIS5_EE11_M_allocateEy"
 "_ZNSt12_Vector_baseIN5Catch5Clara11CommandLineINS0_10ConfigDataEE3ArgESaIS5_EE12_Vector_implC1Ev"
 "_ZNSt12_Vector_baseIN5Catch5Clara11CommandLineINS0_10ConfigDataEE3ArgESaIS5_EE12_Vector_implD1Ev"
 "_ZNSt12_Vector_baseIN5Catch5Clara11CommandLineINS0_10ConfigDataEE3ArgESaIS5_EE13_M_deallocateEPS5_y"
 "_ZNSt12_Vector_baseIN5Catch5Clara11CommandLineINS0_10ConfigDataEE3ArgESaIS5_EE17_Vector_impl_dataC2Ev"
 "_ZNSt12_Vector_baseIN5Catch5Clara11CommandLineINS0_10ConfigDataEE3ArgESaIS5_EE19_M_get_Tp_allocatorEv"
 "_ZNSt12_Vector_baseIN5Catch5Clara11CommandLineINS0_10ConfigDataEE3ArgESaIS5_EEC2Ev"
 "_ZNSt12_Vector_baseIN5Catch5Clara11CommandLineINS0_10ConfigDataEE3ArgESaIS5_EED2Ev"
 "_ZNSt12_Vector_baseIN5Catch5Clara6Parser5TokenESaIS3_EE11_M_allocateEy"
 "_ZNSt12_Vector_baseIN5Catch5Clara6Parser5TokenESaIS3_EE12_Vector_implC1EOS6_"
 "_ZNSt12_Vector_baseIN5Catch5Clara6Parser5TokenESaIS3_EE12_Vector_implC1ERKS4_"
 "_ZNSt12_Vector_baseIN5Catch5Clara6Parser5TokenESaIS3_EE12_Vector_implC1Ev"
 "_ZNSt12_Vector_baseIN5Catch5Clara6Parser5TokenESaIS3_EE12_Vector_implD1Ev"
 "_ZNSt12_Vector_baseIN5Catch5Clara6Parser5TokenESaIS3_EE13_M_deallocateEPS3_y"
 "_ZNSt12_Vector_baseIN5Catch5Clara6Parser5TokenESaIS3_EE17_M_create_storageEy"
 "_ZNSt12_Vector_baseIN5Catch5Clara6Parser5TokenESaIS3_EE17_Vector_impl_data12_M_copy_dataERKS6_"
 "_ZNSt12_Vector_baseIN5Catch5Clara6Parser5TokenESaIS3_EE17_Vector_impl_data12_M_swap_dataERS6_"
 "_ZNSt12_Vector_baseIN5Catch5Clara6Parser5TokenESaIS3_EE17_Vector_impl_dataC1Ev"
 "_ZNSt12_Vector_baseIN5Catch5Clara6Parser5TokenESaIS3_EE17_Vector_impl_dataC2EOS6_"
 "_ZNSt12_Vector_baseIN5Catch5Clara6Parser5TokenESaIS3_EE17_Vector_impl_dataC2Ev"
 "_ZNSt12_Vector_baseIN5Catch5Clara6Parser5TokenESaIS3_EE19_M_get_Tp_allocatorEv"
 "_ZNSt12_Vector_baseIN5Catch5Clara6Parser5TokenESaIS3_EEC2EOS5_"
 "_ZNSt12_Vector_baseIN5Catch5Clara6Parser5TokenESaIS3_EEC2ERKS4_"
 "_ZNSt12_Vector_baseIN5Catch5Clara6Parser5TokenESaIS3_EEC2Ev"
 "_ZNSt12_Vector_baseIN5Catch5Clara6Parser5TokenESaIS3_EEC2EyRKS4_"
 "_ZNSt12_Vector_baseIN5Catch5Clara6Parser5TokenESaIS3_EED2Ev"
 "_ZNSt12_Vector_baseIN5Catch8TestCaseESaIS1_EE11_M_allocateEy"
 "_ZNSt12_Vector_baseIN5Catch8TestCaseESaIS1_EE12_Vector_implC1ERKS2_"
 "_ZNSt12_Vector_baseIN5Catch8TestCaseESaIS1_EE12_Vector_implC1Ev"
 "_ZNSt12_Vector_baseIN5Catch8TestCaseESaIS1_EE12_Vector_implD1Ev"
 "_ZNSt12_Vector_baseIN5Catch8TestCaseESaIS1_EE13_M_deallocateEPS1_y"
 "_ZNSt12_Vector_baseIN5Catch8TestCaseESaIS1_EE17_M_create_storageEy"
 "_ZNSt12_Vector_baseIN5Catch8TestCaseESaIS1_EE17_Vector_impl_data12_M_copy_dataERKS4_"
 "_ZNSt12_Vector_baseIN5Catch8TestCaseESaIS1_EE17_Vector_impl_data12_M_swap_dataERS4_"
 "_ZNSt12_Vector_baseIN5Catch8TestCaseESaIS1_EE17_Vector_impl_dataC1Ev"
 "_ZNSt12_Vector_baseIN5Catch8TestCaseESaIS1_EE17_Vector_impl_dataC2Ev"
 "_ZNSt12_Vector_baseIN5Catch8TestCaseESaIS1_EE19_M_get_Tp_allocatorEv"
 "_ZNSt12_Vector_baseIN5Catch8TestCaseESaIS1_EEC2ERKS2_"
 "_ZNSt12_Vector_baseIN5Catch8TestCaseESaIS1_EEC2Ev"
 "_ZNSt12_Vector_baseIN5Catch8TestCaseESaIS1_EEC2EyRKS2_"
 "_ZNSt12_Vector_baseIN5Catch8TestCaseESaIS1_EED2Ev"
 "_ZNSt12_Vector_baseIN5Catch8TestSpec6FilterESaIS2_EE11_M_allocateEy"
 "_ZNSt12_Vector_baseIN5Catch8TestSpec6FilterESaIS2_EE12_Vector_implC1ERKS3_"
 "_ZNSt12_Vector_baseIN5Catch8TestSpec6FilterESaIS2_EE12_Vector_implC1Ev"
 "_ZNSt12_Vector_baseIN5Catch8TestSpec6FilterESaIS2_EE12_Vector_implD1Ev"
 "_ZNSt12_Vector_baseIN5Catch8TestSpec6FilterESaIS2_EE13_M_deallocateEPS2_y"
 "_ZNSt12_Vector_baseIN5Catch8TestSpec6FilterESaIS2_EE17_M_create_storageEy"
 "_ZNSt12_Vector_baseIN5Catch8TestSpec6FilterESaIS2_EE17_Vector_impl_data12_M_copy_dataERKS5_"
 "_ZNSt12_Vector_baseIN5Catch8TestSpec6FilterESaIS2_EE17_Vector_impl_data12_M_swap_dataERS5_"
 "_ZNSt12_Vector_baseIN5Catch8TestSpec6FilterESaIS2_EE17_Vector_impl_dataC1Ev"
 "_ZNSt12_Vector_baseIN5Catch8TestSpec6FilterESaIS2_EE17_Vector_impl_dataC2Ev"
 "_ZNSt12_Vector_baseIN5Catch8TestSpec6FilterESaIS2_EE19_M_get_Tp_allocatorEv"
 "_ZNSt12_Vector_baseIN5Catch8TestSpec6FilterESaIS2_EEC2ERKS3_"
 "_ZNSt12_Vector_baseIN5Catch8TestSpec6FilterESaIS2_EEC2Ev"
 "_ZNSt12_Vector_baseIN5Catch8TestSpec6FilterESaIS2_EEC2EyRKS3_"
 "_ZNSt12_Vector_baseIN5Catch8TestSpec6FilterESaIS2_EED2Ev"
 "_ZNSt12_Vector_baseINSt7__cxx1112basic_stringIcSt11char_traitsIcESaIcEEESaIS5_EE11_M_allocateEy"
 "_ZNSt12_Vector_baseINSt7__cxx1112basic_stringIcSt11char_traitsIcESaIcEEESaIS5_EE12_Vector_implC1EOS8_"
 "_ZNSt12_Vector_baseINSt7__cxx1112basic_stringIcSt11char_traitsIcESaIcEEESaIS5_EE12_Vector_implC1ERKS6_"
 "_ZNSt12_Vector_baseINSt7__cxx1112basic_stringIcSt11char_traitsIcESaIcEEESaIS5_EE12_Vector_implC1Ev"
 "_ZNSt12_Vector_baseINSt7__cxx1112basic_stringIcSt11char_traitsIcESaIcEEESaIS5_EE12_Vector_implD1Ev"
 "_ZNSt12_Vector_baseINSt7__cxx1112basic_stringIcSt11char_traitsIcESaIcEEESaIS5_EE13_M_deallocateEPS5_y"
 "_ZNSt12_Vector_baseINSt7__cxx1112basic_stringIcSt11char_traitsIcESaIcEEESaIS5_EE17_M_create_storageEy"
 "_ZNSt12_Vector_baseINSt7__cxx1112basic_stringIcSt11char_traitsIcESaIcEEESaIS5_EE17_Vector_impl_dataC2EOS8_"
 "_ZNSt12_Vector_baseINSt7__cxx1112basic_stringIcSt11char_traitsIcESaIcEEESaIS5_EE17_Vector_impl_dataC2Ev"
 "_ZNSt12_Vector_baseINSt7__cxx1112basic_stringIcSt11char_traitsIcESaIcEEESaIS5_EE19_M_get_Tp_allocatorEv"
 "_ZNSt12_Vector_baseINSt7__cxx1112basic_stringIcSt11char_traitsIcESaIcEEESaIS5_EEC2EOS7_"
 "_ZNSt12_Vector_baseINSt7__cxx1112basic_stringIcSt11char_traitsIcESaIcEEESaIS5_EEC2Ev"
 "_ZNSt12_Vector_baseINSt7__cxx1112basic_stringIcSt11char_traitsIcESaIcEEESaIS5_EEC2EyRKS6_"
 "_ZNSt12_Vector_baseINSt7__cxx1112basic_stringIcSt11char_traitsIcESaIcEEESaIS5_EED2Ev"
 "_ZNSt12_Vector_baseIPKN5Catch20IExceptionTranslatorESaIS3_EE11_M_allocateEy"
 "_ZNSt12_Vector_baseIPKN5Catch20IExceptionTranslatorESaIS3_EE12_Vector_implC1Ev"
 "_ZNSt12_Vector_baseIPKN5Catch20IExceptionTranslatorESaIS3_EE12_Vector_implD1Ev"
 "_ZNSt12_Vector_baseIPKN5Catch20IExceptionTranslatorESaIS3_EE13_M_deallocateEPS3_y"
 "_ZNSt12_Vector_baseIPKN5Catch20IExceptionTranslatorESaIS3_EE17_Vector_impl_dataC2Ev"
 "_ZNSt12_Vector_baseIPKN5Catch20IExceptionTranslatorESaIS3_EE19_M_get_Tp_allocatorEv"
 "_ZNSt12_Vector_baseIPKN5Catch20IExceptionTranslatorESaIS3_EEC2Ev"
 "_ZNSt12_Vector_baseIPKN5Catch20IExceptionTranslatorESaIS3_EED2Ev"
 "_ZNSt12_Vector_baseIPKN5Catch8Matchers4Impl11MatcherBaseINSt7__cxx1112basic_stringIcSt11char_traitsIcESaIcEEES9_EESaISC_EE12_Vector_implC1Ev"
 "_ZNSt12_Vector_baseIPKN5Catch8Matchers4Impl11MatcherBaseINSt7__cxx1112basic_stringIcSt11char_traitsIcESaIcEEES9_EESaISC_EE12_Vector_implD1Ev"
 "_ZNSt12_Vector_baseIPKN5Catch8Matchers4Impl11MatcherBaseINSt7__cxx1112basic_stringIcSt11char_traitsIcESaIcEEES9_EESaISC_EE13_M_deallocateEPSC_y"
 "_ZNSt12_Vector_baseIPKN5Catch8Matchers4Impl11MatcherBaseINSt7__cxx1112basic_stringIcSt11char_traitsIcESaIcEEES9_EESaISC_EE17_Vector_impl_dataC2Ev"
 "_ZNSt12_Vector_baseIPKN5Catch8Matchers4Impl11MatcherBaseINSt7__cxx1112basic_stringIcSt11char_traitsIcESaIcEEES9_EESaISC_EE19_M_get_Tp_allocatorEv"
 "_ZNSt12_Vector_baseIPKN5Catch8Matchers4Impl11MatcherBaseINSt7__cxx1112basic_stringIcSt11char_traitsIcESaIcEEES9_EESaISC_EEC2Ev"
 "_ZNSt12_Vector_baseIPKN5Catch8Matchers4Impl11MatcherBaseINSt7__cxx1112basic_stringIcSt11char_traitsIcESaIcEEES9_EESaISC_EED2Ev"
 "_ZNSt12_Vector_baseIPN5Catch14IGeneratorInfoESaIS2_EE11_M_allocateEy"
 "_ZNSt12_Vector_baseIPN5Catch14IGeneratorInfoESaIS2_EE12_Vector_implC1Ev"
 "_ZNSt12_Vector_baseIPN5Catch14IGeneratorInfoESaIS2_EE12_Vector_implD1Ev"
 "_ZNSt12_Vector_baseIPN5Catch14IGeneratorInfoESaIS2_EE13_M_deallocateEPS2_y"
 "_ZNSt12_Vector_baseIPN5Catch14IGeneratorInfoESaIS2_EE17_Vector_impl_dataC2Ev"
 "_ZNSt12_Vector_baseIPN5Catch14IGeneratorInfoESaIS2_EE19_M_get_Tp_allocatorEv"
 "_ZNSt12_Vector_baseIPN5Catch14IGeneratorInfoESaIS2_EEC2Ev"
 "_ZNSt12_Vector_baseIPN5Catch14IGeneratorInfoESaIS2_EED2Ev"
 "_ZNSt12_Vector_baseIPN5Catch16TestCaseTracking8ITrackerESaIS3_EE11_M_allocateEy"
 "_ZNSt12_Vector_baseIPN5Catch16TestCaseTracking8ITrackerESaIS3_EE12_Vector_implC1Ev"
 "_ZNSt12_Vector_baseIPN5Catch16TestCaseTracking8ITrackerESaIS3_EE12_Vector_implD1Ev"
 "_ZNSt12_Vector_baseIPN5Catch16TestCaseTracking8ITrackerESaIS3_EE13_M_deallocateEPS3_y"
 "_ZNSt12_Vector_baseIPN5Catch16TestCaseTracking8ITrackerESaIS3_EE17_Vector_impl_dataC2Ev"
 "_ZNSt12_Vector_baseIPN5Catch16TestCaseTracking8ITrackerESaIS3_EE19_M_get_Tp_allocatorEv"
 "_ZNSt12_Vector_baseIPN5Catch16TestCaseTracking8ITrackerESaIS3_EEC2Ev"
 "_ZNSt12_Vector_baseIPN5Catch16TestCaseTracking8ITrackerESaIS3_EED2Ev"
 "_ZNSt12_Vector_baseISt6vectorIN5Catch3PtrINS1_22CumulativeReporterBase11SectionNodeEEESaIS5_EESaIS7_EE12_Vector_implC1Ev"
 "_ZNSt12_Vector_baseISt6vectorIN5Catch3PtrINS1_22CumulativeReporterBase11SectionNodeEEESaIS5_EESaIS7_EE12_Vector_implD1Ev"
 "_ZNSt12_Vector_baseISt6vectorIN5Catch3PtrINS1_22CumulativeReporterBase11SectionNodeEEESaIS5_EESaIS7_EE13_M_deallocateEPS7_y"
 "_ZNSt12_Vector_baseISt6vectorIN5Catch3PtrINS1_22CumulativeReporterBase11SectionNodeEEESaIS5_EESaIS7_EE17_Vector_impl_dataC2Ev"
 "_ZNSt12_Vector_baseISt6vectorIN5Catch3PtrINS1_22CumulativeReporterBase11SectionNodeEEESaIS5_EESaIS7_EE19_M_get_Tp_allocatorEv"
 "_ZNSt12_Vector_baseISt6vectorIN5Catch3PtrINS1_22CumulativeReporterBase11SectionNodeEEESaIS5_EESaIS7_EEC2Ev"
 "_ZNSt12_Vector_baseISt6vectorIN5Catch3PtrINS1_22CumulativeReporterBase11SectionNodeEEESaIS5_EESaIS7_EED2Ev"
 "_ZNSt12_Vector_baseIySaIyEE11_M_allocateEy"
 "_ZNSt12_Vector_baseIySaIyEE12_Vector_implC1Ev"
 "_ZNSt12_Vector_baseIySaIyEE12_Vector_implD1Ev"
 "_ZNSt12_Vector_baseIySaIyEE13_M_deallocateEPyy"
 "_ZNSt12_Vector_baseIySaIyEE17_Vector_impl_dataC2Ev"
 "_ZNSt12_Vector_baseIySaIyEE19_M_get_Tp_allocatorEv"
 "_ZNSt12_Vector_baseIySaIyEEC2Ev"
 "_ZNSt12_Vector_baseIySaIyEED2Ev"
 "_ZNSt13_Rb_tree_nodeIN5Catch8TestCaseEE9_M_valptrEv"
 "_ZNSt13_Rb_tree_nodeINSt7__cxx1112basic_stringIcSt11char_traitsIcESaIcEEEE9_M_valptrEv"
 "_ZNSt13_Rb_tree_nodeISt4pairIKiN5Catch5Clara11CommandLineINS2_10ConfigDataEE3ArgEEE9_M_valptrEv"
 "_ZNSt13_Rb_tree_nodeISt4pairIKNSt7__cxx1112basic_stringIcSt11char_traitsIcESaIcEEEN5Catch3PtrINS8_16IReporterFactoryEEEEE9_M_valptrEv"
 "_ZNSt13_Rb_tree_nodeISt4pairIKNSt7__cxx1112basic_stringIcSt11char_traitsIcESaIcEEEN5Catch7TagInfoEEE9_M_valptrEv"
 "_ZNSt13_Rb_tree_nodeISt4pairIKNSt7__cxx1112basic_stringIcSt11char_traitsIcESaIcEEEN5Catch8TagAliasEEE9_M_valptrEv"
 "_ZNSt13_Rb_tree_nodeISt4pairIKNSt7__cxx1112basic_stringIcSt11char_traitsIcESaIcEEEPN5Catch14IGeneratorInfoEEE9_M_valptrEv"
 "_ZNSt13_Rb_tree_nodeISt4pairIKNSt7__cxx1112basic_stringIcSt11char_traitsIcESaIcEEEPN5Catch18IGeneratorsForTestEEE9_M_valptrEv"
 "_ZNSt13move_iteratorIPN5Catch11MessageInfoEEC1ES2_"
 "_ZNSt13move_iteratorIPN5Catch11MessageInfoEEppEv"
 "_ZNSt13move_iteratorIPN5Catch11SectionInfoEEC1ES2_"
 "_ZNSt13move_iteratorIPN5Catch11SectionInfoEEppEv"
 "_ZNSt13move_iteratorIPN5Catch14AssertionStatsEEC1ES2_"
 "_ZNSt13move_iteratorIPN5Catch14AssertionStatsEEppEv"
 "_ZNSt13move_iteratorIPN5Catch14SectionEndInfoEEC1ES2_"
 "_ZNSt13move_iteratorIPN5Catch14SectionEndInfoEEppEv"
 "_ZNSt13move_iteratorIPN5Catch15ConsoleReporter13SummaryColumnEEC1ES3_"
 "_ZNSt13move_iteratorIPN5Catch15ConsoleReporter13SummaryColumnEEppEv"
 "_ZNSt13move_iteratorIPN5Catch5Clara6Parser5TokenEEC1ES4_"
 "_ZNSt13move_iteratorIPN5Catch5Clara6Parser5TokenEEppEv"
 "_ZNSt13move_iteratorIPN5Catch8TestSpec6FilterEEC1ES3_"
 "_ZNSt13move_iteratorIPN5Catch8TestSpec6FilterEEppEv"
 "_ZNSt13move_iteratorIPNSt7__cxx1112basic_stringIcSt11char_traitsIcESaIcEEEEC1ES6_"
 "_ZNSt13move_iteratorIPNSt7__cxx1112basic_stringIcSt11char_traitsIcESaIcEEEEppEv"
 "_ZNSt13move_iteratorIPPKN5Catch20IExceptionTranslatorEEC1ES4_"
 "_ZNSt13move_iteratorIPPN5Catch14IGeneratorInfoEEC1ES3_"
 "_ZNSt13move_iteratorIPPN5Catch16TestCaseTracking8ITrackerEEC1ES4_"
 "_ZNSt13move_iteratorIPyEC1ES0_"
 "_ZNSt13random_deviceC1Ev"
 "_ZNSt13random_deviceclEv"
 "_ZNSt14numeric_limitsIiE3maxEv"
 "_ZNSt14numeric_limitsIyE3maxEv"
 "_ZNSt15__uniq_ptr_dataIKN5Catch7IStreamESt14default_deleteIS2_ELb1ELb1EECI1St15__uniq_ptr_implIS2_S4_EEPS2_"
 "_ZNSt15__uniq_ptr_dataIN5Catch13StreamBufBaseESt14default_deleteIS1_ELb1ELb1EECI1St15__uniq_ptr_implIS1_S3_EEPS1_"
 "_ZNSt15__uniq_ptr_dataIN5Catch5Clara11CommandLineINS0_10ConfigDataEE3ArgESt14default_deleteIS5_ELb1ELb1EECI1St15__uniq_ptr_implIS5_S7_EEv"
 "_ZNSt15__uniq_ptr_implIKN5Catch7IStreamESt14default_deleteIS2_EE10_M_deleterEv"
 "_ZNSt15__uniq_ptr_implIKN5Catch7IStreamESt14default_deleteIS2_EE6_M_ptrEv"
 "_ZNSt15__uniq_ptr_implIKN5Catch7IStreamESt14default_deleteIS2_EEC2EPS2_"
 "_ZNSt15__uniq_ptr_implIN5Catch13StreamBufBaseESt14default_deleteIS1_EE10_M_deleterEv"
 "_ZNSt15__uniq_ptr_implIN5Catch13StreamBufBaseESt14default_deleteIS1_EE6_M_ptrEv"
 "_ZNSt15__uniq_ptr_implIN5Catch13StreamBufBaseESt14default_deleteIS1_EEC2EPS1_"
 "_ZNSt15__uniq_ptr_implIN5Catch5Clara11CommandLineINS0_10ConfigDataEE3ArgESt14default_deleteIS5_EE10_M_deleterEv"
 "_ZNSt15__uniq_ptr_implIN5Catch5Clara11CommandLineINS0_10ConfigDataEE3ArgESt14default_deleteIS5_EE5resetEPS5_"
 "_ZNSt15__uniq_ptr_implIN5Catch5Clara11CommandLineINS0_10ConfigDataEE3ArgESt14default_deleteIS5_EE6_M_ptrEv"
 "_ZNSt15__uniq_ptr_implIN5Catch5Clara11CommandLineINS0_10ConfigDataEE3ArgESt14default_deleteIS5_EEC2Ev"
 "_ZNSt15_Rb_tree_header12_M_move_dataERS_"
 "_ZNSt15_Rb_tree_header8_M_resetEv"
 "_ZNSt15_Rb_tree_headerC2EOS_"
 "_ZNSt15_Rb_tree_headerC2Ev"
 "_ZNSt16allocator_traitsISaIcEE37select_on_container_copy_constructionERKS0_"
 "_ZNSt16allocator_traitsISaIN5Catch11MessageInfoEEE10deallocateERS2_PS1_y"
 "_ZNSt16allocator_traitsISaIN5Catch11MessageInfoEEE37select_on_container_copy_constructionERKS2_"
 "_ZNSt16allocator_traitsISaIN5Catch11MessageInfoEEE7destroyIS1_EEvRS2_PT_"
 "_ZNSt16allocator_traitsISaIN5Catch11MessageInfoEEE8allocateERS2_y"
 "_ZNSt16allocator_traitsISaIN5Catch11MessageInfoEEE8max_sizeERKS2_"
 "_ZNSt16allocator_traitsISaIN5Catch11MessageInfoEEE9constructIS1_JRKS1_EEEvRS2_PT_DpOT0_"
 "_ZNSt16allocator_traitsISaIN5Catch11MessageInfoEEE9constructIS1_JS1_EEEvRS2_PT_DpOT0_"
 "_ZNSt16allocator_traitsISaIN5Catch11SectionInfoEEE10deallocateERS2_PS1_y"
 "_ZNSt16allocator_traitsISaIN5Catch11SectionInfoEEE7destroyIS1_EEvRS2_PT_"
 "_ZNSt16allocator_traitsISaIN5Catch11SectionInfoEEE8allocateERS2_y"
 "_ZNSt16allocator_traitsISaIN5Catch11SectionInfoEEE8max_sizeERKS2_"
 "_ZNSt16allocator_traitsISaIN5Catch11SectionInfoEEE9constructIS1_JRKS1_EEEvRS2_PT_DpOT0_"
 "_ZNSt16allocator_traitsISaIN5Catch11SectionInfoEEE9constructIS1_JS1_EEEvRS2_PT_DpOT0_"
 "_ZNSt16allocator_traitsISaIN5Catch14AssertionStatsEEE10deallocateERS2_PS1_y"
 "_ZNSt16allocator_traitsISaIN5Catch14AssertionStatsEEE7destroyIS1_EEvRS2_PT_"
 "_ZNSt16allocator_traitsISaIN5Catch14AssertionStatsEEE8allocateERS2_y"
 "_ZNSt16allocator_traitsISaIN5Catch14AssertionStatsEEE8max_sizeERKS2_"
 "_ZNSt16allocator_traitsISaIN5Catch14AssertionStatsEEE9constructIS1_JRKS1_EEEvRS2_PT_DpOT0_"
 "_ZNSt16allocator_traitsISaIN5Catch14AssertionStatsEEE9constructIS1_JS1_EEEvRS2_PT_DpOT0_"
 "_ZNSt16allocator_traitsISaIN5Catch14SectionEndInfoEEE10deallocateERS2_PS1_y"
 "_ZNSt16allocator_traitsISaIN5Catch14SectionEndInfoEEE7destroyIS1_EEvRS2_PT_"
 "_ZNSt16allocator_traitsISaIN5Catch14SectionEndInfoEEE8allocateERS2_y"
 "_ZNSt16allocator_traitsISaIN5Catch14SectionEndInfoEEE8max_sizeERKS2_"
 "_ZNSt16allocator_traitsISaIN5Catch14SectionEndInfoEEE9constructIS1_JRKS1_EEEvRS2_PT_DpOT0_"
 "_ZNSt16allocator_traitsISaIN5Catch14SectionEndInfoEEE9constructIS1_JS1_EEEvRS2_PT_DpOT0_"
 "_ZNSt16allocator_traitsISaIN5Catch15ConsoleReporter13SummaryColumnEEE10deallocateERS3_PS2_y"
 "_ZNSt16allocator_traitsISaIN5Catch15ConsoleReporter13SummaryColumnEEE7destroyIS2_EEvRS3_PT_"
 "_ZNSt16allocator_traitsISaIN5Catch15ConsoleReporter13SummaryColumnEEE8allocateERS3_y"
 "_ZNSt16allocator_traitsISaIN5Catch15ConsoleReporter13SummaryColumnEEE8max_sizeERKS3_"
 "_ZNSt16allocator_traitsISaIN5Catch15ConsoleReporter13SummaryColumnEEE9constructIS2_JS2_EEEvRS3_PT_DpOT0_"
 "_ZNSt16allocator_traitsISaIN5Catch3PtrINS0_16IReporterFactoryEEEEE10deallocateERS4_PS3_y"
 "_ZNSt16allocator_traitsISaIN5Catch3PtrINS0_16IReporterFactoryEEEEE37select_on_container_copy_constructionERKS4_"
 "_ZNSt16allocator_traitsISaIN5Catch3PtrINS0_16IReporterFactoryEEEEE7destroyIS3_EEvRS4_PT_"
 "_ZNSt16allocator_traitsISaIN5Catch3PtrINS0_16IReporterFactoryEEEEE8allocateERS4_y"
 "_ZNSt16allocator_traitsISaIN5Catch3PtrINS0_16IReporterFactoryEEEEE8max_sizeERKS4_"
 "_ZNSt16allocator_traitsISaIN5Catch3PtrINS0_16IReporterFactoryEEEEE9constructIS3_JRKS3_EEEvRS4_PT_DpOT0_"
 "_ZNSt16allocator_traitsISaIN5Catch3PtrINS0_16TestCaseTracking8ITrackerEEEEE10deallocateERS5_PS4_y"
 "_ZNSt16allocator_traitsISaIN5Catch3PtrINS0_16TestCaseTracking8ITrackerEEEEE7destroyIS4_EEvRS5_PT_"
 "_ZNSt16allocator_traitsISaIN5Catch3PtrINS0_16TestCaseTracking8ITrackerEEEEE8allocateERS5_y"
 "_ZNSt16allocator_traitsISaIN5Catch3PtrINS0_16TestCaseTracking8ITrackerEEEEE8max_sizeERKS5_"
 "_ZNSt16allocator_traitsISaIN5Catch3PtrINS0_16TestCaseTracking8ITrackerEEEEE9constructIS4_JRKS4_EEEvRS5_PT_DpOT0_"
 "_ZNSt16allocator_traitsISaIN5Catch3PtrINS0_18IStreamingReporterEEEEE10deallocateERS4_PS3_y"
 "_ZNSt16allocator_traitsISaIN5Catch3PtrINS0_18IStreamingReporterEEEEE7destroyIS3_EEvRS4_PT_"
 "_ZNSt16allocator_traitsISaIN5Catch3PtrINS0_18IStreamingReporterEEEEE8allocateERS4_y"
 "_ZNSt16allocator_traitsISaIN5Catch3PtrINS0_18IStreamingReporterEEEEE8max_sizeERKS4_"
 "_ZNSt16allocator_traitsISaIN5Catch3PtrINS0_18IStreamingReporterEEEEE9constructIS3_JRKS3_EEEvRS4_PT_DpOT0_"
 "_ZNSt16allocator_traitsISaIN5Catch3PtrINS0_22CumulativeReporterBase11SectionNodeEEEEE10deallocateERS5_PS4_y"
 "_ZNSt16allocator_traitsISaIN5Catch3PtrINS0_22CumulativeReporterBase11SectionNodeEEEEE7destroyIS4_EEvRS5_PT_"
 "_ZNSt16allocator_traitsISaIN5Catch3PtrINS0_22CumulativeReporterBase11SectionNodeEEEEE8allocateERS5_y"
 "_ZNSt16allocator_traitsISaIN5Catch3PtrINS0_22CumulativeReporterBase11SectionNodeEEEEE8max_sizeERKS5_"
 "_ZNSt16allocator_traitsISaIN5Catch3PtrINS0_22CumulativeReporterBase11SectionNodeEEEEE9constructIS4_JRKS4_EEEvRS5_PT_DpOT0_"
 "_ZNSt16allocator_traitsISaIN5Catch3PtrINS0_22CumulativeReporterBase4NodeINS0_12TestRunStatsENS3_INS0_14TestGroupStatsENS3_INS0_13TestCaseStatsENS2_11SectionNodeEEEEEEEEEEE10deallocateERSC_PSB_y"
 "_ZNSt16allocator_traitsISaIN5Catch3PtrINS0_22CumulativeReporterBase4NodeINS0_12TestRunStatsENS3_INS0_14TestGroupStatsENS3_INS0_13TestCaseStatsENS2_11SectionNodeEEEEEEEEEEE7destroyISB_EEvRSC_PT_"
 "_ZNSt16allocator_traitsISaIN5Catch3PtrINS0_22CumulativeReporterBase4NodeINS0_12TestRunStatsENS3_INS0_14TestGroupStatsENS3_INS0_13TestCaseStatsENS2_11SectionNodeEEEEEEEEEEE8allocateERSC_y"
 "_ZNSt16allocator_traitsISaIN5Catch3PtrINS0_22CumulativeReporterBase4NodeINS0_12TestRunStatsENS3_INS0_14TestGroupStatsENS3_INS0_13TestCaseStatsENS2_11SectionNodeEEEEEEEEEEE8max_sizeERKSC_"
 "_ZNSt16allocator_traitsISaIN5Catch3PtrINS0_22CumulativeReporterBase4NodeINS0_12TestRunStatsENS3_INS0_14TestGroupStatsENS3_INS0_13TestCaseStatsENS2_11SectionNodeEEEEEEEEEEE9constructISB_JRKSB_EEEvRSC_PT_DpOT0_"
 "_ZNSt16allocator_traitsISaIN5Catch3PtrINS0_22CumulativeReporterBase4NodeINS0_13TestCaseStatsENS2_11SectionNodeEEEEEEE10deallocateERS8_PS7_y"
 "_ZNSt16allocator_traitsISaIN5Catch3PtrINS0_22CumulativeReporterBase4NodeINS0_13TestCaseStatsENS2_11SectionNodeEEEEEEE7destroyIS7_EEvRS8_PT_"
 "_ZNSt16allocator_traitsISaIN5Catch3PtrINS0_22CumulativeReporterBase4NodeINS0_13TestCaseStatsENS2_11SectionNodeEEEEEEE8allocateERS8_y"
 "_ZNSt16allocator_traitsISaIN5Catch3PtrINS0_22CumulativeReporterBase4NodeINS0_13TestCaseStatsENS2_11SectionNodeEEEEEEE8max_sizeERKS8_"
 "_ZNSt16allocator_traitsISaIN5Catch3PtrINS0_22CumulativeReporterBase4NodeINS0_13TestCaseStatsENS2_11SectionNodeEEEEEEE9constructIS7_JRKS7_EEEvRS8_PT_DpOT0_"
 "_ZNSt16allocator_traitsISaIN5Catch3PtrINS0_22CumulativeReporterBase4NodeINS0_14TestGroupStatsENS3_INS0_13TestCaseStatsENS2_11SectionNodeEEEEEEEEE10deallocateERSA_PS9_y"
 "_ZNSt16allocator_traitsISaIN5Catch3PtrINS0_22CumulativeReporterBase4NodeINS0_14TestGroupStatsENS3_INS0_13TestCaseStatsENS2_11SectionNodeEEEEEEEEE7destroyIS9_EEvRSA_PT_"
 "_ZNSt16allocator_traitsISaIN5Catch3PtrINS0_22CumulativeReporterBase4NodeINS0_14TestGroupStatsENS3_INS0_13TestCaseStatsENS2_11SectionNodeEEEEEEEEE8allocateERSA_y"
 "_ZNSt16allocator_traitsISaIN5Catch3PtrINS0_22CumulativeReporterBase4NodeINS0_14TestGroupStatsENS3_INS0_13TestCaseStatsENS2_11SectionNodeEEEEEEEEE8max_sizeERKSA_"
 "_ZNSt16allocator_traitsISaIN5Catch3PtrINS0_22CumulativeReporterBase4NodeINS0_14TestGroupStatsENS3_INS0_13TestCaseStatsENS2_11SectionNodeEEEEEEEEE9constructIS9_JRKS9_EEEvRSA_PT_DpOT0_"
 "_ZNSt16allocator_traitsISaIN5Catch3PtrINS0_8TestSpec7PatternEEEEE10deallocateERS5_PS4_y"
 "_ZNSt16allocator_traitsISaIN5Catch3PtrINS0_8TestSpec7PatternEEEEE37select_on_container_copy_constructionERKS5_"
 "_ZNSt16allocator_traitsISaIN5Catch3PtrINS0_8TestSpec7PatternEEEEE7destroyIS4_EEvRS5_PT_"
 "_ZNSt16allocator_traitsISaIN5Catch3PtrINS0_8TestSpec7PatternEEEEE8allocateERS5_y"
 "_ZNSt16allocator_traitsISaIN5Catch3PtrINS0_8TestSpec7PatternEEEEE8max_sizeERKS5_"
 "_ZNSt16allocator_traitsISaIN5Catch3PtrINS0_8TestSpec7PatternEEEEE9constructIS4_JRKS4_EEEvRS5_PT_DpOT0_"
 "_ZNSt16allocator_traitsISaIN5Catch5Clara11CommandLineINS0_10ConfigDataEE3ArgEEE10deallocateERS6_PS5_y"
 "_ZNSt16allocator_traitsISaIN5Catch5Clara11CommandLineINS0_10ConfigDataEE3ArgEEE7destroyIS5_EEvRS6_PT_"
 "_ZNSt16allocator_traitsISaIN5Catch5Clara11CommandLineINS0_10ConfigDataEE3ArgEEE8allocateERS6_y"
 "_ZNSt16allocator_traitsISaIN5Catch5Clara11CommandLineINS0_10ConfigDataEE3ArgEEE8max_sizeERKS6_"
 "_ZNSt16allocator_traitsISaIN5Catch5Clara11CommandLineINS0_10ConfigDataEE3ArgEEE9constructIS5_JS5_EEEvRS6_PT_DpOT0_"
 "_ZNSt16allocator_traitsISaIN5Catch5Clara6Parser5TokenEEE10deallocateERS4_PS3_y"
 "_ZNSt16allocator_traitsISaIN5Catch5Clara6Parser5TokenEEE37select_on_container_copy_constructionERKS4_"
 "_ZNSt16allocator_traitsISaIN5Catch5Clara6Parser5TokenEEE7destroyIS3_EEvRS4_PT_"
 "_ZNSt16allocator_traitsISaIN5Catch5Clara6Parser5TokenEEE8allocateERS4_y"
 "_ZNSt16allocator_traitsISaIN5Catch5Clara6Parser5TokenEEE8max_sizeERKS4_"
 "_ZNSt16allocator_traitsISaIN5Catch5Clara6Parser5TokenEEE9constructIS3_JRKS3_EEEvRS4_PT_DpOT0_"
 "_ZNSt16allocator_traitsISaIN5Catch5Clara6Parser5TokenEEE9constructIS3_JS3_EEEvRS4_PT_DpOT0_"
 "_ZNSt16allocator_traitsISaIN5Catch8TestCaseEEE10deallocateERS2_PS1_y"
 "_ZNSt16allocator_traitsISaIN5Catch8TestCaseEEE37select_on_container_copy_constructionERKS2_"
 "_ZNSt16allocator_traitsISaIN5Catch8TestCaseEEE7destroyIS1_EEvRS2_PT_"
 "_ZNSt16allocator_traitsISaIN5Catch8TestCaseEEE8allocateERS2_y"
 "_ZNSt16allocator_traitsISaIN5Catch8TestCaseEEE8max_sizeERKS2_"
 "_ZNSt16allocator_traitsISaIN5Catch8TestCaseEEE9constructIS1_JRKS1_EEEvRS2_PT_DpOT0_"
 "_ZNSt16allocator_traitsISaIN5Catch8TestSpec6FilterEEE10deallocateERS3_PS2_y"
 "_ZNSt16allocator_traitsISaIN5Catch8TestSpec6FilterEEE37select_on_container_copy_constructionERKS3_"
 "_ZNSt16allocator_traitsISaIN5Catch8TestSpec6FilterEEE7destroyIS2_EEvRS3_PT_"
 "_ZNSt16allocator_traitsISaIN5Catch8TestSpec6FilterEEE8allocateERS3_y"
 "_ZNSt16allocator_traitsISaIN5Catch8TestSpec6FilterEEE8max_sizeERKS3_"
 "_ZNSt16allocator_traitsISaIN5Catch8TestSpec6FilterEEE9constructIS2_JRKS2_EEEvRS3_PT_DpOT0_"
 "_ZNSt16allocator_traitsISaIN5Catch8TestSpec6FilterEEE9constructIS2_JS2_EEEvRS3_PT_DpOT0_"
 "_ZNSt16allocator_traitsISaINSt7__cxx1112basic_stringIcSt11char_traitsIcESaIcEEEEE10deallocateERS6_PS5_y"
 "_ZNSt16allocator_traitsISaINSt7__cxx1112basic_stringIcSt11char_traitsIcESaIcEEEEE37select_on_container_copy_constructionERKS6_"
 "_ZNSt16allocator_traitsISaINSt7__cxx1112basic_stringIcSt11char_traitsIcESaIcEEEEE7destroyIS5_EEvRS6_PT_"
 "_ZNSt16allocator_traitsISaINSt7__cxx1112basic_stringIcSt11char_traitsIcESaIcEEEEE8allocateERS6_y"
 "_ZNSt16allocator_traitsISaINSt7__cxx1112basic_stringIcSt11char_traitsIcESaIcEEEEE8max_sizeERKS6_"
 "_ZNSt16allocator_traitsISaINSt7__cxx1112basic_stringIcSt11char_traitsIcESaIcEEEEE9constructIS5_JRKS5_EEEvRS6_PT_DpOT0_"
 "_ZNSt16allocator_traitsISaINSt7__cxx1112basic_stringIcSt11char_traitsIcESaIcEEEEE9constructIS5_JS5_EEEvRS6_PT_DpOT0_"
 "_ZNSt16allocator_traitsISaIPKN5Catch20IExceptionTranslatorEEE10deallocateERS4_PS3_y"
 "_ZNSt16allocator_traitsISaIPKN5Catch20IExceptionTranslatorEEE7destroyIS3_EEvRS4_PT_"
 "_ZNSt16allocator_traitsISaIPKN5Catch20IExceptionTranslatorEEE8allocateERS4_y"
 "_ZNSt16allocator_traitsISaIPKN5Catch20IExceptionTranslatorEEE8max_sizeERKS4_"
 "_ZNSt16allocator_traitsISaIPKN5Catch20IExceptionTranslatorEEE9constructIS3_JRKS3_EEEvRS4_PT_DpOT0_"
 "_ZNSt16allocator_traitsISaIPKN5Catch8Matchers4Impl11MatcherBaseINSt7__cxx1112basic_stringIcSt11char_traitsIcESaIcEEES9_EEEE10deallocateERSD_PSC_y"
 "_ZNSt16allocator_traitsISaIPN5Catch14IGeneratorInfoEEE10deallocateERS3_PS2_y"
 "_ZNSt16allocator_traitsISaIPN5Catch14IGeneratorInfoEEE7destroyIS2_EEvRS3_PT_"
 "_ZNSt16allocator_traitsISaIPN5Catch14IGeneratorInfoEEE8allocateERS3_y"
 "_ZNSt16allocator_traitsISaIPN5Catch14IGeneratorInfoEEE8max_sizeERKS3_"
 "_ZNSt16allocator_traitsISaIPN5Catch14IGeneratorInfoEEE9constructIS2_JRKS2_EEEvRS3_PT_DpOT0_"
 "_ZNSt16allocator_traitsISaIPN5Catch16TestCaseTracking8ITrackerEEE10deallocateERS4_PS3_y"
 "_ZNSt16allocator_traitsISaIPN5Catch16TestCaseTracking8ITrackerEEE7destroyIS3_EEvRS4_PT_"
 "_ZNSt16allocator_traitsISaIPN5Catch16TestCaseTracking8ITrackerEEE8allocateERS4_y"
 "_ZNSt16allocator_traitsISaIPN5Catch16TestCaseTracking8ITrackerEEE8max_sizeERKS4_"
 "_ZNSt16allocator_traitsISaIPN5Catch16TestCaseTracking8ITrackerEEE9constructIS3_JS3_EEEvRS4_PT_DpOT0_"
 "_ZNSt16allocator_traitsISaISt13_Rb_tree_nodeIN5Catch8TestCaseEEEE10deallocateERS4_PS3_y"
 "_ZNSt16allocator_traitsISaISt13_Rb_tree_nodeIN5Catch8TestCaseEEEE7destroyIS2_EEvRS4_PT_"
 "_ZNSt16allocator_traitsISaISt13_Rb_tree_nodeIN5Catch8TestCaseEEEE8allocateERS4_y"
 "_ZNSt16allocator_traitsISaISt13_Rb_tree_nodeIN5Catch8TestCaseEEEE9constructIS2_JRKS2_EEEvRS4_PT_DpOT0_"
 "_ZNSt16allocator_traitsISaISt13_Rb_tree_nodeINSt7__cxx1112basic_stringIcSt11char_traitsIcESaIcEEEEEE10deallocateERS8_PS7_y"
 "_ZNSt16allocator_traitsISaISt13_Rb_tree_nodeINSt7__cxx1112basic_stringIcSt11char_traitsIcESaIcEEEEEE37select_on_container_copy_constructionERKS8_"
 "_ZNSt16allocator_traitsISaISt13_Rb_tree_nodeINSt7__cxx1112basic_stringIcSt11char_traitsIcESaIcEEEEEE7destroyIS6_EEvRS8_PT_"
 "_ZNSt16allocator_traitsISaISt13_Rb_tree_nodeINSt7__cxx1112basic_stringIcSt11char_traitsIcESaIcEEEEEE8allocateERS8_y"
 "_ZNSt16allocator_traitsISaISt13_Rb_tree_nodeINSt7__cxx1112basic_stringIcSt11char_traitsIcESaIcEEEEEE9constructIS6_JRKS6_EEEvRS8_PT_DpOT0_"
 "_ZNSt16allocator_traitsISaISt13_Rb_tree_nodeINSt7__cxx1112basic_stringIcSt11char_traitsIcESaIcEEEEEE9constructIS6_JS6_EEEvRS8_PT_DpOT0_"
 "_ZNSt16allocator_traitsISaISt13_Rb_tree_nodeISt4pairIKiN5Catch5Clara11CommandLineINS3_10ConfigDataEE3ArgEEEEE10deallocateERSB_PSA_y"
 "_ZNSt16allocator_traitsISaISt13_Rb_tree_nodeISt4pairIKiN5Catch5Clara11CommandLineINS3_10ConfigDataEE3ArgEEEEE7destroyIS9_EEvRSB_PT_"
 "_ZNSt16allocator_traitsISaISt13_Rb_tree_nodeISt4pairIKNSt7__cxx1112basic_stringIcSt11char_traitsIcESaIcEEEN5Catch3PtrINS9_16IReporterFactoryEEEEEEE10deallocateERSF_PSE_y"
 "_ZNSt16allocator_traitsISaISt13_Rb_tree_nodeISt4pairIKNSt7__cxx1112basic_stringIcSt11char_traitsIcESaIcEEEN5Catch3PtrINS9_16IReporterFactoryEEEEEEE7destroyISD_EEvRSF_PT_"
 "_ZNSt16allocator_traitsISaISt13_Rb_tree_nodeISt4pairIKNSt7__cxx1112basic_stringIcSt11char_traitsIcESaIcEEEN5Catch3PtrINS9_16IReporterFactoryEEEEEEE8allocateERSF_y"
 "_ZNSt16allocator_traitsISaISt13_Rb_tree_nodeISt4pairIKNSt7__cxx1112basic_stringIcSt11char_traitsIcESaIcEEEN5Catch3PtrINS9_16IReporterFactoryEEEEEEE9constructISD_JS1_IS7_SC_EEEEvRSF_PT_DpOT0_"
 "_ZNSt16allocator_traitsISaISt13_Rb_tree_nodeISt4pairIKNSt7__cxx1112basic_stringIcSt11char_traitsIcESaIcEEEN5Catch7TagInfoEEEEE10deallocateERSD_PSC_y"
 "_ZNSt16allocator_traitsISaISt13_Rb_tree_nodeISt4pairIKNSt7__cxx1112basic_stringIcSt11char_traitsIcESaIcEEEN5Catch7TagInfoEEEEE7destroyISB_EEvRSD_PT_"
 "_ZNSt16allocator_traitsISaISt13_Rb_tree_nodeISt4pairIKNSt7__cxx1112basic_stringIcSt11char_traitsIcESaIcEEEN5Catch7TagInfoEEEEE8allocateERSD_y"
 "_ZNSt16allocator_traitsISaISt13_Rb_tree_nodeISt4pairIKNSt7__cxx1112basic_stringIcSt11char_traitsIcESaIcEEEN5Catch7TagInfoEEEEE9constructISB_JS1_IS7_SA_EEEEvRSD_PT_DpOT0_"
 "_ZNSt16allocator_traitsISaISt13_Rb_tree_nodeISt4pairIKNSt7__cxx1112basic_stringIcSt11char_traitsIcESaIcEEEN5Catch8TagAliasEEEEE10deallocateERSD_PSC_y"
 "_ZNSt16allocator_traitsISaISt13_Rb_tree_nodeISt4pairIKNSt7__cxx1112basic_stringIcSt11char_traitsIcESaIcEEEN5Catch8TagAliasEEEEE7destroyISB_EEvRSD_PT_"
 "_ZNSt16allocator_traitsISaISt13_Rb_tree_nodeISt4pairIKNSt7__cxx1112basic_stringIcSt11char_traitsIcESaIcEEEN5Catch8TagAliasEEEEE8allocateERSD_y"
 "_ZNSt16allocator_traitsISaISt13_Rb_tree_nodeISt4pairIKNSt7__cxx1112basic_stringIcSt11char_traitsIcESaIcEEEN5Catch8TagAliasEEEEE9constructISB_JS1_IS7_SA_EEEEvRSD_PT_DpOT0_"
 "_ZNSt16allocator_traitsISaISt13_Rb_tree_nodeISt4pairIKNSt7__cxx1112basic_stringIcSt11char_traitsIcESaIcEEEPN5Catch14IGeneratorInfoEEEEE10deallocateERSE_PSD_y"
 "_ZNSt16allocator_traitsISaISt13_Rb_tree_nodeISt4pairIKNSt7__cxx1112basic_stringIcSt11char_traitsIcESaIcEEEPN5Catch14IGeneratorInfoEEEEE7destroyISC_EEvRSE_PT_"
 "_ZNSt16allocator_traitsISaISt13_Rb_tree_nodeISt4pairIKNSt7__cxx1112basic_stringIcSt11char_traitsIcESaIcEEEPN5Catch14IGeneratorInfoEEEEE8allocateERSE_y"
 "_ZNSt16allocator_traitsISaISt13_Rb_tree_nodeISt4pairIKNSt7__cxx1112basic_stringIcSt11char_traitsIcESaIcEEEPN5Catch14IGeneratorInfoEEEEE9constructISC_JS1_IS7_SB_EEEEvRSE_PT_DpOT0_"
 "_ZNSt16allocator_traitsISaISt13_Rb_tree_nodeISt4pairIKNSt7__cxx1112basic_stringIcSt11char_traitsIcESaIcEEEPN5Catch18IGeneratorsForTestEEEEE10deallocateERSE_PSD_y"
 "_ZNSt16allocator_traitsISaISt13_Rb_tree_nodeISt4pairIKNSt7__cxx1112basic_stringIcSt11char_traitsIcESaIcEEEPN5Catch18IGeneratorsForTestEEEEE7destroyISC_EEvRSE_PT_"
 "_ZNSt16allocator_traitsISaISt13_Rb_tree_nodeISt4pairIKNSt7__cxx1112basic_stringIcSt11char_traitsIcESaIcEEEPN5Catch18IGeneratorsForTestEEEEE8allocateERSE_y"
 "_ZNSt16allocator_traitsISaISt13_Rb_tree_nodeISt4pairIKNSt7__cxx1112basic_stringIcSt11char_traitsIcESaIcEEEPN5Catch18IGeneratorsForTestEEEEE9constructISC_JS1_IS7_SB_EEEEvRSE_PT_DpOT0_"
 "_ZNSt16allocator_traitsISaISt6vectorIN5Catch3PtrINS1_22CumulativeReporterBase11SectionNodeEEESaIS5_EEEE10deallocateERS8_PS7_y"
 "_ZNSt16allocator_traitsISaIyEE10deallocateERS0_Pyy"
 "_ZNSt16allocator_traitsISaIyEE7destroyIyEEvRS0_PT_"
 "_ZNSt16allocator_traitsISaIyEE8allocateERS0_y"
 "_ZNSt16allocator_traitsISaIyEE8max_sizeERKS0_"
 "_ZNSt16allocator_traitsISaIyEE9constructIyJRKyEEEvRS0_PT_DpOT0_"
 "_ZNSt16reverse_iteratorIN9__gnu_cxx17__normal_iteratorIPKcNSt7__cxx1112basic_stringIcSt11char_traitsIcESaIcEEEEEEC1ERKSB_"
 "_ZNSt16reverse_iteratorIN9__gnu_cxx17__normal_iteratorIPKN5Catch14SectionEndInfoESt6vectorIS3_SaIS3_EEEEEC1INS1_IPS3_S8_EEEERKS_IT_E"
 "_ZNSt16reverse_iteratorIN9__gnu_cxx17__normal_iteratorIPKN5Catch14SectionEndInfoESt6vectorIS3_SaIS3_EEEEEppEv"
 "_ZNSt16reverse_iteratorIN9__gnu_cxx17__normal_iteratorIPN5Catch14SectionEndInfoESt6vectorIS3_SaIS3_EEEEEC1ES8_"
 "_ZNSt16reverse_iteratorIPKcEC1ERKS2_"
 "_ZNSt16reverse_iteratorIPKcEC1ES1_"
 "_ZNSt16reverse_iteratorIPKcEppEv"
 "_ZNSt17_Rb_tree_iteratorIN5Catch8TestCaseEEC1EPSt18_Rb_tree_node_base"
 "_ZNSt17_Rb_tree_iteratorIN5Catch8TestCaseEEmmEv"
 "_ZNSt17_Rb_tree_iteratorINSt7__cxx1112basic_stringIcSt11char_traitsIcESaIcEEEEC1EPSt18_Rb_tree_node_base"
 "_ZNSt17_Rb_tree_iteratorINSt7__cxx1112basic_stringIcSt11char_traitsIcESaIcEEEEmmEv"
 "_ZNSt17_Rb_tree_iteratorISt4pairIKNSt7__cxx1112basic_stringIcSt11char_traitsIcESaIcEEEN5Catch3PtrINS8_16IReporterFactoryEEEEEC1EPSt18_Rb_tree_node_base"
 "_ZNSt17_Rb_tree_iteratorISt4pairIKNSt7__cxx1112basic_stringIcSt11char_traitsIcESaIcEEEN5Catch3PtrINS8_16IReporterFactoryEEEEEmmEv"
 "_ZNSt17_Rb_tree_iteratorISt4pairIKNSt7__cxx1112basic_stringIcSt11char_traitsIcESaIcEEEN5Catch7TagInfoEEEC1EPSt18_Rb_tree_node_base"
 "_ZNSt17_Rb_tree_iteratorISt4pairIKNSt7__cxx1112basic_stringIcSt11char_traitsIcESaIcEEEN5Catch7TagInfoEEEmmEv"
 "_ZNSt17_Rb_tree_iteratorISt4pairIKNSt7__cxx1112basic_stringIcSt11char_traitsIcESaIcEEEN5Catch8TagAliasEEEC1EPSt18_Rb_tree_node_base"
 "_ZNSt17_Rb_tree_iteratorISt4pairIKNSt7__cxx1112basic_stringIcSt11char_traitsIcESaIcEEEN5Catch8TagAliasEEEmmEv"
 "_ZNSt17_Rb_tree_iteratorISt4pairIKNSt7__cxx1112basic_stringIcSt11char_traitsIcESaIcEEEPN5Catch14IGeneratorInfoEEEC1EPSt18_Rb_tree_node_base"
 "_ZNSt17_Rb_tree_iteratorISt4pairIKNSt7__cxx1112basic_stringIcSt11char_traitsIcESaIcEEEPN5Catch14IGeneratorInfoEEEmmEv"
 "_ZNSt17_Rb_tree_iteratorISt4pairIKNSt7__cxx1112basic_stringIcSt11char_traitsIcESaIcEEEPN5Catch18IGeneratorsForTestEEEC1EPSt18_Rb_tree_node_base"
 "_ZNSt17_Rb_tree_iteratorISt4pairIKNSt7__cxx1112basic_stringIcSt11char_traitsIcESaIcEEEPN5Catch18IGeneratorsForTestEEEmmEv"
 "_ZNSt18_Rb_tree_node_base10_S_maximumEPS_"
 "_ZNSt18_Rb_tree_node_base10_S_minimumEPS_"
 "_ZNSt20__copy_move_backwardILb1ELb0ESt26random_access_iterator_tagE13__copy_move_bIPN5Catch8TestCaseES5_EET0_T_S7_S6_"
 "_ZNSt20__copy_move_backwardILb1ELb0ESt26random_access_iterator_tagE13__copy_move_bIPNSt7__cxx1112basic_stringIcSt11char_traitsIcESaIcEEES9_EET0_T_SB_SA_"
 "_ZNSt20__uninitialized_copyILb0EE13__uninit_copyIN9__gnu_cxx17__normal_iteratorIPKN5Catch11MessageInfoESt6vectorIS5_SaIS5_EEEEPS5_EET0_T_SE_SD_"
 "_ZNSt20__uninitialized_copyILb0EE13__uninit_copyIN9__gnu_cxx17__normal_iteratorIPKN5Catch3PtrINS4_16IReporterFactoryEEESt6vectorIS7_SaIS7_EEEEPS7_EET0_T_SG_SF_"
 "_ZNSt20__uninitialized_copyILb0EE13__uninit_copyIN9__gnu_cxx17__normal_iteratorIPKN5Catch3PtrINS4_8TestSpec7PatternEEESt6vectorIS8_SaIS8_EEEEPS8_EET0_T_SH_SG_"
 "_ZNSt20__uninitialized_copyILb0EE13__uninit_copyIN9__gnu_cxx17__normal_iteratorIPKN5Catch5Clara6Parser5TokenESt6vectorIS7_SaIS7_EEEEPS7_EET0_T_SG_SF_"
 "_ZNSt20__uninitialized_copyILb0EE13__uninit_copyIN9__gnu_cxx17__normal_iteratorIPKN5Catch8TestCaseESt6vectorIS5_SaIS5_EEEEPS5_EET0_T_SE_SD_"
 "_ZNSt20__uninitialized_copyILb0EE13__uninit_copyIN9__gnu_cxx17__normal_iteratorIPKN5Catch8TestSpec6FilterESt6vectorIS6_SaIS6_EEEEPS6_EET0_T_SF_SE_"
 "_ZNSt20__uninitialized_copyILb0EE13__uninit_copyIN9__gnu_cxx17__normal_iteratorIPKNSt7__cxx1112basic_stringIcSt11char_traitsIcESaIcEEESt6vectorIS9_SaIS9_EEEEPS9_EET0_T_SI_SH_"
 "_ZNSt20__uninitialized_copyILb0EE13__uninit_copyIPKN5Catch3PtrINS2_16IReporterFactoryEEEPS5_EET0_T_SA_S9_"
 "_ZNSt20__uninitialized_copyILb0EE13__uninit_copyIPKN5Catch3PtrINS2_16TestCaseTracking8ITrackerEEEPS6_EET0_T_SB_SA_"
 "_ZNSt20__uninitialized_copyILb0EE13__uninit_copyIPKN5Catch3PtrINS2_18IStreamingReporterEEEPS5_EET0_T_SA_S9_"
 "_ZNSt20__uninitialized_copyILb0EE13__uninit_copyIPKN5Catch3PtrINS2_22CumulativeReporterBase11SectionNodeEEEPS6_EET0_T_SB_SA_"
 "_ZNSt20__uninitialized_copyILb0EE13__uninit_copyIPKN5Catch3PtrINS2_22CumulativeReporterBase4NodeINS2_12TestRunStatsENS5_INS2_14TestGroupStatsENS5_INS2_13TestCaseStatsENS4_11SectionNodeEEEEEEEEEPSD_EET0_T_SI_SH_"
 "_ZNSt20__uninitialized_copyILb0EE13__uninit_copyIPKN5Catch3PtrINS2_22CumulativeReporterBase4NodeINS2_13TestCaseStatsENS4_11SectionNodeEEEEEPS9_EET0_T_SE_SD_"
 "_ZNSt20__uninitialized_copyILb0EE13__uninit_copyIPKN5Catch3PtrINS2_22CumulativeReporterBase4NodeINS2_14TestGroupStatsENS5_INS2_13TestCaseStatsENS4_11SectionNodeEEEEEEEPSB_EET0_T_SG_SF_"
 "_ZNSt20__uninitialized_copyILb0EE13__uninit_copyIPKN5Catch3PtrINS2_8TestSpec7PatternEEEPS6_EET0_T_SB_SA_"
 "_ZNSt20__uninitialized_copyILb0EE13__uninit_copyIPKN5Catch5Clara11CommandLineINS2_10ConfigDataEE3ArgEPS7_EET0_T_SC_SB_"
 "_ZNSt20__uninitialized_copyILb0EE13__uninit_copyIPKN5Catch8TestCaseEPS3_EET0_T_S8_S7_"
 "_ZNSt20__uninitialized_copyILb0EE13__uninit_copyISt13move_iteratorIPN5Catch11MessageInfoEES5_EET0_T_S8_S7_"
 "_ZNSt20__uninitialized_copyILb0EE13__uninit_copyISt13move_iteratorIPN5Catch11SectionInfoEES5_EET0_T_S8_S7_"
 "_ZNSt20__uninitialized_copyILb0EE13__uninit_copyISt13move_iteratorIPN5Catch14AssertionStatsEES5_EET0_T_S8_S7_"
 "_ZNSt20__uninitialized_copyILb0EE13__uninit_copyISt13move_iteratorIPN5Catch14SectionEndInfoEES5_EET0_T_S8_S7_"
 "_ZNSt20__uninitialized_copyILb0EE13__uninit_copyISt13move_iteratorIPN5Catch15ConsoleReporter13SummaryColumnEES6_EET0_T_S9_S8_"
 "_ZNSt20__uninitialized_copyILb0EE13__uninit_copyISt13move_iteratorIPN5Catch5Clara6Parser5TokenEES7_EET0_T_SA_S9_"
 "_ZNSt20__uninitialized_copyILb0EE13__uninit_copyISt13move_iteratorIPN5Catch8TestSpec6FilterEES6_EET0_T_S9_S8_"
 "_ZNSt20__uninitialized_copyILb0EE13__uninit_copyISt13move_iteratorIPNSt7__cxx1112basic_stringIcSt11char_traitsIcESaIcEEEES9_EET0_T_SC_SB_"
 "_ZNSt20__uninitialized_copyILb1EE13__uninit_copyISt13move_iteratorIPPKN5Catch20IExceptionTranslatorEES7_EET0_T_SA_S9_"
 "_ZNSt20__uninitialized_copyILb1EE13__uninit_copyISt13move_iteratorIPPN5Catch14IGeneratorInfoEES6_EET0_T_S9_S8_"
 "_ZNSt20__uninitialized_copyILb1EE13__uninit_copyISt13move_iteratorIPPN5Catch16TestCaseTracking8ITrackerEES7_EET0_T_SA_S9_"
 "_ZNSt20__uninitialized_copyILb1EE13__uninit_copyISt13move_iteratorIPyES3_EET0_T_S6_S5_"
 "_ZNSt20_Rb_tree_key_compareISt4lessIiEEC2Ev"
 "_ZNSt20_Rb_tree_key_compareISt4lessIN5Catch8TestCaseEEEC2Ev"
 "_ZNSt20_Rb_tree_key_compareISt4lessINSt7__cxx1112basic_stringIcSt11char_traitsIcESaIcEEEEEC2EOS8_"
 "_ZNSt20_Rb_tree_key_compareISt4lessINSt7__cxx1112basic_stringIcSt11char_traitsIcESaIcEEEEEC2ERKS7_"
 "_ZNSt20_Rb_tree_key_compareISt4lessINSt7__cxx1112basic_stringIcSt11char_traitsIcESaIcEEEEEC2Ev"
 "_ZNSt23_Rb_tree_const_iteratorIN5Catch8TestCaseEEC1ERKSt17_Rb_tree_iteratorIS1_E"
 "_ZNSt23_Rb_tree_const_iteratorINSt7__cxx1112basic_stringIcSt11char_traitsIcESaIcEEEEC1EPKSt18_Rb_tree_node_base"
 "_ZNSt23_Rb_tree_const_iteratorINSt7__cxx1112basic_stringIcSt11char_traitsIcESaIcEEEEC1ERKSt17_Rb_tree_iteratorIS5_E"
 "_ZNSt23_Rb_tree_const_iteratorINSt7__cxx1112basic_stringIcSt11char_traitsIcESaIcEEEEppEv"
 "_ZNSt23_Rb_tree_const_iteratorISt4pairIKiN5Catch5Clara11CommandLineINS2_10ConfigDataEE3ArgEEEC1EPKSt18_Rb_tree_node_base"
 "_ZNSt23_Rb_tree_const_iteratorISt4pairIKNSt7__cxx1112basic_stringIcSt11char_traitsIcESaIcEEEN5Catch3PtrINS8_16IReporterFactoryEEEEEC1EPKSt18_Rb_tree_node_base"
 "_ZNSt23_Rb_tree_const_iteratorISt4pairIKNSt7__cxx1112basic_stringIcSt11char_traitsIcESaIcEEEN5Catch3PtrINS8_16IReporterFactoryEEEEEC1Ev"
 "_ZNSt23_Rb_tree_const_iteratorISt4pairIKNSt7__cxx1112basic_stringIcSt11char_traitsIcESaIcEEEN5Catch3PtrINS8_16IReporterFactoryEEEEEppEv"
 "_ZNSt23_Rb_tree_const_iteratorISt4pairIKNSt7__cxx1112basic_stringIcSt11char_traitsIcESaIcEEEN5Catch7TagInfoEEEC1ERKSt17_Rb_tree_iteratorISA_E"
 "_ZNSt23_Rb_tree_const_iteratorISt4pairIKNSt7__cxx1112basic_stringIcSt11char_traitsIcESaIcEEEN5Catch7TagInfoEEEppEv"
 "_ZNSt23_Rb_tree_const_iteratorISt4pairIKNSt7__cxx1112basic_stringIcSt11char_traitsIcESaIcEEEN5Catch8TagAliasEEEC1EPKSt18_Rb_tree_node_base"
 "_ZNSt23_Rb_tree_const_iteratorISt4pairIKNSt7__cxx1112basic_stringIcSt11char_traitsIcESaIcEEEN5Catch8TagAliasEEEppEv"
 "_ZNSt23_Rb_tree_const_iteratorISt4pairIKNSt7__cxx1112basic_stringIcSt11char_traitsIcESaIcEEEPN5Catch14IGeneratorInfoEEEC1ERKSt17_Rb_tree_iteratorISB_E"
 "_ZNSt23_Rb_tree_const_iteratorISt4pairIKNSt7__cxx1112basic_stringIcSt11char_traitsIcESaIcEEEPN5Catch18IGeneratorsForTestEEEC1ERKSt17_Rb_tree_iteratorISB_E"
 "_ZNSt23_Rb_tree_const_iteratorISt4pairIKNSt7__cxx1112basic_stringIcSt11char_traitsIcESaIcEEEPN5Catch18IGeneratorsForTestEEEppEv"
 "_ZNSt23mersenne_twister_engineIjLy32ELy624ELy397ELy31ELj2567483615ELy11ELj4294967295ELy7ELj2636928640ELy15ELj4022730752ELy18ELj1812433253EE11_M_gen_randEv"
 "_ZNSt23mersenne_twister_engineIjLy32ELy624ELy397ELy31ELj2567483615ELy11ELj4294967295ELy7ELj2636928640ELy15ELj4022730752ELy18ELj1812433253EE4seedEj"
 "_ZNSt23mersenne_twister_engineIjLy32ELy624ELy397ELy31ELj2567483615ELy11ELj4294967295ELy7ELj2636928640ELy15ELj4022730752ELy18ELj1812433253EEC1Ej"
 "_ZNSt23mersenne_twister_engineIjLy32ELy624ELy397ELy31ELj2567483615ELy11ELj4294967295ELy7ELj2636928640ELy15ELj4022730752ELy18ELj1812433253EEclEv"
 "_ZNSt24uniform_int_distributionIyE10param_typeC1Eyy"
 "_ZNSt24uniform_int_distributionIyEC1Ev"
 "_ZNSt24uniform_int_distributionIyEC1Eyy"
 "_ZNSt24uniform_int_distributionIyEclISt23mersenne_twister_engineIjLy32ELy624ELy397ELy31ELj2567483615ELy11ELj4294967295ELy7ELj2636928640ELy15ELj4022730752ELy18ELj1812433253EEEEyRT_"
 "_ZNSt24uniform_int_distributionIyEclISt23mersenne_twister_engineIjLy32ELy624ELy397ELy31ELj2567483615ELy11ELj4294967295ELy7ELj2636928640ELy15ELj4022730752ELy18ELj1812433253EEEEyRT_RKNS0_10param_typeE"
 "_ZNSt27__uninitialized_default_n_1ILb0EE18__uninit_default_nIPNSt7__cxx1112basic_stringIcSt11char_traitsIcESaIcEEEyEET_S9_T0_"
 "_ZNSt3mapIiN5Catch5Clara11CommandLineINS0_10ConfigDataEE3ArgESt4lessIiESaISt4pairIKiS5_EEEC1Ev"
 "_ZNSt3mapIiN5Catch5Clara11CommandLineINS0_10ConfigDataEE3ArgESt4lessIiESaISt4pairIKiS5_EEED1Ev"
 "_ZNSt3mapINSt7__cxx1112basic_stringIcSt11char_traitsIcESaIcEEEN5Catch3PtrINS6_16IReporterFactoryEEESt4lessIS5_ESaISt4pairIKS5_S9_EEE6insertISC_IS5_S9_EEENSt9enable_ifIXsrSt16is_constructibleISE_JT_EE5valueESC_ISt17_Rb_tree_iteratorISE_EbEE4typeEOSL_"
 "_ZNSt3mapINSt7__cxx1112basic_stringIcSt11char_traitsIcESaIcEEEN5Catch3PtrINS6_16IReporterFactoryEEESt4lessIS5_ESaISt4pairIKS5_S9_EEEC1Ev"
 "_ZNSt3mapINSt7__cxx1112basic_stringIcSt11char_traitsIcESaIcEEEN5Catch3PtrINS6_16IReporterFactoryEEESt4lessIS5_ESaISt4pairIKS5_S9_EEED1Ev"
 "_ZNSt3mapINSt7__cxx1112basic_stringIcSt11char_traitsIcESaIcEEEN5Catch7TagInfoESt4lessIS5_ESaISt4pairIKS5_S7_EEE3endEv"
 "_ZNSt3mapINSt7__cxx1112basic_stringIcSt11char_traitsIcESaIcEEEN5Catch7TagInfoESt4lessIS5_ESaISt4pairIKS5_S7_EEE4findERSB_"
 "_ZNSt3mapINSt7__cxx1112basic_stringIcSt11char_traitsIcESaIcEEEN5Catch7TagInfoESt4lessIS5_ESaISt4pairIKS5_S7_EEE5beginEv"
 "_ZNSt3mapINSt7__cxx1112basic_stringIcSt11char_traitsIcESaIcEEEN5Catch7TagInfoESt4lessIS5_ESaISt4pairIKS5_S7_EEE6insertISA_IS5_S7_EEENSt9enable_ifIXsrSt16is_constructibleISC_JT_EE5valueESA_ISt17_Rb_tree_iteratorISC_EbEE4typeEOSJ_"
 "_ZNSt3mapINSt7__cxx1112basic_stringIcSt11char_traitsIcESaIcEEEN5Catch7TagInfoESt4lessIS5_ESaISt4pairIKS5_S7_EEEC1Ev"
 "_ZNSt3mapINSt7__cxx1112basic_stringIcSt11char_traitsIcESaIcEEEN5Catch7TagInfoESt4lessIS5_ESaISt4pairIKS5_S7_EEED1Ev"
 "_ZNSt3mapINSt7__cxx1112basic_stringIcSt11char_traitsIcESaIcEEEN5Catch8TagAliasESt4lessIS5_ESaISt4pairIKS5_S7_EEE6insertISA_IS5_S7_EEENSt9enable_ifIXsrSt16is_constructibleISC_JT_EE5valueESA_ISt17_Rb_tree_iteratorISC_EbEE4typeEOSJ_"
 "_ZNSt3mapINSt7__cxx1112basic_stringIcSt11char_traitsIcESaIcEEEN5Catch8TagAliasESt4lessIS5_ESaISt4pairIKS5_S7_EEEC1Ev"
 "_ZNSt3mapINSt7__cxx1112basic_stringIcSt11char_traitsIcESaIcEEEN5Catch8TagAliasESt4lessIS5_ESaISt4pairIKS5_S7_EEED1Ev"
 "_ZNSt3mapINSt7__cxx1112basic_stringIcSt11char_traitsIcESaIcEEEPN5Catch14IGeneratorInfoESt4lessIS5_ESaISt4pairIKS5_S8_EEE3endEv"
 "_ZNSt3mapINSt7__cxx1112basic_stringIcSt11char_traitsIcESaIcEEEPN5Catch14IGeneratorInfoESt4lessIS5_ESaISt4pairIKS5_S8_EEE4findERSC_"
 "_ZNSt3mapINSt7__cxx1112basic_stringIcSt11char_traitsIcESaIcEEEPN5Catch14IGeneratorInfoESt4lessIS5_ESaISt4pairIKS5_S8_EEE6insertISB_IS5_S8_EEENSt9enable_ifIXsrSt16is_constructibleISD_JT_EE5valueESB_ISt17_Rb_tree_iteratorISD_EbEE4typeEOSK_"
 "_ZNSt3mapINSt7__cxx1112basic_stringIcSt11char_traitsIcESaIcEEEPN5Catch14IGeneratorInfoESt4lessIS5_ESaISt4pairIKS5_S8_EEEC1Ev"
 "_ZNSt3mapINSt7__cxx1112basic_stringIcSt11char_traitsIcESaIcEEEPN5Catch14IGeneratorInfoESt4lessIS5_ESaISt4pairIKS5_S8_EEED1Ev"
 "_ZNSt3mapINSt7__cxx1112basic_stringIcSt11char_traitsIcESaIcEEEPN5Catch18IGeneratorsForTestESt4lessIS5_ESaISt4pairIKS5_S8_EEE3endEv"
 "_ZNSt3mapINSt7__cxx1112basic_stringIcSt11char_traitsIcESaIcEEEPN5Catch18IGeneratorsForTestESt4lessIS5_ESaISt4pairIKS5_S8_EEE4findERSC_"
 "_ZNSt3mapINSt7__cxx1112basic_stringIcSt11char_traitsIcESaIcEEEPN5Catch18IGeneratorsForTestESt4lessIS5_ESaISt4pairIKS5_S8_EEE5beginEv"
 "_ZNSt3mapINSt7__cxx1112basic_stringIcSt11char_traitsIcESaIcEEEPN5Catch18IGeneratorsForTestESt4lessIS5_ESaISt4pairIKS5_S8_EEE6insertISB_IS5_S8_EEENSt9enable_ifIXsrSt16is_constructibleISD_JT_EE5valueESB_ISt17_Rb_tree_iteratorISD_EbEE4typeEOSK_"
 "_ZNSt3mapINSt7__cxx1112basic_stringIcSt11char_traitsIcESaIcEEEPN5Catch18IGeneratorsForTestESt4lessIS5_ESaISt4pairIKS5_S8_EEEC1Ev"
 "_ZNSt3mapINSt7__cxx1112basic_stringIcSt11char_traitsIcESaIcEEEPN5Catch18IGeneratorsForTestESt4lessIS5_ESaISt4pairIKS5_S8_EEED1Ev"
 "_ZNSt3setIN5Catch8TestCaseESt4lessIS1_ESaIS1_EE6insertERKS1_"
 "_ZNSt3setIN5Catch8TestCaseESt4lessIS1_ESaIS1_EEC1Ev"
 "_ZNSt3setIN5Catch8TestCaseESt4lessIS1_ESaIS1_EED1Ev"
 "_ZNSt3setINSt7__cxx1112basic_stringIcSt11char_traitsIcESaIcEEESt4lessIS5_ESaIS5_EE4swapERS9_"
 "_ZNSt3setINSt7__cxx1112basic_stringIcSt11char_traitsIcESaIcEEESt4lessIS5_ESaIS5_EE5clearEv"
 "_ZNSt3setINSt7__cxx1112basic_stringIcSt11char_traitsIcESaIcEEESt4lessIS5_ESaIS5_EE6insertEOS5_"
 "_ZNSt3setINSt7__cxx1112basic_stringIcSt11char_traitsIcESaIcEEESt4lessIS5_ESaIS5_EE6insertERKS5_"
 "_ZNSt3setINSt7__cxx1112basic_stringIcSt11char_traitsIcESaIcEEESt4lessIS5_ESaIS5_EEaSERKS9_"
 "_ZNSt3setINSt7__cxx1112basic_stringIcSt11char_traitsIcESaIcEEESt4lessIS5_ESaIS5_EEC1EOS9_"
 "_ZNSt3setINSt7__cxx1112basic_stringIcSt11char_traitsIcESaIcEEESt4lessIS5_ESaIS5_EEC1ERKS9_"
 "_ZNSt3setINSt7__cxx1112basic_stringIcSt11char_traitsIcESaIcEEESt4lessIS5_ESaIS5_EEC1Ev"
 "_ZNSt3setINSt7__cxx1112basic_stringIcSt11char_traitsIcESaIcEEESt4lessIS5_ESaIS5_EED1Ev"
 "_ZNSt4pairIKiN5Catch5Clara11CommandLineINS1_10ConfigDataEE3ArgEED1Ev"
 "_ZNSt4pairIKNSt7__cxx1112basic_stringIcSt11char_traitsIcESaIcEEEN5Catch3PtrINS7_16IReporterFactoryEEEEC1IS5_SA_Lb1EEEOS_IT_T0_E"
 "_ZNSt4pairIKNSt7__cxx1112basic_stringIcSt11char_traitsIcESaIcEEEN5Catch3PtrINS7_16IReporterFactoryEEEED1Ev"
 "_ZNSt4pairIKNSt7__cxx1112basic_stringIcSt11char_traitsIcESaIcEEEN5Catch7TagInfoEEC1IS5_S8_Lb1EEEOS_IT_T0_E"
 "_ZNSt4pairIKNSt7__cxx1112basic_stringIcSt11char_traitsIcESaIcEEEN5Catch7TagInfoEED1Ev"
 "_ZNSt4pairIKNSt7__cxx1112basic_stringIcSt11char_traitsIcESaIcEEEN5Catch8TagAliasEEC1IS5_S8_Lb1EEEOS_IT_T0_E"
 "_ZNSt4pairIKNSt7__cxx1112basic_stringIcSt11char_traitsIcESaIcEEEN5Catch8TagAliasEED1Ev"
 "_ZNSt4pairIKNSt7__cxx1112basic_stringIcSt11char_traitsIcESaIcEEEPN5Catch14IGeneratorInfoEEC1IS5_S9_Lb1EEEOS_IT_T0_E"
 "_ZNSt4pairIKNSt7__cxx1112basic_stringIcSt11char_traitsIcESaIcEEEPN5Catch14IGeneratorInfoEED1Ev"
 "_ZNSt4pairIKNSt7__cxx1112basic_stringIcSt11char_traitsIcESaIcEEEPN5Catch18IGeneratorsForTestEEC1IS5_S9_Lb1EEEOS_IT_T0_E"
 "_ZNSt4pairIKNSt7__cxx1112basic_stringIcSt11char_traitsIcESaIcEEEPN5Catch18IGeneratorsForTestEED1Ev"
 "_ZNSt4pairINSt7__cxx1112basic_stringIcSt11char_traitsIcESaIcEEEN5Catch3PtrINS6_16IReporterFactoryEEEEC1IS5_S9_Lb1EEERKS5_RKS9_"
 "_ZNSt4pairINSt7__cxx1112basic_stringIcSt11char_traitsIcESaIcEEEN5Catch3PtrINS6_16IReporterFactoryEEEED1Ev"
 "_ZNSt4pairINSt7__cxx1112basic_stringIcSt11char_traitsIcESaIcEEEN5Catch7TagInfoEEC1IRS5_S7_Lb1EEEOT_OT0_"
 "_ZNSt4pairINSt7__cxx1112basic_stringIcSt11char_traitsIcESaIcEEEN5Catch7TagInfoEED1Ev"
 "_ZNSt4pairINSt7__cxx1112basic_stringIcSt11char_traitsIcESaIcEEEN5Catch8TagAliasEEC1IS7_Lb1EEERKS5_OT_"
 "_ZNSt4pairINSt7__cxx1112basic_stringIcSt11char_traitsIcESaIcEEEN5Catch8TagAliasEED1Ev"
 "_ZNSt4pairINSt7__cxx1112basic_stringIcSt11char_traitsIcESaIcEEEPN5Catch14IGeneratorInfoEEC1IRS8_Lb1EEERKS5_OT_"
 "_ZNSt4pairINSt7__cxx1112basic_stringIcSt11char_traitsIcESaIcEEEPN5Catch14IGeneratorInfoEED1Ev"
 "_ZNSt4pairINSt7__cxx1112basic_stringIcSt11char_traitsIcESaIcEEEPN5Catch18IGeneratorsForTestEEC1IRS5_RS8_Lb1EEEOT_OT0_"
 "_ZNSt4pairINSt7__cxx1112basic_stringIcSt11char_traitsIcESaIcEEEPN5Catch18IGeneratorsForTestEED1Ev"
 "_ZNSt4pairIPSt18_Rb_tree_node_baseS1_EC1IRPSt13_Rb_tree_nodeIN5Catch8TestCaseEERS1_Lb1EEEOT_OT0_"
 "_ZNSt4pairIPSt18_Rb_tree_node_baseS1_EC1IRPSt13_Rb_tree_nodeINSt7__cxx1112basic_stringIcSt11char_traitsIcESaIcEEEERS1_Lb1EEEOT_OT0_"
 "_ZNSt4pairIPSt18_Rb_tree_node_baseS1_EC1IRPSt13_Rb_tree_nodeIS_IKNSt7__cxx1112basic_stringIcSt11char_traitsIcESaIcEEEN5Catch3PtrINSC_16IReporterFactoryEEEEERS1_Lb1EEEOT_OT0_"
 "_ZNSt4pairIPSt18_Rb_tree_node_baseS1_EC1IRPSt13_Rb_tree_nodeIS_IKNSt7__cxx1112basic_stringIcSt11char_traitsIcESaIcEEEN5Catch7TagInfoEEERS1_Lb1EEEOT_OT0_"
 "_ZNSt4pairIPSt18_Rb_tree_node_baseS1_EC1IRPSt13_Rb_tree_nodeIS_IKNSt7__cxx1112basic_stringIcSt11char_traitsIcESaIcEEEN5Catch8TagAliasEEERS1_Lb1EEEOT_OT0_"
 "_ZNSt4pairIPSt18_Rb_tree_node_baseS1_EC1IRPSt13_Rb_tree_nodeIS_IKNSt7__cxx1112basic_stringIcSt11char_traitsIcESaIcEEEPN5Catch14IGeneratorInfoEEERS1_Lb1EEEOT_OT0_"
 "_ZNSt4pairIPSt18_Rb_tree_node_baseS1_EC1IRPSt13_Rb_tree_nodeIS_IKNSt7__cxx1112basic_stringIcSt11char_traitsIcESaIcEEEPN5Catch18IGeneratorsForTestEEERS1_Lb1EEEOT_OT0_"
 "_ZNSt4pairIPSt18_Rb_tree_node_baseS1_EC1IRS1_Lb1EEEOT_RKS1_"
 "_ZNSt4pairISt17_Rb_tree_iteratorIN5Catch8TestCaseEEbEC1IS3_bLb1EEEOT_OT0_"
 "_ZNSt4pairISt17_Rb_tree_iteratorINSt7__cxx1112basic_stringIcSt11char_traitsIcESaIcEEEEbEC1IS7_bLb1EEEOT_OT0_"
 "_ZNSt4pairISt17_Rb_tree_iteratorIS_IKNSt7__cxx1112basic_stringIcSt11char_traitsIcESaIcEEEN5Catch3PtrINS8_16IReporterFactoryEEEEEbEC1ISD_bLb1EEEOT_OT0_"
 "_ZNSt4pairISt17_Rb_tree_iteratorIS_IKNSt7__cxx1112basic_stringIcSt11char_traitsIcESaIcEEEN5Catch7TagInfoEEEbEC1ISB_bLb1EEEOT_OT0_"
 "_ZNSt4pairISt17_Rb_tree_iteratorIS_IKNSt7__cxx1112basic_stringIcSt11char_traitsIcESaIcEEEN5Catch8TagAliasEEEbEC1ISB_bLb1EEEOT_OT0_"
 "_ZNSt4pairISt17_Rb_tree_iteratorIS_IKNSt7__cxx1112basic_stringIcSt11char_traitsIcESaIcEEEPN5Catch14IGeneratorInfoEEEbEC1ISC_bLb1EEEOT_OT0_"
 "_ZNSt4pairISt17_Rb_tree_iteratorIS_IKNSt7__cxx1112basic_stringIcSt11char_traitsIcESaIcEEEPN5Catch18IGeneratorsForTestEEEbEC1ISC_bLb1EEEOT_OT0_"
 "_ZNSt4pairISt23_Rb_tree_const_iteratorIN5Catch8TestCaseEEbEC1IRSt17_Rb_tree_iteratorIS2_ERbLb1EEEOT_OT0_"
 "_ZNSt4pairISt23_Rb_tree_const_iteratorINSt7__cxx1112basic_stringIcSt11char_traitsIcESaIcEEEEbEC1IRSt17_Rb_tree_iteratorIS6_ERbLb1EEEOT_OT0_"
 "_ZNSt4pairIyyEC1IyyLb1EEEOT_OT0_"
 "_ZNSt5tupleIJPKN5Catch7IStreamESt14default_deleteIS2_EEEC1ILb1ELb1EEEv"
 "_ZNSt5tupleIJPN5Catch13StreamBufBaseESt14default_deleteIS1_EEEC1ILb1ELb1EEEv"
 "_ZNSt5tupleIJPN5Catch5Clara11CommandLineINS0_10ConfigDataEE3ArgESt14default_deleteIS5_EEEC1ILb1ELb1EEEv"
 "_ZNSt6vectorIN5Catch11MessageInfoESaIS1_EE11_S_max_sizeERKS2_"
 "_ZNSt6vectorIN5Catch11MessageInfoESaIS1_EE11_S_relocateEPS1_S4_S4_RS2_"
 "_ZNSt6vectorIN5Catch11MessageInfoESaIS1_EE14_S_do_relocateEPS1_S4_S4_RS2_St17integral_constantIbLb1EE"
 "_ZNSt6vectorIN5Catch11MessageInfoESaIS1_EE15_M_erase_at_endEPS1_"
 "_ZNSt6vectorIN5Catch11MessageInfoESaIS1_EE15_S_use_relocateEv"
 "_ZNSt6vectorIN5Catch11MessageInfoESaIS1_EE17_M_realloc_insertIJRKS1_EEEvN9__gnu_cxx17__normal_iteratorIPS1_S3_EEDpOT_"
 "_ZNSt6vectorIN5Catch11MessageInfoESaIS1_EE19_S_nothrow_relocateESt17integral_constantIbLb1EE"
 "_ZNSt6vectorIN5Catch11MessageInfoESaIS1_EE3endEv"
 "_ZNSt6vectorIN5Catch11MessageInfoESaIS1_EE5beginEv"
 "_ZNSt6vectorIN5Catch11MessageInfoESaIS1_EE5clearEv"
 "_ZNSt6vectorIN5Catch11MessageInfoESaIS1_EE5eraseEN9__gnu_cxx17__normal_iteratorIPKS1_S3_EES8_"
 "_ZNSt6vectorIN5Catch11MessageInfoESaIS1_EE8_M_eraseEN9__gnu_cxx17__normal_iteratorIPS1_S3_EES7_"
 "_ZNSt6vectorIN5Catch11MessageInfoESaIS1_EE9push_backERKS1_"
 "_ZNSt6vectorIN5Catch11MessageInfoESaIS1_EEC1EOS3_"
 "_ZNSt6vectorIN5Catch11MessageInfoESaIS1_EEC1ERKS3_"
 "_ZNSt6vectorIN5Catch11MessageInfoESaIS1_EEC1Ev"
 "_ZNSt6vectorIN5Catch11MessageInfoESaIS1_EED1Ev"
 "_ZNSt6vectorIN5Catch11SectionInfoESaIS1_EE11_S_max_sizeERKS2_"
 "_ZNSt6vectorIN5Catch11SectionInfoESaIS1_EE11_S_relocateEPS1_S4_S4_RS2_"
 "_ZNSt6vectorIN5Catch11SectionInfoESaIS1_EE14_S_do_relocateEPS1_S4_S4_RS2_St17integral_constantIbLb1EE"
 "_ZNSt6vectorIN5Catch11SectionInfoESaIS1_EE15_S_use_relocateEv"
 "_ZNSt6vectorIN5Catch11SectionInfoESaIS1_EE17_M_realloc_insertIJRKS1_EEEvN9__gnu_cxx17__normal_iteratorIPS1_S3_EEDpOT_"
 "_ZNSt6vectorIN5Catch11SectionInfoESaIS1_EE19_S_nothrow_relocateESt17integral_constantIbLb1EE"
 "_ZNSt6vectorIN5Catch11SectionInfoESaIS1_EE3endEv"
 "_ZNSt6vectorIN5Catch11SectionInfoESaIS1_EE4backEv"
 "_ZNSt6vectorIN5Catch11SectionInfoESaIS1_EE5beginEv"
 "_ZNSt6vectorIN5Catch11SectionInfoESaIS1_EE8pop_backEv"
 "_ZNSt6vectorIN5Catch11SectionInfoESaIS1_EE9push_backERKS1_"
 "_ZNSt6vectorIN5Catch11SectionInfoESaIS1_EEC1Ev"
 "_ZNSt6vectorIN5Catch11SectionInfoESaIS1_EED1Ev"
 "_ZNSt6vectorIN5Catch14AssertionStatsESaIS1_EE11_S_max_sizeERKS2_"
 "_ZNSt6vectorIN5Catch14AssertionStatsESaIS1_EE11_S_relocateEPS1_S4_S4_RS2_"
 "_ZNSt6vectorIN5Catch14AssertionStatsESaIS1_EE14_S_do_relocateEPS1_S4_S4_RS2_St17integral_constantIbLb1EE"
 "_ZNSt6vectorIN5Catch14AssertionStatsESaIS1_EE15_S_use_relocateEv"
 "_ZNSt6vectorIN5Catch14AssertionStatsESaIS1_EE17_M_realloc_insertIJRKS1_EEEvN9__gnu_cxx17__normal_iteratorIPS1_S3_EEDpOT_"
 "_ZNSt6vectorIN5Catch14AssertionStatsESaIS1_EE19_S_nothrow_relocateESt17integral_constantIbLb1EE"
 "_ZNSt6vectorIN5Catch14AssertionStatsESaIS1_EE3endEv"
 "_ZNSt6vectorIN5Catch14AssertionStatsESaIS1_EE4backEv"
 "_ZNSt6vectorIN5Catch14AssertionStatsESaIS1_EE5beginEv"
 "_ZNSt6vectorIN5Catch14AssertionStatsESaIS1_EE9push_backERKS1_"
 "_ZNSt6vectorIN5Catch14AssertionStatsESaIS1_EEC1Ev"
 "_ZNSt6vectorIN5Catch14AssertionStatsESaIS1_EED1Ev"
 "_ZNSt6vectorIN5Catch14SectionEndInfoESaIS1_EE11_S_max_sizeERKS2_"
 "_ZNSt6vectorIN5Catch14SectionEndInfoESaIS1_EE11_S_relocateEPS1_S4_S4_RS2_"
 "_ZNSt6vectorIN5Catch14SectionEndInfoESaIS1_EE14_S_do_relocateEPS1_S4_S4_RS2_St17integral_constantIbLb1EE"
 "_ZNSt6vectorIN5Catch14SectionEndInfoESaIS1_EE15_M_erase_at_endEPS1_"
 "_ZNSt6vectorIN5Catch14SectionEndInfoESaIS1_EE15_S_use_relocateEv"
 "_ZNSt6vectorIN5Catch14SectionEndInfoESaIS1_EE17_M_realloc_insertIJRKS1_EEEvN9__gnu_cxx17__normal_iteratorIPS1_S3_EEDpOT_"
 "_ZNSt6vectorIN5Catch14SectionEndInfoESaIS1_EE19_S_nothrow_relocateESt17integral_constantIbLb1EE"
 "_ZNSt6vectorIN5Catch14SectionEndInfoESaIS1_EE3endEv"
 "_ZNSt6vectorIN5Catch14SectionEndInfoESaIS1_EE4rendEv"
 "_ZNSt6vectorIN5Catch14SectionEndInfoESaIS1_EE5beginEv"
 "_ZNSt6vectorIN5Catch14SectionEndInfoESaIS1_EE5clearEv"
 "_ZNSt6vectorIN5Catch14SectionEndInfoESaIS1_EE6rbeginEv"
 "_ZNSt6vectorIN5Catch14SectionEndInfoESaIS1_EE9push_backERKS1_"
 "_ZNSt6vectorIN5Catch14SectionEndInfoESaIS1_EEC1Ev"
 "_ZNSt6vectorIN5Catch14SectionEndInfoESaIS1_EED1Ev"
 "_ZNSt6vectorIN5Catch15ConsoleReporter13SummaryColumnESaIS2_EE11_S_max_sizeERKS3_"
 "_ZNSt6vectorIN5Catch15ConsoleReporter13SummaryColumnESaIS2_EE11_S_relocateEPS2_S5_S5_RS3_"
 "_ZNSt6vectorIN5Catch15ConsoleReporter13SummaryColumnESaIS2_EE12emplace_backIJS2_EEEvDpOT_"
 "_ZNSt6vectorIN5Catch15ConsoleReporter13SummaryColumnESaIS2_EE14_S_do_relocateEPS2_S5_S5_RS3_St17integral_constantIbLb1EE"
 "_ZNSt6vectorIN5Catch15ConsoleReporter13SummaryColumnESaIS2_EE15_S_use_relocateEv"
 "_ZNSt6vectorIN5Catch15ConsoleReporter13SummaryColumnESaIS2_EE17_M_realloc_insertIJS2_EEEvN9__gnu_cxx17__normal_iteratorIPS2_S4_EEDpOT_"
 "_ZNSt6vectorIN5Catch15ConsoleReporter13SummaryColumnESaIS2_EE19_S_nothrow_relocateESt17integral_constantIbLb1EE"
 "_ZNSt6vectorIN5Catch15ConsoleReporter13SummaryColumnESaIS2_EE3endEv"
 "_ZNSt6vectorIN5Catch15ConsoleReporter13SummaryColumnESaIS2_EE5beginEv"
 "_ZNSt6vectorIN5Catch15ConsoleReporter13SummaryColumnESaIS2_EE9push_backEOS2_"
 "_ZNSt6vectorIN5Catch15ConsoleReporter13SummaryColumnESaIS2_EEC1Ev"
 "_ZNSt6vectorIN5Catch15ConsoleReporter13SummaryColumnESaIS2_EED1Ev"
 "_ZNSt6vectorIN5Catch3PtrINS0_16IReporterFactoryEEESaIS3_EE11_S_max_sizeERKS4_"
 "_ZNSt6vectorIN5Catch3PtrINS0_16IReporterFactoryEEESaIS3_EE11_S_relocateEPS3_S6_S6_RS4_"
 "_ZNSt6vectorIN5Catch3PtrINS0_16IReporterFactoryEEESaIS3_EE14_S_do_relocateEPS3_S6_S6_RS4_St17integral_constantIbLb0EE"
 "_ZNSt6vectorIN5Catch3PtrINS0_16IReporterFactoryEEESaIS3_EE15_S_use_relocateEv"
 "_ZNSt6vectorIN5Catch3PtrINS0_16IReporterFactoryEEESaIS3_EE17_M_realloc_insertIJRKS3_EEEvN9__gnu_cxx17__normal_iteratorIPS3_S5_EEDpOT_"
 "_ZNSt6vectorIN5Catch3PtrINS0_16IReporterFactoryEEESaIS3_EE19_S_nothrow_relocateESt17integral_constantIbLb1EE"
 "_ZNSt6vectorIN5Catch3PtrINS0_16IReporterFactoryEEESaIS3_EE3endEv"
 "_ZNSt6vectorIN5Catch3PtrINS0_16IReporterFactoryEEESaIS3_EE5beginEv"
 "_ZNSt6vectorIN5Catch3PtrINS0_16IReporterFactoryEEESaIS3_EE9push_backERKS3_"
 "_ZNSt6vectorIN5Catch3PtrINS0_16IReporterFactoryEEESaIS3_EEC1ERKS5_"
 "_ZNSt6vectorIN5Catch3PtrINS0_16IReporterFactoryEEESaIS3_EEC1Ev"
 "_ZNSt6vectorIN5Catch3PtrINS0_16IReporterFactoryEEESaIS3_EED1Ev"
 "_ZNSt6vectorIN5Catch3PtrINS0_16TestCaseTracking8ITrackerEEESaIS4_EE11_S_max_sizeERKS5_"
 "_ZNSt6vectorIN5Catch3PtrINS0_16TestCaseTracking8ITrackerEEESaIS4_EE11_S_relocateEPS4_S7_S7_RS5_"
 "_ZNSt6vectorIN5Catch3PtrINS0_16TestCaseTracking8ITrackerEEESaIS4_EE14_S_do_relocateEPS4_S7_S7_RS5_St17integral_constantIbLb0EE"
 "_ZNSt6vectorIN5Catch3PtrINS0_16TestCaseTracking8ITrackerEEESaIS4_EE15_S_use_relocateEv"
 "_ZNSt6vectorIN5Catch3PtrINS0_16TestCaseTracking8ITrackerEEESaIS4_EE17_M_realloc_insertIJRKS4_EEEvN9__gnu_cxx17__normal_iteratorIPS4_S6_EEDpOT_"
 "_ZNSt6vectorIN5Catch3PtrINS0_16TestCaseTracking8ITrackerEEESaIS4_EE19_S_nothrow_relocateESt17integral_constantIbLb1EE"
 "_ZNSt6vectorIN5Catch3PtrINS0_16TestCaseTracking8ITrackerEEESaIS4_EE3endEv"
 "_ZNSt6vectorIN5Catch3PtrINS0_16TestCaseTracking8ITrackerEEESaIS4_EE4backEv"
 "_ZNSt6vectorIN5Catch3PtrINS0_16TestCaseTracking8ITrackerEEESaIS4_EE5beginEv"
 "_ZNSt6vectorIN5Catch3PtrINS0_16TestCaseTracking8ITrackerEEESaIS4_EE9push_backERKS4_"
 "_ZNSt6vectorIN5Catch3PtrINS0_16TestCaseTracking8ITrackerEEESaIS4_EEC1Ev"
 "_ZNSt6vectorIN5Catch3PtrINS0_16TestCaseTracking8ITrackerEEESaIS4_EED1Ev"
 "_ZNSt6vectorIN5Catch3PtrINS0_18IStreamingReporterEEESaIS3_EE11_S_max_sizeERKS4_"
 "_ZNSt6vectorIN5Catch3PtrINS0_18IStreamingReporterEEESaIS3_EE11_S_relocateEPS3_S6_S6_RS4_"
 "_ZNSt6vectorIN5Catch3PtrINS0_18IStreamingReporterEEESaIS3_EE14_S_do_relocateEPS3_S6_S6_RS4_St17integral_constantIbLb0EE"
 "_ZNSt6vectorIN5Catch3PtrINS0_18IStreamingReporterEEESaIS3_EE15_S_use_relocateEv"
 "_ZNSt6vectorIN5Catch3PtrINS0_18IStreamingReporterEEESaIS3_EE17_M_realloc_insertIJRKS3_EEEvN9__gnu_cxx17__normal_iteratorIPS3_S5_EEDpOT_"
 "_ZNSt6vectorIN5Catch3PtrINS0_18IStreamingReporterEEESaIS3_EE19_S_nothrow_relocateESt17integral_constantIbLb1EE"
 "_ZNSt6vectorIN5Catch3PtrINS0_18IStreamingReporterEEESaIS3_EE3endEv"
 "_ZNSt6vectorIN5Catch3PtrINS0_18IStreamingReporterEEESaIS3_EE5beginEv"
 "_ZNSt6vectorIN5Catch3PtrINS0_18IStreamingReporterEEESaIS3_EE9push_backERKS3_"
 "_ZNSt6vectorIN5Catch3PtrINS0_18IStreamingReporterEEESaIS3_EEC1Ev"
 "_ZNSt6vectorIN5Catch3PtrINS0_18IStreamingReporterEEESaIS3_EED1Ev"
 "_ZNSt6vectorIN5Catch3PtrINS0_22CumulativeReporterBase11SectionNodeEEESaIS4_EE11_S_max_sizeERKS5_"
 "_ZNSt6vectorIN5Catch3PtrINS0_22CumulativeReporterBase11SectionNodeEEESaIS4_EE11_S_relocateEPS4_S7_S7_RS5_"
 "_ZNSt6vectorIN5Catch3PtrINS0_22CumulativeReporterBase11SectionNodeEEESaIS4_EE14_S_do_relocateEPS4_S7_S7_RS5_St17integral_constantIbLb0EE"
 "_ZNSt6vectorIN5Catch3PtrINS0_22CumulativeReporterBase11SectionNodeEEESaIS4_EE15_S_use_relocateEv"
 "_ZNSt6vectorIN5Catch3PtrINS0_22CumulativeReporterBase11SectionNodeEEESaIS4_EE17_M_realloc_insertIJRKS4_EEEvN9__gnu_cxx17__normal_iteratorIPS4_S6_EEDpOT_"
 "_ZNSt6vectorIN5Catch3PtrINS0_22CumulativeReporterBase11SectionNodeEEESaIS4_EE19_S_nothrow_relocateESt17integral_constantIbLb1EE"
 "_ZNSt6vectorIN5Catch3PtrINS0_22CumulativeReporterBase11SectionNodeEEESaIS4_EE3endEv"
 "_ZNSt6vectorIN5Catch3PtrINS0_22CumulativeReporterBase11SectionNodeEEESaIS4_EE4backEv"
 "_ZNSt6vectorIN5Catch3PtrINS0_22CumulativeReporterBase11SectionNodeEEESaIS4_EE5beginEv"
 "_ZNSt6vectorIN5Catch3PtrINS0_22CumulativeReporterBase11SectionNodeEEESaIS4_EE8pop_backEv"
 "_ZNSt6vectorIN5Catch3PtrINS0_22CumulativeReporterBase11SectionNodeEEESaIS4_EE9push_backERKS4_"
 "_ZNSt6vectorIN5Catch3PtrINS0_22CumulativeReporterBase11SectionNodeEEESaIS4_EEC1Ev"
 "_ZNSt6vectorIN5Catch3PtrINS0_22CumulativeReporterBase11SectionNodeEEESaIS4_EED1Ev"
 "_ZNSt6vectorIN5Catch3PtrINS0_22CumulativeReporterBase4NodeINS0_12TestRunStatsENS3_INS0_14TestGroupStatsENS3_INS0_13TestCaseStatsENS2_11SectionNodeEEEEEEEEESaISB_EE11_S_max_sizeERKSC_"
 "_ZNSt6vectorIN5Catch3PtrINS0_22CumulativeReporterBase4NodeINS0_12TestRunStatsENS3_INS0_14TestGroupStatsENS3_INS0_13TestCaseStatsENS2_11SectionNodeEEEEEEEEESaISB_EE11_S_relocateEPSB_SE_SE_RSC_"
 "_ZNSt6vectorIN5Catch3PtrINS0_22CumulativeReporterBase4NodeINS0_12TestRunStatsENS3_INS0_14TestGroupStatsENS3_INS0_13TestCaseStatsENS2_11SectionNodeEEEEEEEEESaISB_EE14_S_do_relocateEPSB_SE_SE_RSC_St17integral_constantIbLb0EE"
 "_ZNSt6vectorIN5Catch3PtrINS0_22CumulativeReporterBase4NodeINS0_12TestRunStatsENS3_INS0_14TestGroupStatsENS3_INS0_13TestCaseStatsENS2_11SectionNodeEEEEEEEEESaISB_EE15_S_use_relocateEv"
 "_ZNSt6vectorIN5Catch3PtrINS0_22CumulativeReporterBase4NodeINS0_12TestRunStatsENS3_INS0_14TestGroupStatsENS3_INS0_13TestCaseStatsENS2_11SectionNodeEEEEEEEEESaISB_EE17_M_realloc_insertIJRKSB_EEEvN9__gnu_cxx17__normal_iteratorIPSB_SD_EEDpOT_"
 "_ZNSt6vectorIN5Catch3PtrINS0_22CumulativeReporterBase4NodeINS0_12TestRunStatsENS3_INS0_14TestGroupStatsENS3_INS0_13TestCaseStatsENS2_11SectionNodeEEEEEEEEESaISB_EE19_S_nothrow_relocateESt17integral_constantIbLb1EE"
 "_ZNSt6vectorIN5Catch3PtrINS0_22CumulativeReporterBase4NodeINS0_12TestRunStatsENS3_INS0_14TestGroupStatsENS3_INS0_13TestCaseStatsENS2_11SectionNodeEEEEEEEEESaISB_EE3endEv"
 "_ZNSt6vectorIN5Catch3PtrINS0_22CumulativeReporterBase4NodeINS0_12TestRunStatsENS3_INS0_14TestGroupStatsENS3_INS0_13TestCaseStatsENS2_11SectionNodeEEEEEEEEESaISB_EE5beginEv"
 "_ZNSt6vectorIN5Catch3PtrINS0_22CumulativeReporterBase4NodeINS0_12TestRunStatsENS3_INS0_14TestGroupStatsENS3_INS0_13TestCaseStatsENS2_11SectionNodeEEEEEEEEESaISB_EE9push_backERKSB_"
 "_ZNSt6vectorIN5Catch3PtrINS0_22CumulativeReporterBase4NodeINS0_12TestRunStatsENS3_INS0_14TestGroupStatsENS3_INS0_13TestCaseStatsENS2_11SectionNodeEEEEEEEEESaISB_EEC1Ev"
 "_ZNSt6vectorIN5Catch3PtrINS0_22CumulativeReporterBase4NodeINS0_12TestRunStatsENS3_INS0_14TestGroupStatsENS3_INS0_13TestCaseStatsENS2_11SectionNodeEEEEEEEEESaISB_EED1Ev"
 "_ZNSt6vectorIN5Catch3PtrINS0_22CumulativeReporterBase4NodeINS0_13TestCaseStatsENS2_11SectionNodeEEEEESaIS7_EE11_S_max_sizeERKS8_"
 "_ZNSt6vectorIN5Catch3PtrINS0_22CumulativeReporterBase4NodeINS0_13TestCaseStatsENS2_11SectionNodeEEEEESaIS7_EE11_S_relocateEPS7_SA_SA_RS8_"
 "_ZNSt6vectorIN5Catch3PtrINS0_22CumulativeReporterBase4NodeINS0_13TestCaseStatsENS2_11SectionNodeEEEEESaIS7_EE14_S_do_relocateEPS7_SA_SA_RS8_St17integral_constantIbLb0EE"
 "_ZNSt6vectorIN5Catch3PtrINS0_22CumulativeReporterBase4NodeINS0_13TestCaseStatsENS2_11SectionNodeEEEEESaIS7_EE15_S_use_relocateEv"
 "_ZNSt6vectorIN5Catch3PtrINS0_22CumulativeReporterBase4NodeINS0_13TestCaseStatsENS2_11SectionNodeEEEEESaIS7_EE17_M_realloc_insertIJRKS7_EEEvN9__gnu_cxx17__normal_iteratorIPS7_S9_EEDpOT_"
 "_ZNSt6vectorIN5Catch3PtrINS0_22CumulativeReporterBase4NodeINS0_13TestCaseStatsENS2_11SectionNodeEEEEESaIS7_EE19_S_nothrow_relocateESt17integral_constantIbLb1EE"
 "_ZNSt6vectorIN5Catch3PtrINS0_22CumulativeReporterBase4NodeINS0_13TestCaseStatsENS2_11SectionNodeEEEEESaIS7_EE3endEv"
 "_ZNSt6vectorIN5Catch3PtrINS0_22CumulativeReporterBase4NodeINS0_13TestCaseStatsENS2_11SectionNodeEEEEESaIS7_EE4swapERS9_"
 "_ZNSt6vectorIN5Catch3PtrINS0_22CumulativeReporterBase4NodeINS0_13TestCaseStatsENS2_11SectionNodeEEEEESaIS7_EE5beginEv"
 "_ZNSt6vectorIN5Catch3PtrINS0_22CumulativeReporterBase4NodeINS0_13TestCaseStatsENS2_11SectionNodeEEEEESaIS7_EE9push_backERKS7_"
 "_ZNSt6vectorIN5Catch3PtrINS0_22CumulativeReporterBase4NodeINS0_13TestCaseStatsENS2_11SectionNodeEEEEESaIS7_EEC1Ev"
 "_ZNSt6vectorIN5Catch3PtrINS0_22CumulativeReporterBase4NodeINS0_13TestCaseStatsENS2_11SectionNodeEEEEESaIS7_EED1Ev"
 "_ZNSt6vectorIN5Catch3PtrINS0_22CumulativeReporterBase4NodeINS0_14TestGroupStatsENS3_INS0_13TestCaseStatsENS2_11SectionNodeEEEEEEESaIS9_EE11_S_max_sizeERKSA_"
 "_ZNSt6vectorIN5Catch3PtrINS0_22CumulativeReporterBase4NodeINS0_14TestGroupStatsENS3_INS0_13TestCaseStatsENS2_11SectionNodeEEEEEEESaIS9_EE11_S_relocateEPS9_SC_SC_RSA_"
 "_ZNSt6vectorIN5Catch3PtrINS0_22CumulativeReporterBase4NodeINS0_14TestGroupStatsENS3_INS0_13TestCaseStatsENS2_11SectionNodeEEEEEEESaIS9_EE14_S_do_relocateEPS9_SC_SC_RSA_St17integral_constantIbLb0EE"
 "_ZNSt6vectorIN5Catch3PtrINS0_22CumulativeReporterBase4NodeINS0_14TestGroupStatsENS3_INS0_13TestCaseStatsENS2_11SectionNodeEEEEEEESaIS9_EE15_S_use_relocateEv"
 "_ZNSt6vectorIN5Catch3PtrINS0_22CumulativeReporterBase4NodeINS0_14TestGroupStatsENS3_INS0_13TestCaseStatsENS2_11SectionNodeEEEEEEESaIS9_EE17_M_realloc_insertIJRKS9_EEEvN9__gnu_cxx17__normal_iteratorIPS9_SB_EEDpOT_"
 "_ZNSt6vectorIN5Catch3PtrINS0_22CumulativeReporterBase4NodeINS0_14TestGroupStatsENS3_INS0_13TestCaseStatsENS2_11SectionNodeEEEEEEESaIS9_EE19_S_nothrow_relocateESt17integral_constantIbLb1EE"
 "_ZNSt6vectorIN5Catch3PtrINS0_22CumulativeReporterBase4NodeINS0_14TestGroupStatsENS3_INS0_13TestCaseStatsENS2_11SectionNodeEEEEEEESaIS9_EE3endEv"
 "_ZNSt6vectorIN5Catch3PtrINS0_22CumulativeReporterBase4NodeINS0_14TestGroupStatsENS3_INS0_13TestCaseStatsENS2_11SectionNodeEEEEEEESaIS9_EE4backEv"
 "_ZNSt6vectorIN5Catch3PtrINS0_22CumulativeReporterBase4NodeINS0_14TestGroupStatsENS3_INS0_13TestCaseStatsENS2_11SectionNodeEEEEEEESaIS9_EE4swapERSB_"
 "_ZNSt6vectorIN5Catch3PtrINS0_22CumulativeReporterBase4NodeINS0_14TestGroupStatsENS3_INS0_13TestCaseStatsENS2_11SectionNodeEEEEEEESaIS9_EE5beginEv"
 "_ZNSt6vectorIN5Catch3PtrINS0_22CumulativeReporterBase4NodeINS0_14TestGroupStatsENS3_INS0_13TestCaseStatsENS2_11SectionNodeEEEEEEESaIS9_EE9push_backERKS9_"
 "_ZNSt6vectorIN5Catch3PtrINS0_22CumulativeReporterBase4NodeINS0_14TestGroupStatsENS3_INS0_13TestCaseStatsENS2_11SectionNodeEEEEEEESaIS9_EEC1Ev"
 "_ZNSt6vectorIN5Catch3PtrINS0_22CumulativeReporterBase4NodeINS0_14TestGroupStatsENS3_INS0_13TestCaseStatsENS2_11SectionNodeEEEEEEESaIS9_EED1Ev"
 "_ZNSt6vectorIN5Catch3PtrINS0_8TestSpec7PatternEEESaIS4_EE11_S_max_sizeERKS5_"
 "_ZNSt6vectorIN5Catch3PtrINS0_8TestSpec7PatternEEESaIS4_EE11_S_relocateEPS4_S7_S7_RS5_"
 "_ZNSt6vectorIN5Catch3PtrINS0_8TestSpec7PatternEEESaIS4_EE14_M_move_assignEOS6_St17integral_constantIbLb1EE"
 "_ZNSt6vectorIN5Catch3PtrINS0_8TestSpec7PatternEEESaIS4_EE14_S_do_relocateEPS4_S7_S7_RS5_St17integral_constantIbLb0EE"
 "_ZNSt6vectorIN5Catch3PtrINS0_8TestSpec7PatternEEESaIS4_EE15_S_use_relocateEv"
 "_ZNSt6vectorIN5Catch3PtrINS0_8TestSpec7PatternEEESaIS4_EE17_M_realloc_insertIJRKS4_EEEvN9__gnu_cxx17__normal_iteratorIPS4_S6_EEDpOT_"
 "_ZNSt6vectorIN5Catch3PtrINS0_8TestSpec7PatternEEESaIS4_EE19_S_nothrow_relocateESt17integral_constantIbLb1EE"
 "_ZNSt6vectorIN5Catch3PtrINS0_8TestSpec7PatternEEESaIS4_EE3endEv"
 "_ZNSt6vectorIN5Catch3PtrINS0_8TestSpec7PatternEEESaIS4_EE5beginEv"
 "_ZNSt6vectorIN5Catch3PtrINS0_8TestSpec7PatternEEESaIS4_EE9push_backERKS4_"
 "_ZNSt6vectorIN5Catch3PtrINS0_8TestSpec7PatternEEESaIS4_EEaSEOS6_"
 "_ZNSt6vectorIN5Catch3PtrINS0_8TestSpec7PatternEEESaIS4_EEC1EOS6_"
 "_ZNSt6vectorIN5Catch3PtrINS0_8TestSpec7PatternEEESaIS4_EEC1ERKS5_"
 "_ZNSt6vectorIN5Catch3PtrINS0_8TestSpec7PatternEEESaIS4_EEC1ERKS6_"
 "_ZNSt6vectorIN5Catch3PtrINS0_8TestSpec7PatternEEESaIS4_EEC1Ev"
 "_ZNSt6vectorIN5Catch3PtrINS0_8TestSpec7PatternEEESaIS4_EED1Ev"
 "_ZNSt6vectorIN5Catch5Clara11CommandLineINS0_10ConfigDataEE3ArgESaIS5_EE11_S_max_sizeERKS6_"
 "_ZNSt6vectorIN5Catch5Clara11CommandLineINS0_10ConfigDataEE3ArgESaIS5_EE11_S_relocateEPS5_S8_S8_RS6_"
 "_ZNSt6vectorIN5Catch5Clara11CommandLineINS0_10ConfigDataEE3ArgESaIS5_EE12emplace_backIJS5_EEEvDpOT_"
 "_ZNSt6vectorIN5Catch5Clara11CommandLineINS0_10ConfigDataEE3ArgESaIS5_EE14_S_do_relocateEPS5_S8_S8_RS6_St17integral_constantIbLb0EE"
 "_ZNSt6vectorIN5Catch5Clara11CommandLineINS0_10ConfigDataEE3ArgESaIS5_EE15_S_use_relocateEv"
 "_ZNSt6vectorIN5Catch5Clara11CommandLineINS0_10ConfigDataEE3ArgESaIS5_EE17_M_realloc_insertIJS5_EEEvN9__gnu_cxx17__normal_iteratorIPS5_S7_EEDpOT_"
 "_ZNSt6vectorIN5Catch5Clara11CommandLineINS0_10ConfigDataEE3ArgESaIS5_EE19_S_nothrow_relocateESt17integral_constantIbLb1EE"
 "_ZNSt6vectorIN5Catch5Clara11CommandLineINS0_10ConfigDataEE3ArgESaIS5_EE3endEv"
 "_ZNSt6vectorIN5Catch5Clara11CommandLineINS0_10ConfigDataEE3ArgESaIS5_EE4backEv"
 "_ZNSt6vectorIN5Catch5Clara11CommandLineINS0_10ConfigDataEE3ArgESaIS5_EE5beginEv"
 "_ZNSt6vectorIN5Catch5Clara11CommandLineINS0_10ConfigDataEE3ArgESaIS5_EE9push_backEOS5_"
 "_ZNSt6vectorIN5Catch5Clara11CommandLineINS0_10ConfigDataEE3ArgESaIS5_EEC1Ev"
 "_ZNSt6vectorIN5Catch5Clara11CommandLineINS0_10ConfigDataEE3ArgESaIS5_EED1Ev"
 "_ZNSt6vectorIN5Catch5Clara6Parser5TokenESaIS3_EE11_S_max_sizeERKS4_"
 "_ZNSt6vectorIN5Catch5Clara6Parser5TokenESaIS3_EE11_S_relocateEPS3_S6_S6_RS4_"
 "_ZNSt6vectorIN5Catch5Clara6Parser5TokenESaIS3_EE12emplace_backIJS3_EEEvDpOT_"
 "_ZNSt6vectorIN5Catch5Clara6Parser5TokenESaIS3_EE14_M_move_assignEOS5_St17integral_constantIbLb1EE"
 "_ZNSt6vectorIN5Catch5Clara6Parser5TokenESaIS3_EE14_S_do_relocateEPS3_S6_S6_RS4_St17integral_constantIbLb1EE"
 "_ZNSt6vectorIN5Catch5Clara6Parser5TokenESaIS3_EE15_S_use_relocateEv"
 "_ZNSt6vectorIN5Catch5Clara6Parser5TokenESaIS3_EE17_M_realloc_insertIJRKS3_EEEvN9__gnu_cxx17__normal_iteratorIPS3_S5_EEDpOT_"
 "_ZNSt6vectorIN5Catch5Clara6Parser5TokenESaIS3_EE17_M_realloc_insertIJS3_EEEvN9__gnu_cxx17__normal_iteratorIPS3_S5_EEDpOT_"
 "_ZNSt6vectorIN5Catch5Clara6Parser5TokenESaIS3_EE19_S_nothrow_relocateESt17integral_constantIbLb1EE"
 "_ZNSt6vectorIN5Catch5Clara6Parser5TokenESaIS3_EE3endEv"
 "_ZNSt6vectorIN5Catch5Clara6Parser5TokenESaIS3_EE5beginEv"
 "_ZNSt6vectorIN5Catch5Clara6Parser5TokenESaIS3_EE9push_backEOS3_"
 "_ZNSt6vectorIN5Catch5Clara6Parser5TokenESaIS3_EE9push_backERKS3_"
 "_ZNSt6vectorIN5Catch5Clara6Parser5TokenESaIS3_EEaSEOS5_"
 "_ZNSt6vectorIN5Catch5Clara6Parser5TokenESaIS3_EEC1EOS5_"
 "_ZNSt6vectorIN5Catch5Clara6Parser5TokenESaIS3_EEC1ERKS4_"
 "_ZNSt6vectorIN5Catch5Clara6Parser5TokenESaIS3_EEC1ERKS5_"
 "_ZNSt6vectorIN5Catch5Clara6Parser5TokenESaIS3_EEC1Ev"
 "_ZNSt6vectorIN5Catch5Clara6Parser5TokenESaIS3_EED1Ev"
 "_ZNSt6vectorIN5Catch8TestCaseESaIS1_EE11_S_max_sizeERKS2_"
 "_ZNSt6vectorIN5Catch8TestCaseESaIS1_EE11_S_relocateEPS1_S4_S4_RS2_"
 "_ZNSt6vectorIN5Catch8TestCaseESaIS1_EE14_M_move_assignEOS3_St17integral_constantIbLb1EE"
 "_ZNSt6vectorIN5Catch8TestCaseESaIS1_EE14_S_do_relocateEPS1_S4_S4_RS2_St17integral_constantIbLb0EE"
 "_ZNSt6vectorIN5Catch8TestCaseESaIS1_EE15_S_use_relocateEv"
 "_ZNSt6vectorIN5Catch8TestCaseESaIS1_EE17_M_realloc_insertIJRKS1_EEEvN9__gnu_cxx17__normal_iteratorIPS1_S3_EEDpOT_"
 "_ZNSt6vectorIN5Catch8TestCaseESaIS1_EE19_S_nothrow_relocateESt17integral_constantIbLb1EE"
 "_ZNSt6vectorIN5Catch8TestCaseESaIS1_EE20_M_allocate_and_copyIPKS1_EEPS1_yT_S8_"
 "_ZNSt6vectorIN5Catch8TestCaseESaIS1_EE3endEv"
 "_ZNSt6vectorIN5Catch8TestCaseESaIS1_EE5beginEv"
 "_ZNSt6vectorIN5Catch8TestCaseESaIS1_EE7reserveEy"
 "_ZNSt6vectorIN5Catch8TestCaseESaIS1_EE9push_backERKS1_"
 "_ZNSt6vectorIN5Catch8TestCaseESaIS1_EEaSEOS3_"
 "_ZNSt6vectorIN5Catch8TestCaseESaIS1_EEC1ERKS2_"
 "_ZNSt6vectorIN5Catch8TestCaseESaIS1_EEC1ERKS3_"
 "_ZNSt6vectorIN5Catch8TestCaseESaIS1_EEC1Ev"
 "_ZNSt6vectorIN5Catch8TestCaseESaIS1_EED1Ev"
 "_ZNSt6vectorIN5Catch8TestSpec6FilterESaIS2_EE11_S_max_sizeERKS3_"
 "_ZNSt6vectorIN5Catch8TestSpec6FilterESaIS2_EE11_S_relocateEPS2_S5_S5_RS3_"
 "_ZNSt6vectorIN5Catch8TestSpec6FilterESaIS2_EE14_M_move_assignEOS4_St17integral_constantIbLb1EE"
 "_ZNSt6vectorIN5Catch8TestSpec6FilterESaIS2_EE14_S_do_relocateEPS2_S5_S5_RS3_St17integral_constantIbLb1EE"
 "_ZNSt6vectorIN5Catch8TestSpec6FilterESaIS2_EE15_S_use_relocateEv"
 "_ZNSt6vectorIN5Catch8TestSpec6FilterESaIS2_EE17_M_realloc_insertIJRKS2_EEEvN9__gnu_cxx17__normal_iteratorIPS2_S4_EEDpOT_"
 "_ZNSt6vectorIN5Catch8TestSpec6FilterESaIS2_EE19_S_nothrow_relocateESt17integral_constantIbLb1EE"
 "_ZNSt6vectorIN5Catch8TestSpec6FilterESaIS2_EE3endEv"
 "_ZNSt6vectorIN5Catch8TestSpec6FilterESaIS2_EE5beginEv"
 "_ZNSt6vectorIN5Catch8TestSpec6FilterESaIS2_EE9push_backERKS2_"
 "_ZNSt6vectorIN5Catch8TestSpec6FilterESaIS2_EEaSEOS4_"
 "_ZNSt6vectorIN5Catch8TestSpec6FilterESaIS2_EEC1ERKS3_"
 "_ZNSt6vectorIN5Catch8TestSpec6FilterESaIS2_EEC1ERKS4_"
 "_ZNSt6vectorIN5Catch8TestSpec6FilterESaIS2_EEC1Ev"
 "_ZNSt6vectorIN5Catch8TestSpec6FilterESaIS2_EED1Ev"
 "_ZNSt6vectorINSt7__cxx1112basic_stringIcSt11char_traitsIcESaIcEEESaIS5_EE11_S_max_sizeERKS6_"
 "_ZNSt6vectorINSt7__cxx1112basic_stringIcSt11char_traitsIcESaIcEEESaIS5_EE11_S_relocateEPS5_S8_S8_RS6_"
 "_ZNSt6vectorINSt7__cxx1112basic_stringIcSt11char_traitsIcESaIcEEESaIS5_EE12emplace_backIJS5_EEEvDpOT_"
 "_ZNSt6vectorINSt7__cxx1112basic_stringIcSt11char_traitsIcESaIcEEESaIS5_EE14_S_do_relocateEPS5_S8_S8_RS6_St17integral_constantIbLb1EE"
 "_ZNSt6vectorINSt7__cxx1112basic_stringIcSt11char_traitsIcESaIcEEESaIS5_EE15_M_range_insertIN9__gnu_cxx17__normal_iteratorIPKS5_S7_EEEEvNSA_IPS5_S7_EET_SG_St20forward_iterator_tag"
 "_ZNSt6vectorINSt7__cxx1112basic_stringIcSt11char_traitsIcESaIcEEESaIS5_EE15_S_use_relocateEv"
 "_ZNSt6vectorINSt7__cxx1112basic_stringIcSt11char_traitsIcESaIcEEESaIS5_EE17_M_realloc_insertIJRKS5_EEEvN9__gnu_cxx17__normal_iteratorIPS5_S7_EEDpOT_"
 "_ZNSt6vectorINSt7__cxx1112basic_stringIcSt11char_traitsIcESaIcEEESaIS5_EE17_M_realloc_insertIJS5_EEEvN9__gnu_cxx17__normal_iteratorIPS5_S7_EEDpOT_"
 "_ZNSt6vectorINSt7__cxx1112basic_stringIcSt11char_traitsIcESaIcEEESaIS5_EE17_S_check_init_lenEyRKS6_"
 "_ZNSt6vectorINSt7__cxx1112basic_stringIcSt11char_traitsIcESaIcEEESaIS5_EE18_M_insert_dispatchIN9__gnu_cxx17__normal_iteratorIPKS5_S7_EEEEvNSA_IPS5_S7_EET_SG_St12__false_type"
 "_ZNSt6vectorINSt7__cxx1112basic_stringIcSt11char_traitsIcESaIcEEESaIS5_EE19_S_nothrow_relocateESt17integral_constantIbLb1EE"
 "_ZNSt6vectorINSt7__cxx1112basic_stringIcSt11char_traitsIcESaIcEEESaIS5_EE21_M_default_initializeEy"
 "_ZNSt6vectorINSt7__cxx1112basic_stringIcSt11char_traitsIcESaIcEEESaIS5_EE3endEv"
 "_ZNSt6vectorINSt7__cxx1112basic_stringIcSt11char_traitsIcESaIcEEESaIS5_EE4backEv"
 "_ZNSt6vectorINSt7__cxx1112basic_stringIcSt11char_traitsIcESaIcEEESaIS5_EE5beginEv"
 "_ZNSt6vectorINSt7__cxx1112basic_stringIcSt11char_traitsIcESaIcEEESaIS5_EE6insertIN9__gnu_cxx17__normal_iteratorIPKS5_S7_EEvEENSA_IPS5_S7_EESD_T_SG_"
 "_ZNSt6vectorINSt7__cxx1112basic_stringIcSt11char_traitsIcESaIcEEESaIS5_EE8pop_backEv"
 "_ZNSt6vectorINSt7__cxx1112basic_stringIcSt11char_traitsIcESaIcEEESaIS5_EE9push_backEOS5_"
 "_ZNSt6vectorINSt7__cxx1112basic_stringIcSt11char_traitsIcESaIcEEESaIS5_EE9push_backERKS5_"
 "_ZNSt6vectorINSt7__cxx1112basic_stringIcSt11char_traitsIcESaIcEEESaIS5_EEC1EOS7_"
 "_ZNSt6vectorINSt7__cxx1112basic_stringIcSt11char_traitsIcESaIcEEESaIS5_EEC1ERKS7_"
 "_ZNSt6vectorINSt7__cxx1112basic_stringIcSt11char_traitsIcESaIcEEESaIS5_EEC1Ev"
 "_ZNSt6vectorINSt7__cxx1112basic_stringIcSt11char_traitsIcESaIcEEESaIS5_EEC1EyRKS6_"
 "_ZNSt6vectorINSt7__cxx1112basic_stringIcSt11char_traitsIcESaIcEEESaIS5_EED1Ev"
 "_ZNSt6vectorINSt7__cxx1112basic_stringIcSt11char_traitsIcESaIcEEESaIS5_EEixEy"
 "_ZNSt6vectorIPKN5Catch20IExceptionTranslatorESaIS3_EE11_S_max_sizeERKS4_"
 "_ZNSt6vectorIPKN5Catch20IExceptionTranslatorESaIS3_EE11_S_relocateEPS3_S6_S6_RS4_"
 "_ZNSt6vectorIPKN5Catch20IExceptionTranslatorESaIS3_EE14_S_do_relocateEPS3_S6_S6_RS4_St17integral_constantIbLb1EE"
 "_ZNSt6vectorIPKN5Catch20IExceptionTranslatorESaIS3_EE15_S_use_relocateEv"
 "_ZNSt6vectorIPKN5Catch20IExceptionTranslatorESaIS3_EE17_M_realloc_insertIJRKS3_EEEvN9__gnu_cxx17__normal_iteratorIPS3_S5_EEDpOT_"
 "_ZNSt6vectorIPKN5Catch20IExceptionTranslatorESaIS3_EE19_S_nothrow_relocateESt17integral_constantIbLb1EE"
 "_ZNSt6vectorIPKN5Catch20IExceptionTranslatorESaIS3_EE3endEv"
 "_ZNSt6vectorIPKN5Catch20IExceptionTranslatorESaIS3_EE5beginEv"
 "_ZNSt6vectorIPKN5Catch20IExceptionTranslatorESaIS3_EE9push_backERKS3_"
 "_ZNSt6vectorIPKN5Catch20IExceptionTranslatorESaIS3_EEC1Ev"
 "_ZNSt6vectorIPKN5Catch20IExceptionTranslatorESaIS3_EED1Ev"
 "_ZNSt6vectorIPKN5Catch8Matchers4Impl11MatcherBaseINSt7__cxx1112basic_stringIcSt11char_traitsIcESaIcEEES9_EESaISC_EEC1Ev"
 "_ZNSt6vectorIPKN5Catch8Matchers4Impl11MatcherBaseINSt7__cxx1112basic_stringIcSt11char_traitsIcESaIcEEES9_EESaISC_EED1Ev"
 "_ZNSt6vectorIPN5Catch14IGeneratorInfoESaIS2_EE11_S_max_sizeERKS3_"
 "_ZNSt6vectorIPN5Catch14IGeneratorInfoESaIS2_EE11_S_relocateEPS2_S5_S5_RS3_"
 "_ZNSt6vectorIPN5Catch14IGeneratorInfoESaIS2_EE14_S_do_relocateEPS2_S5_S5_RS3_St17integral_constantIbLb1EE"
 "_ZNSt6vectorIPN5Catch14IGeneratorInfoESaIS2_EE15_S_use_relocateEv"
 "_ZNSt6vectorIPN5Catch14IGeneratorInfoESaIS2_EE17_M_realloc_insertIJRKS2_EEEvN9__gnu_cxx17__normal_iteratorIPS2_S4_EEDpOT_"
 "_ZNSt6vectorIPN5Catch14IGeneratorInfoESaIS2_EE19_S_nothrow_relocateESt17integral_constantIbLb1EE"
 "_ZNSt6vectorIPN5Catch14IGeneratorInfoESaIS2_EE3endEv"
 "_ZNSt6vectorIPN5Catch14IGeneratorInfoESaIS2_EE5beginEv"
 "_ZNSt6vectorIPN5Catch14IGeneratorInfoESaIS2_EE9push_backERKS2_"
 "_ZNSt6vectorIPN5Catch14IGeneratorInfoESaIS2_EEC1Ev"
 "_ZNSt6vectorIPN5Catch14IGeneratorInfoESaIS2_EED1Ev"
 "_ZNSt6vectorIPN5Catch16TestCaseTracking8ITrackerESaIS3_EE11_S_max_sizeERKS4_"
 "_ZNSt6vectorIPN5Catch16TestCaseTracking8ITrackerESaIS3_EE11_S_relocateEPS3_S6_S6_RS4_"
 "_ZNSt6vectorIPN5Catch16TestCaseTracking8ITrackerESaIS3_EE12emplace_backIJS3_EEEvDpOT_"
 "_ZNSt6vectorIPN5Catch16TestCaseTracking8ITrackerESaIS3_EE14_S_do_relocateEPS3_S6_S6_RS4_St17integral_constantIbLb1EE"
 "_ZNSt6vectorIPN5Catch16TestCaseTracking8ITrackerESaIS3_EE15_S_use_relocateEv"
 "_ZNSt6vectorIPN5Catch16TestCaseTracking8ITrackerESaIS3_EE17_M_realloc_insertIJS3_EEEvN9__gnu_cxx17__normal_iteratorIPS3_S5_EEDpOT_"
 "_ZNSt6vectorIPN5Catch16TestCaseTracking8ITrackerESaIS3_EE19_S_nothrow_relocateESt17integral_constantIbLb1EE"
 "_ZNSt6vectorIPN5Catch16TestCaseTracking8ITrackerESaIS3_EE3endEv"
 "_ZNSt6vectorIPN5Catch16TestCaseTracking8ITrackerESaIS3_EE4backEv"
 "_ZNSt6vectorIPN5Catch16TestCaseTracking8ITrackerESaIS3_EE5beginEv"
 "_ZNSt6vectorIPN5Catch16TestCaseTracking8ITrackerESaIS3_EE8pop_backEv"
 "_ZNSt6vectorIPN5Catch16TestCaseTracking8ITrackerESaIS3_EE9push_backEOS3_"
 "_ZNSt6vectorIPN5Catch16TestCaseTracking8ITrackerESaIS3_EEC1Ev"
 "_ZNSt6vectorIPN5Catch16TestCaseTracking8ITrackerESaIS3_EED1Ev"
 "_ZNSt6vectorIS_IN5Catch3PtrINS0_22CumulativeReporterBase11SectionNodeEEESaIS4_EESaIS6_EEC1Ev"
 "_ZNSt6vectorIS_IN5Catch3PtrINS0_22CumulativeReporterBase11SectionNodeEEESaIS4_EESaIS6_EED1Ev"
 "_ZNSt6vectorIySaIyEE11_S_max_sizeERKS0_"
 "_ZNSt6vectorIySaIyEE11_S_relocateEPyS2_S2_RS0_"
 "_ZNSt6vectorIySaIyEE14_S_do_relocateEPyS2_S2_RS0_St17integral_constantIbLb1EE"
 "_ZNSt6vectorIySaIyEE15_M_erase_at_endEPy"
 "_ZNSt6vectorIySaIyEE15_S_use_relocateEv"
 "_ZNSt6vectorIySaIyEE17_M_realloc_insertIJRKyEEEvN9__gnu_cxx17__normal_iteratorIPyS1_EEDpOT_"
 "_ZNSt6vectorIySaIyEE19_S_nothrow_relocateESt17integral_constantIbLb1EE"
 "_ZNSt6vectorIySaIyEE3endEv"
 "_ZNSt6vectorIySaIyEE5beginEv"
 "_ZNSt6vectorIySaIyEE5clearEv"
 "_ZNSt6vectorIySaIyEE9push_backERKy"
 "_ZNSt6vectorIySaIyEEC1Ev"
 "_ZNSt6vectorIySaIyEED1Ev"
 "_ZNSt6vectorIySaIyEEixEy"
 "_ZNSt7__cxx1112basic_stringIcSt11char_traitsIcESaIcEE12_Alloc_hiderD1Ev"
 "_ZNSt7__cxx1112basic_stringIcSt11char_traitsIcESaIcEE12_M_constructIN9__gnu_cxx17__normal_iteratorIPKcS4_EEEEvT_SB_"
 "_ZNSt7__cxx1112basic_stringIcSt11char_traitsIcESaIcEE12_M_constructIN9__gnu_cxx17__normal_iteratorIPKcS4_EEEEvT_SB_St20forward_iterator_tag"
 "_ZNSt7__cxx1112basic_stringIcSt11char_traitsIcESaIcEE16_M_construct_auxIN9__gnu_cxx17__normal_iteratorIPKcS4_EEEEvT_SB_St12__false_type"
 "_ZNSt7__cxx1112basic_stringIcSt11char_traitsIcESaIcEEC1IN9__gnu_cxx17__normal_iteratorIPKcS4_EEvEET_SB_RKS3_"
 "_ZNSt7__equalILb0EE5equalISt16reverse_iteratorIPKcES5_EEbT_S6_T0_"
 "_ZNSt7__equalILb1EE5equalIcEEbPKT_S4_S4_"
 "_ZNSt8__detail4_ModIjLj0ELj1ELj0ELb1ELb0EE6__calcEj"
 "_ZNSt8__detail4_ModIjLj624ELj1ELj0ELb1ELb1EE6__calcEj"
 "_ZNSt8__detail5__modIjLj0ELj1ELj0EEET_S1_"
 "_ZNSt8__detail5__modIjLj624ELj1ELj0EEET_S1_"
 "_ZNSt8_Rb_treeIiSt4pairIKiN5Catch5Clara11CommandLineINS2_10ConfigDataEE3ArgEESt10_Select1stIS8_ESt4lessIiESaIS8_EE11_M_put_nodeEPSt13_Rb_tree_nodeIS8_E"
 "_ZNSt8_Rb_treeIiSt4pairIKiN5Catch5Clara11CommandLineINS2_10ConfigDataEE3ArgEESt10_Select1stIS8_ESt4lessIiESaIS8_EE12_M_drop_nodeEPSt13_Rb_tree_nodeIS8_E"
 "_ZNSt8_Rb_treeIiSt4pairIKiN5Catch5Clara11CommandLineINS2_10ConfigDataEE3ArgEESt10_Select1stIS8_ESt4lessIiESaIS8_EE13_Rb_tree_implISC_Lb1EEC1Ev"
 "_ZNSt8_Rb_treeIiSt4pairIKiN5Catch5Clara11CommandLineINS2_10ConfigDataEE3ArgEESt10_Select1stIS8_ESt4lessIiESaIS8_EE13_Rb_tree_implISC_Lb1EED1Ev"
 "_ZNSt8_Rb_treeIiSt4pairIKiN5Catch5Clara11CommandLineINS2_10ConfigDataEE3ArgEESt10_Select1stIS8_ESt4lessIiESaIS8_EE15_M_destroy_nodeEPSt13_Rb_tree_nodeIS8_E"
 "_ZNSt8_Rb_treeIiSt4pairIKiN5Catch5Clara11CommandLineINS2_10ConfigDataEE3ArgEESt10_Select1stIS8_ESt4lessIiESaIS8_EE21_M_get_Node_allocatorEv"
 "_ZNSt8_Rb_treeIiSt4pairIKiN5Catch5Clara11CommandLineINS2_10ConfigDataEE3ArgEESt10_Select1stIS8_ESt4lessIiESaIS8_EE6_S_keyEPKSt13_Rb_tree_nodeIS8_E"
 "_ZNSt8_Rb_treeIiSt4pairIKiN5Catch5Clara11CommandLineINS2_10ConfigDataEE3ArgEESt10_Select1stIS8_ESt4lessIiESaIS8_EE6_S_keyEPKSt18_Rb_tree_node_base"
 "_ZNSt8_Rb_treeIiSt4pairIKiN5Catch5Clara11CommandLineINS2_10ConfigDataEE3ArgEESt10_Select1stIS8_ESt4lessIiESaIS8_EE7_S_leftEPKSt18_Rb_tree_node_base"
 "_ZNSt8_Rb_treeIiSt4pairIKiN5Catch5Clara11CommandLineINS2_10ConfigDataEE3ArgEESt10_Select1stIS8_ESt4lessIiESaIS8_EE7_S_leftEPSt18_Rb_tree_node_base"
 "_ZNSt8_Rb_treeIiSt4pairIKiN5Catch5Clara11CommandLineINS2_10ConfigDataEE3ArgEESt10_Select1stIS8_ESt4lessIiESaIS8_EE8_M_beginEv"
 "_ZNSt8_Rb_treeIiSt4pairIKiN5Catch5Clara11CommandLineINS2_10ConfigDataEE3ArgEESt10_Select1stIS8_ESt4lessIiESaIS8_EE8_M_eraseEPSt13_Rb_tree_nodeIS8_E"
 "_ZNSt8_Rb_treeIiSt4pairIKiN5Catch5Clara11CommandLineINS2_10ConfigDataEE3ArgEESt10_Select1stIS8_ESt4lessIiESaIS8_EE8_S_rightEPKSt18_Rb_tree_node_base"
 "_ZNSt8_Rb_treeIiSt4pairIKiN5Catch5Clara11CommandLineINS2_10ConfigDataEE3ArgEESt10_Select1stIS8_ESt4lessIiESaIS8_EE8_S_rightEPSt18_Rb_tree_node_base"
 "_ZNSt8_Rb_treeIiSt4pairIKiN5Catch5Clara11CommandLineINS2_10ConfigDataEE3ArgEESt10_Select1stIS8_ESt4lessIiESaIS8_EEC1Ev"
 "_ZNSt8_Rb_treeIiSt4pairIKiN5Catch5Clara11CommandLineINS2_10ConfigDataEE3ArgEESt10_Select1stIS8_ESt4lessIiESaIS8_EED1Ev"
 "_ZNSt8_Rb_treeIN5Catch8TestCaseES1_St9_IdentityIS1_ESt4lessIS1_ESaIS1_EE10_M_insert_IRKS1_NS7_11_Alloc_nodeEEESt17_Rb_tree_iteratorIS1_EPSt18_Rb_tree_node_baseSF_OT_RT0_"
 "_ZNSt8_Rb_treeIN5Catch8TestCaseES1_St9_IdentityIS1_ESt4lessIS1_ESaIS1_EE11_Alloc_nodeC1ERS7_"
 "_ZNSt8_Rb_treeIN5Catch8TestCaseES1_St9_IdentityIS1_ESt4lessIS1_ESaIS1_EE11_M_get_nodeEv"
 "_ZNSt8_Rb_treeIN5Catch8TestCaseES1_St9_IdentityIS1_ESt4lessIS1_ESaIS1_EE11_M_put_nodeEPSt13_Rb_tree_nodeIS1_E"
 "_ZNSt8_Rb_treeIN5Catch8TestCaseES1_St9_IdentityIS1_ESt4lessIS1_ESaIS1_EE12_M_drop_nodeEPSt13_Rb_tree_nodeIS1_E"
 "_ZNSt8_Rb_treeIN5Catch8TestCaseES1_St9_IdentityIS1_ESt4lessIS1_ESaIS1_EE13_Rb_tree_implIS5_Lb1EEC1Ev"
 "_ZNSt8_Rb_treeIN5Catch8TestCaseES1_St9_IdentityIS1_ESt4lessIS1_ESaIS1_EE13_Rb_tree_implIS5_Lb1EED1Ev"
 "_ZNSt8_Rb_treeIN5Catch8TestCaseES1_St9_IdentityIS1_ESt4lessIS1_ESaIS1_EE14_M_create_nodeIJRKS1_EEEPSt13_Rb_tree_nodeIS1_EDpOT_"
 "_ZNSt8_Rb_treeIN5Catch8TestCaseES1_St9_IdentityIS1_ESt4lessIS1_ESaIS1_EE15_M_destroy_nodeEPSt13_Rb_tree_nodeIS1_E"
 "_ZNSt8_Rb_treeIN5Catch8TestCaseES1_St9_IdentityIS1_ESt4lessIS1_ESaIS1_EE16_M_insert_uniqueIRKS1_EESt4pairISt17_Rb_tree_iteratorIS1_EbEOT_"
 "_ZNSt8_Rb_treeIN5Catch8TestCaseES1_St9_IdentityIS1_ESt4lessIS1_ESaIS1_EE17_M_construct_nodeIJRKS1_EEEvPSt13_Rb_tree_nodeIS1_EDpOT_"
 "_ZNSt8_Rb_treeIN5Catch8TestCaseES1_St9_IdentityIS1_ESt4lessIS1_ESaIS1_EE21_M_get_Node_allocatorEv"
 "_ZNSt8_Rb_treeIN5Catch8TestCaseES1_St9_IdentityIS1_ESt4lessIS1_ESaIS1_EE24_M_get_insert_unique_posERKS1_"
 "_ZNSt8_Rb_treeIN5Catch8TestCaseES1_St9_IdentityIS1_ESt4lessIS1_ESaIS1_EE5beginEv"
 "_ZNSt8_Rb_treeIN5Catch8TestCaseES1_St9_IdentityIS1_ESt4lessIS1_ESaIS1_EE6_M_endEv"
 "_ZNSt8_Rb_treeIN5Catch8TestCaseES1_St9_IdentityIS1_ESt4lessIS1_ESaIS1_EE6_S_keyEPKSt13_Rb_tree_nodeIS1_E"
 "_ZNSt8_Rb_treeIN5Catch8TestCaseES1_St9_IdentityIS1_ESt4lessIS1_ESaIS1_EE6_S_keyEPKSt18_Rb_tree_node_base"
 "_ZNSt8_Rb_treeIN5Catch8TestCaseES1_St9_IdentityIS1_ESt4lessIS1_ESaIS1_EE7_S_leftEPSt18_Rb_tree_node_base"
 "_ZNSt8_Rb_treeIN5Catch8TestCaseES1_St9_IdentityIS1_ESt4lessIS1_ESaIS1_EE8_M_beginEv"
 "_ZNSt8_Rb_treeIN5Catch8TestCaseES1_St9_IdentityIS1_ESt4lessIS1_ESaIS1_EE8_M_eraseEPSt13_Rb_tree_nodeIS1_E"
 "_ZNSt8_Rb_treeIN5Catch8TestCaseES1_St9_IdentityIS1_ESt4lessIS1_ESaIS1_EE8_S_rightEPSt18_Rb_tree_node_base"
 "_ZNSt8_Rb_treeIN5Catch8TestCaseES1_St9_IdentityIS1_ESt4lessIS1_ESaIS1_EEC1Ev"
 "_ZNSt8_Rb_treeIN5Catch8TestCaseES1_St9_IdentityIS1_ESt4lessIS1_ESaIS1_EED1Ev"
 "_ZNSt8_Rb_treeINSt7__cxx1112basic_stringIcSt11char_traitsIcESaIcEEES5_St9_IdentityIS5_ESt4lessIS5_ESaIS5_EE10_M_insert_IRKS5_NSB_11_Alloc_nodeEEESt17_Rb_tree_iteratorIS5_EPSt18_Rb_tree_node_baseSJ_OT_RT0_"
 "_ZNSt8_Rb_treeINSt7__cxx1112basic_stringIcSt11char_traitsIcESaIcEEES5_St9_IdentityIS5_ESt4lessIS5_ESaIS5_EE10_M_insert_IS5_NSB_11_Alloc_nodeEEESt17_Rb_tree_iteratorIS5_EPSt18_Rb_tree_node_baseSH_OT_RT0_"
 "_ZNSt8_Rb_treeINSt7__cxx1112basic_stringIcSt11char_traitsIcESaIcEEES5_St9_IdentityIS5_ESt4lessIS5_ESaIS5_EE10_S_maximumEPSt18_Rb_tree_node_base"
 "_ZNSt8_Rb_treeINSt7__cxx1112basic_stringIcSt11char_traitsIcESaIcEEES5_St9_IdentityIS5_ESt4lessIS5_ESaIS5_EE10_S_minimumEPSt18_Rb_tree_node_base"
 "_ZNSt8_Rb_treeINSt7__cxx1112basic_stringIcSt11char_traitsIcESaIcEEES5_St9_IdentityIS5_ESt4lessIS5_ESaIS5_EE11_Alloc_nodeC1ERSB_"
 "_ZNSt8_Rb_treeINSt7__cxx1112basic_stringIcSt11char_traitsIcESaIcEEES5_St9_IdentityIS5_ESt4lessIS5_ESaIS5_EE11_M_get_nodeEv"
 "_ZNSt8_Rb_treeINSt7__cxx1112basic_stringIcSt11char_traitsIcESaIcEEES5_St9_IdentityIS5_ESt4lessIS5_ESaIS5_EE11_M_leftmostEv"
 "_ZNSt8_Rb_treeINSt7__cxx1112basic_stringIcSt11char_traitsIcESaIcEEES5_St9_IdentityIS5_ESt4lessIS5_ESaIS5_EE11_M_put_nodeEPSt13_Rb_tree_nodeIS5_E"
 "_ZNSt8_Rb_treeINSt7__cxx1112basic_stringIcSt11char_traitsIcESaIcEEES5_St9_IdentityIS5_ESt4lessIS5_ESaIS5_EE12_M_drop_nodeEPSt13_Rb_tree_nodeIS5_E"
 "_ZNSt8_Rb_treeINSt7__cxx1112basic_stringIcSt11char_traitsIcESaIcEEES5_St9_IdentityIS5_ESt4lessIS5_ESaIS5_EE12_M_rightmostEv"
 "_ZNSt8_Rb_treeINSt7__cxx1112basic_stringIcSt11char_traitsIcESaIcEEES5_St9_IdentityIS5_ESt4lessIS5_ESaIS5_EE13_M_clone_nodeINSB_11_Alloc_nodeEEEPSt13_Rb_tree_nodeIS5_EPKSF_RT_"
 "_ZNSt8_Rb_treeINSt7__cxx1112basic_stringIcSt11char_traitsIcESaIcEEES5_St9_IdentityIS5_ESt4lessIS5_ESaIS5_EE13_M_clone_nodeINSB_20_Reuse_or_alloc_nodeEEEPSt13_Rb_tree_nodeIS5_EPKSF_RT_"
 "_ZNSt8_Rb_treeINSt7__cxx1112basic_stringIcSt11char_traitsIcESaIcEEES5_St9_IdentityIS5_ESt4lessIS5_ESaIS5_EE13_Rb_tree_implIS9_Lb1EEC1EOSD_"
 "_ZNSt8_Rb_treeINSt7__cxx1112basic_stringIcSt11char_traitsIcESaIcEEES5_St9_IdentityIS5_ESt4lessIS5_ESaIS5_EE13_Rb_tree_implIS9_Lb1EEC1ERKSD_"
 "_ZNSt8_Rb_treeINSt7__cxx1112basic_stringIcSt11char_traitsIcESaIcEEES5_St9_IdentityIS5_ESt4lessIS5_ESaIS5_EE13_Rb_tree_implIS9_Lb1EEC1Ev"
 "_ZNSt8_Rb_treeINSt7__cxx1112basic_stringIcSt11char_traitsIcESaIcEEES5_St9_IdentityIS5_ESt4lessIS5_ESaIS5_EE13_Rb_tree_implIS9_Lb1EED1Ev"
 "_ZNSt8_Rb_treeINSt7__cxx1112basic_stringIcSt11char_traitsIcESaIcEEES5_St9_IdentityIS5_ESt4lessIS5_ESaIS5_EE14_M_create_nodeIJRKS5_EEEPSt13_Rb_tree_nodeIS5_EDpOT_"
 "_ZNSt8_Rb_treeINSt7__cxx1112basic_stringIcSt11char_traitsIcESaIcEEES5_St9_IdentityIS5_ESt4lessIS5_ESaIS5_EE14_M_create_nodeIJS5_EEEPSt13_Rb_tree_nodeIS5_EDpOT_"
 "_ZNSt8_Rb_treeINSt7__cxx1112basic_stringIcSt11char_traitsIcESaIcEEES5_St9_IdentityIS5_ESt4lessIS5_ESaIS5_EE15_M_destroy_nodeEPSt13_Rb_tree_nodeIS5_E"
 "_ZNSt8_Rb_treeINSt7__cxx1112basic_stringIcSt11char_traitsIcESaIcEEES5_St9_IdentityIS5_ESt4lessIS5_ESaIS5_EE16_M_insert_uniqueIRKS5_EESt4pairISt17_Rb_tree_iteratorIS5_EbEOT_"
 "_ZNSt8_Rb_treeINSt7__cxx1112basic_stringIcSt11char_traitsIcESaIcEEES5_St9_IdentityIS5_ESt4lessIS5_ESaIS5_EE16_M_insert_uniqueIS5_EESt4pairISt17_Rb_tree_iteratorIS5_EbEOT_"
 "_ZNSt8_Rb_treeINSt7__cxx1112basic_stringIcSt11char_traitsIcESaIcEEES5_St9_IdentityIS5_ESt4lessIS5_ESaIS5_EE17_M_construct_nodeIJRKS5_EEEvPSt13_Rb_tree_nodeIS5_EDpOT_"
 "_ZNSt8_Rb_treeINSt7__cxx1112basic_stringIcSt11char_traitsIcESaIcEEES5_St9_IdentityIS5_ESt4lessIS5_ESaIS5_EE17_M_construct_nodeIJS5_EEEvPSt13_Rb_tree_nodeIS5_EDpOT_"
 "_ZNSt8_Rb_treeINSt7__cxx1112basic_stringIcSt11char_traitsIcESaIcEEES5_St9_IdentityIS5_ESt4lessIS5_ESaIS5_EE20_Reuse_or_alloc_node10_M_extractEv"
 "_ZNSt8_Rb_treeINSt7__cxx1112basic_stringIcSt11char_traitsIcESaIcEEES5_St9_IdentityIS5_ESt4lessIS5_ESaIS5_EE20_Reuse_or_alloc_nodeC1ERSB_"
 "_ZNSt8_Rb_treeINSt7__cxx1112basic_stringIcSt11char_traitsIcESaIcEEES5_St9_IdentityIS5_ESt4lessIS5_ESaIS5_EE20_Reuse_or_alloc_nodeclIRKS5_EEPSt13_Rb_tree_nodeIS5_EOT_"
 "_ZNSt8_Rb_treeINSt7__cxx1112basic_stringIcSt11char_traitsIcESaIcEEES5_St9_IdentityIS5_ESt4lessIS5_ESaIS5_EE20_Reuse_or_alloc_nodeD1Ev"
 "_ZNSt8_Rb_treeINSt7__cxx1112basic_stringIcSt11char_traitsIcESaIcEEES5_St9_IdentityIS5_ESt4lessIS5_ESaIS5_EE21_M_get_Node_allocatorEv"
 "_ZNSt8_Rb_treeINSt7__cxx1112basic_stringIcSt11char_traitsIcESaIcEEES5_St9_IdentityIS5_ESt4lessIS5_ESaIS5_EE24_M_get_insert_unique_posERKS5_"
 "_ZNSt8_Rb_treeINSt7__cxx1112basic_stringIcSt11char_traitsIcESaIcEEES5_St9_IdentityIS5_ESt4lessIS5_ESaIS5_EE4swapERSB_"
 "_ZNSt8_Rb_treeINSt7__cxx1112basic_stringIcSt11char_traitsIcESaIcEEES5_St9_IdentityIS5_ESt4lessIS5_ESaIS5_EE5beginEv"
 "_ZNSt8_Rb_treeINSt7__cxx1112basic_stringIcSt11char_traitsIcESaIcEEES5_St9_IdentityIS5_ESt4lessIS5_ESaIS5_EE5clearEv"
 "_ZNSt8_Rb_treeINSt7__cxx1112basic_stringIcSt11char_traitsIcESaIcEEES5_St9_IdentityIS5_ESt4lessIS5_ESaIS5_EE6_M_endEv"
 "_ZNSt8_Rb_treeINSt7__cxx1112basic_stringIcSt11char_traitsIcESaIcEEES5_St9_IdentityIS5_ESt4lessIS5_ESaIS5_EE6_S_keyEPKSt13_Rb_tree_nodeIS5_E"
 "_ZNSt8_Rb_treeINSt7__cxx1112basic_stringIcSt11char_traitsIcESaIcEEES5_St9_IdentityIS5_ESt4lessIS5_ESaIS5_EE6_S_keyEPKSt18_Rb_tree_node_base"
 "_ZNSt8_Rb_treeINSt7__cxx1112basic_stringIcSt11char_traitsIcESaIcEEES5_St9_IdentityIS5_ESt4lessIS5_ESaIS5_EE7_M_copyERKSB_"
 "_ZNSt8_Rb_treeINSt7__cxx1112basic_stringIcSt11char_traitsIcESaIcEEES5_St9_IdentityIS5_ESt4lessIS5_ESaIS5_EE7_M_copyINSB_11_Alloc_nodeEEEPSt13_Rb_tree_nodeIS5_EPKSF_PSt18_Rb_tree_node_baseRT_"
 "_ZNSt8_Rb_treeINSt7__cxx1112basic_stringIcSt11char_traitsIcESaIcEEES5_St9_IdentityIS5_ESt4lessIS5_ESaIS5_EE7_M_copyINSB_11_Alloc_nodeEEEPSt13_Rb_tree_nodeIS5_ERKSB_RT_"
 "_ZNSt8_Rb_treeINSt7__cxx1112basic_stringIcSt11char_traitsIcESaIcEEES5_St9_IdentityIS5_ESt4lessIS5_ESaIS5_EE7_M_copyINSB_20_Reuse_or_alloc_nodeEEEPSt13_Rb_tree_nodeIS5_EPKSF_PSt18_Rb_tree_node_baseRT_"
 "_ZNSt8_Rb_treeINSt7__cxx1112basic_stringIcSt11char_traitsIcESaIcEEES5_St9_IdentityIS5_ESt4lessIS5_ESaIS5_EE7_M_copyINSB_20_Reuse_or_alloc_nodeEEEPSt13_Rb_tree_nodeIS5_ERKSB_RT_"
 "_ZNSt8_Rb_treeINSt7__cxx1112basic_stringIcSt11char_traitsIcESaIcEEES5_St9_IdentityIS5_ESt4lessIS5_ESaIS5_EE7_M_rootEv"
 "_ZNSt8_Rb_treeINSt7__cxx1112basic_stringIcSt11char_traitsIcESaIcEEES5_St9_IdentityIS5_ESt4lessIS5_ESaIS5_EE7_S_leftEPKSt18_Rb_tree_node_base"
 "_ZNSt8_Rb_treeINSt7__cxx1112basic_stringIcSt11char_traitsIcESaIcEEES5_St9_IdentityIS5_ESt4lessIS5_ESaIS5_EE7_S_leftEPSt18_Rb_tree_node_base"
 "_ZNSt8_Rb_treeINSt7__cxx1112basic_stringIcSt11char_traitsIcESaIcEEES5_St9_IdentityIS5_ESt4lessIS5_ESaIS5_EE8_M_beginEv"
 "_ZNSt8_Rb_treeINSt7__cxx1112basic_stringIcSt11char_traitsIcESaIcEEES5_St9_IdentityIS5_ESt4lessIS5_ESaIS5_EE8_M_eraseEPSt13_Rb_tree_nodeIS5_E"
 "_ZNSt8_Rb_treeINSt7__cxx1112basic_stringIcSt11char_traitsIcESaIcEEES5_St9_IdentityIS5_ESt4lessIS5_ESaIS5_EE8_S_rightEPKSt18_Rb_tree_node_base"
 "_ZNSt8_Rb_treeINSt7__cxx1112basic_stringIcSt11char_traitsIcESaIcEEES5_St9_IdentityIS5_ESt4lessIS5_ESaIS5_EE8_S_rightEPSt18_Rb_tree_node_base"
 "_ZNSt8_Rb_treeINSt7__cxx1112basic_stringIcSt11char_traitsIcESaIcEEES5_St9_IdentityIS5_ESt4lessIS5_ESaIS5_EEaSERKSB_"
 "_ZNSt8_Rb_treeINSt7__cxx1112basic_stringIcSt11char_traitsIcESaIcEEES5_St9_IdentityIS5_ESt4lessIS5_ESaIS5_EEC1EOSB_"
 "_ZNSt8_Rb_treeINSt7__cxx1112basic_stringIcSt11char_traitsIcESaIcEEES5_St9_IdentityIS5_ESt4lessIS5_ESaIS5_EEC1ERKSB_"
 "_ZNSt8_Rb_treeINSt7__cxx1112basic_stringIcSt11char_traitsIcESaIcEEES5_St9_IdentityIS5_ESt4lessIS5_ESaIS5_EEC1Ev"
 "_ZNSt8_Rb_treeINSt7__cxx1112basic_stringIcSt11char_traitsIcESaIcEEES5_St9_IdentityIS5_ESt4lessIS5_ESaIS5_EED1Ev"
 "_ZNSt8_Rb_treeINSt7__cxx1112basic_stringIcSt11char_traitsIcESaIcEEESt4pairIKS5_N5Catch3PtrINS8_16IReporterFactoryEEEESt10_Select1stISC_ESt4lessIS5_ESaISC_EE11_M_get_nodeEv"
 "_ZNSt8_Rb_treeINSt7__cxx1112basic_stringIcSt11char_traitsIcESaIcEEESt4pairIKS5_N5Catch3PtrINS8_16IReporterFactoryEEEESt10_Select1stISC_ESt4lessIS5_ESaISC_EE11_M_put_nodeEPSt13_Rb_tree_nodeISC_E"
 "_ZNSt8_Rb_treeINSt7__cxx1112basic_stringIcSt11char_traitsIcESaIcEEESt4pairIKS5_N5Catch3PtrINS8_16IReporterFactoryEEEESt10_Select1stISC_ESt4lessIS5_ESaISC_EE12_M_drop_nodeEPSt13_Rb_tree_nodeISC_E"
 "_ZNSt8_Rb_treeINSt7__cxx1112basic_stringIcSt11char_traitsIcESaIcEEESt4pairIKS5_N5Catch3PtrINS8_16IReporterFactoryEEEESt10_Select1stISC_ESt4lessIS5_ESaISC_EE13_Rb_tree_implISG_Lb1EEC1Ev"
 "_ZNSt8_Rb_treeINSt7__cxx1112basic_stringIcSt11char_traitsIcESaIcEEESt4pairIKS5_N5Catch3PtrINS8_16IReporterFactoryEEEESt10_Select1stISC_ESt4lessIS5_ESaISC_EE13_Rb_tree_implISG_Lb1EED1Ev"
 "_ZNSt8_Rb_treeINSt7__cxx1112basic_stringIcSt11char_traitsIcESaIcEEESt4pairIKS5_N5Catch3PtrINS8_16IReporterFactoryEEEESt10_Select1stISC_ESt4lessIS5_ESaISC_EE14_M_create_nodeIJS6_IS5_SB_EEEEPSt13_Rb_tree_nodeISC_EDpOT_"
 "_ZNSt8_Rb_treeINSt7__cxx1112basic_stringIcSt11char_traitsIcESaIcEEESt4pairIKS5_N5Catch3PtrINS8_16IReporterFactoryEEEESt10_Select1stISC_ESt4lessIS5_ESaISC_EE14_M_insert_nodeEPSt18_Rb_tree_node_baseSK_PSt13_Rb_tree_nodeISC_E"
 "_ZNSt8_Rb_treeINSt7__cxx1112basic_stringIcSt11char_traitsIcESaIcEEESt4pairIKS5_N5Catch3PtrINS8_16IReporterFactoryEEEESt10_Select1stISC_ESt4lessIS5_ESaISC_EE15_M_destroy_nodeEPSt13_Rb_tree_nodeISC_E"
 "_ZNSt8_Rb_treeINSt7__cxx1112basic_stringIcSt11char_traitsIcESaIcEEESt4pairIKS5_N5Catch3PtrINS8_16IReporterFactoryEEEESt10_Select1stISC_ESt4lessIS5_ESaISC_EE17_M_construct_nodeIJS6_IS5_SB_EEEEvPSt13_Rb_tree_nodeISC_EDpOT_"
 "_ZNSt8_Rb_treeINSt7__cxx1112basic_stringIcSt11char_traitsIcESaIcEEESt4pairIKS5_N5Catch3PtrINS8_16IReporterFactoryEEEESt10_Select1stISC_ESt4lessIS5_ESaISC_EE17_M_emplace_uniqueIJS6_IS5_SB_EEEES6_ISt17_Rb_tree_iteratorISC_EbEDpOT_"
 "_ZNSt8_Rb_treeINSt7__cxx1112basic_stringIcSt11char_traitsIcESaIcEEESt4pairIKS5_N5Catch3PtrINS8_16IReporterFactoryEEEESt10_Select1stISC_ESt4lessIS5_ESaISC_EE21_M_get_Node_allocatorEv"
 "_ZNSt8_Rb_treeINSt7__cxx1112basic_stringIcSt11char_traitsIcESaIcEEESt4pairIKS5_N5Catch3PtrINS8_16IReporterFactoryEEEESt10_Select1stISC_ESt4lessIS5_ESaISC_EE24_M_get_insert_unique_posERS7_"
 "_ZNSt8_Rb_treeINSt7__cxx1112basic_stringIcSt11char_traitsIcESaIcEEESt4pairIKS5_N5Catch3PtrINS8_16IReporterFactoryEEEESt10_Select1stISC_ESt4lessIS5_ESaISC_EE5beginEv"
 "_ZNSt8_Rb_treeINSt7__cxx1112basic_stringIcSt11char_traitsIcESaIcEEESt4pairIKS5_N5Catch3PtrINS8_16IReporterFactoryEEEESt10_Select1stISC_ESt4lessIS5_ESaISC_EE6_M_endEv"
 "_ZNSt8_Rb_treeINSt7__cxx1112basic_stringIcSt11char_traitsIcESaIcEEESt4pairIKS5_N5Catch3PtrINS8_16IReporterFactoryEEEESt10_Select1stISC_ESt4lessIS5_ESaISC_EE6_S_keyEPKSt13_Rb_tree_nodeISC_E"
 "_ZNSt8_Rb_treeINSt7__cxx1112basic_stringIcSt11char_traitsIcESaIcEEESt4pairIKS5_N5Catch3PtrINS8_16IReporterFactoryEEEESt10_Select1stISC_ESt4lessIS5_ESaISC_EE6_S_keyEPKSt18_Rb_tree_node_base"
 "_ZNSt8_Rb_treeINSt7__cxx1112basic_stringIcSt11char_traitsIcESaIcEEESt4pairIKS5_N5Catch3PtrINS8_16IReporterFactoryEEEESt10_Select1stISC_ESt4lessIS5_ESaISC_EE7_S_leftEPKSt18_Rb_tree_node_base"
 "_ZNSt8_Rb_treeINSt7__cxx1112basic_stringIcSt11char_traitsIcESaIcEEESt4pairIKS5_N5Catch3PtrINS8_16IReporterFactoryEEEESt10_Select1stISC_ESt4lessIS5_ESaISC_EE7_S_leftEPSt18_Rb_tree_node_base"
 "_ZNSt8_Rb_treeINSt7__cxx1112basic_stringIcSt11char_traitsIcESaIcEEESt4pairIKS5_N5Catch3PtrINS8_16IReporterFactoryEEEESt10_Select1stISC_ESt4lessIS5_ESaISC_EE8_M_beginEv"
 "_ZNSt8_Rb_treeINSt7__cxx1112basic_stringIcSt11char_traitsIcESaIcEEESt4pairIKS5_N5Catch3PtrINS8_16IReporterFactoryEEEESt10_Select1stISC_ESt4lessIS5_ESaISC_EE8_M_eraseEPSt13_Rb_tree_nodeISC_E"
 "_ZNSt8_Rb_treeINSt7__cxx1112basic_stringIcSt11char_traitsIcESaIcEEESt4pairIKS5_N5Catch3PtrINS8_16IReporterFactoryEEEESt10_Select1stISC_ESt4lessIS5_ESaISC_EE8_S_rightEPKSt18_Rb_tree_node_base"
 "_ZNSt8_Rb_treeINSt7__cxx1112basic_stringIcSt11char_traitsIcESaIcEEESt4pairIKS5_N5Catch3PtrINS8_16IReporterFactoryEEEESt10_Select1stISC_ESt4lessIS5_ESaISC_EE8_S_rightEPSt18_Rb_tree_node_base"
 "_ZNSt8_Rb_treeINSt7__cxx1112basic_stringIcSt11char_traitsIcESaIcEEESt4pairIKS5_N5Catch3PtrINS8_16IReporterFactoryEEEESt10_Select1stISC_ESt4lessIS5_ESaISC_EEC1Ev"
 "_ZNSt8_Rb_treeINSt7__cxx1112basic_stringIcSt11char_traitsIcESaIcEEESt4pairIKS5_N5Catch3PtrINS8_16IReporterFactoryEEEESt10_Select1stISC_ESt4lessIS5_ESaISC_EED1Ev"
 "_ZNSt8_Rb_treeINSt7__cxx1112basic_stringIcSt11char_traitsIcESaIcEEESt4pairIKS5_N5Catch7TagInfoEESt10_Select1stISA_ESt4lessIS5_ESaISA_EE11_M_get_nodeEv"
 "_ZNSt8_Rb_treeINSt7__cxx1112basic_stringIcSt11char_traitsIcESaIcEEESt4pairIKS5_N5Catch7TagInfoEESt10_Select1stISA_ESt4lessIS5_ESaISA_EE11_M_put_nodeEPSt13_Rb_tree_nodeISA_E"
 "_ZNSt8_Rb_treeINSt7__cxx1112basic_stringIcSt11char_traitsIcESaIcEEESt4pairIKS5_N5Catch7TagInfoEESt10_Select1stISA_ESt4lessIS5_ESaISA_EE12_M_drop_nodeEPSt13_Rb_tree_nodeISA_E"
 "_ZNSt8_Rb_treeINSt7__cxx1112basic_stringIcSt11char_traitsIcESaIcEEESt4pairIKS5_N5Catch7TagInfoEESt10_Select1stISA_ESt4lessIS5_ESaISA_EE13_Rb_tree_implISE_Lb1EEC1Ev"
 "_ZNSt8_Rb_treeINSt7__cxx1112basic_stringIcSt11char_traitsIcESaIcEEESt4pairIKS5_N5Catch7TagInfoEESt10_Select1stISA_ESt4lessIS5_ESaISA_EE13_Rb_tree_implISE_Lb1EED1Ev"
 "_ZNSt8_Rb_treeINSt7__cxx1112basic_stringIcSt11char_traitsIcESaIcEEESt4pairIKS5_N5Catch7TagInfoEESt10_Select1stISA_ESt4lessIS5_ESaISA_EE14_M_create_nodeIJS6_IS5_S9_EEEEPSt13_Rb_tree_nodeISA_EDpOT_"
 "_ZNSt8_Rb_treeINSt7__cxx1112basic_stringIcSt11char_traitsIcESaIcEEESt4pairIKS5_N5Catch7TagInfoEESt10_Select1stISA_ESt4lessIS5_ESaISA_EE14_M_insert_nodeEPSt18_Rb_tree_node_baseSI_PSt13_Rb_tree_nodeISA_E"
 "_ZNSt8_Rb_treeINSt7__cxx1112basic_stringIcSt11char_traitsIcESaIcEEESt4pairIKS5_N5Catch7TagInfoEESt10_Select1stISA_ESt4lessIS5_ESaISA_EE14_M_lower_boundEPSt13_Rb_tree_nodeISA_EPSt18_Rb_tree_node_baseRS7_"
 "_ZNSt8_Rb_treeINSt7__cxx1112basic_stringIcSt11char_traitsIcESaIcEEESt4pairIKS5_N5Catch7TagInfoEESt10_Select1stISA_ESt4lessIS5_ESaISA_EE15_M_destroy_nodeEPSt13_Rb_tree_nodeISA_E"
 "_ZNSt8_Rb_treeINSt7__cxx1112basic_stringIcSt11char_traitsIcESaIcEEESt4pairIKS5_N5Catch7TagInfoEESt10_Select1stISA_ESt4lessIS5_ESaISA_EE17_M_construct_nodeIJS6_IS5_S9_EEEEvPSt13_Rb_tree_nodeISA_EDpOT_"
 "_ZNSt8_Rb_treeINSt7__cxx1112basic_stringIcSt11char_traitsIcESaIcEEESt4pairIKS5_N5Catch7TagInfoEESt10_Select1stISA_ESt4lessIS5_ESaISA_EE17_M_emplace_uniqueIJS6_IS5_S9_EEEES6_ISt17_Rb_tree_iteratorISA_EbEDpOT_"
 "_ZNSt8_Rb_treeINSt7__cxx1112basic_stringIcSt11char_traitsIcESaIcEEESt4pairIKS5_N5Catch7TagInfoEESt10_Select1stISA_ESt4lessIS5_ESaISA_EE21_M_get_Node_allocatorEv"
 "_ZNSt8_Rb_treeINSt7__cxx1112basic_stringIcSt11char_traitsIcESaIcEEESt4pairIKS5_N5Catch7TagInfoEESt10_Select1stISA_ESt4lessIS5_ESaISA_EE24_M_get_insert_unique_posERS7_"
 "_ZNSt8_Rb_treeINSt7__cxx1112basic_stringIcSt11char_traitsIcESaIcEEESt4pairIKS5_N5Catch7TagInfoEESt10_Select1stISA_ESt4lessIS5_ESaISA_EE3endEv"
 "_ZNSt8_Rb_treeINSt7__cxx1112basic_stringIcSt11char_traitsIcESaIcEEESt4pairIKS5_N5Catch7TagInfoEESt10_Select1stISA_ESt4lessIS5_ESaISA_EE4findERS7_"
 "_ZNSt8_Rb_treeINSt7__cxx1112basic_stringIcSt11char_traitsIcESaIcEEESt4pairIKS5_N5Catch7TagInfoEESt10_Select1stISA_ESt4lessIS5_ESaISA_EE5beginEv"
 "_ZNSt8_Rb_treeINSt7__cxx1112basic_stringIcSt11char_traitsIcESaIcEEESt4pairIKS5_N5Catch7TagInfoEESt10_Select1stISA_ESt4lessIS5_ESaISA_EE6_M_endEv"
 "_ZNSt8_Rb_treeINSt7__cxx1112basic_stringIcSt11char_traitsIcESaIcEEESt4pairIKS5_N5Catch7TagInfoEESt10_Select1stISA_ESt4lessIS5_ESaISA_EE6_S_keyEPKSt13_Rb_tree_nodeISA_E"
 "_ZNSt8_Rb_treeINSt7__cxx1112basic_stringIcSt11char_traitsIcESaIcEEESt4pairIKS5_N5Catch7TagInfoEESt10_Select1stISA_ESt4lessIS5_ESaISA_EE6_S_keyEPKSt18_Rb_tree_node_base"
 "_ZNSt8_Rb_treeINSt7__cxx1112basic_stringIcSt11char_traitsIcESaIcEEESt4pairIKS5_N5Catch7TagInfoEESt10_Select1stISA_ESt4lessIS5_ESaISA_EE7_S_leftEPSt18_Rb_tree_node_base"
 "_ZNSt8_Rb_treeINSt7__cxx1112basic_stringIcSt11char_traitsIcESaIcEEESt4pairIKS5_N5Catch7TagInfoEESt10_Select1stISA_ESt4lessIS5_ESaISA_EE8_M_beginEv"
 "_ZNSt8_Rb_treeINSt7__cxx1112basic_stringIcSt11char_traitsIcESaIcEEESt4pairIKS5_N5Catch7TagInfoEESt10_Select1stISA_ESt4lessIS5_ESaISA_EE8_M_eraseEPSt13_Rb_tree_nodeISA_E"
 "_ZNSt8_Rb_treeINSt7__cxx1112basic_stringIcSt11char_traitsIcESaIcEEESt4pairIKS5_N5Catch7TagInfoEESt10_Select1stISA_ESt4lessIS5_ESaISA_EE8_S_rightEPSt18_Rb_tree_node_base"
 "_ZNSt8_Rb_treeINSt7__cxx1112basic_stringIcSt11char_traitsIcESaIcEEESt4pairIKS5_N5Catch7TagInfoEESt10_Select1stISA_ESt4lessIS5_ESaISA_EEC1Ev"
 "_ZNSt8_Rb_treeINSt7__cxx1112basic_stringIcSt11char_traitsIcESaIcEEESt4pairIKS5_N5Catch7TagInfoEESt10_Select1stISA_ESt4lessIS5_ESaISA_EED1Ev"
 "_ZNSt8_Rb_treeINSt7__cxx1112basic_stringIcSt11char_traitsIcESaIcEEESt4pairIKS5_N5Catch8TagAliasEESt10_Select1stISA_ESt4lessIS5_ESaISA_EE11_M_get_nodeEv"
 "_ZNSt8_Rb_treeINSt7__cxx1112basic_stringIcSt11char_traitsIcESaIcEEESt4pairIKS5_N5Catch8TagAliasEESt10_Select1stISA_ESt4lessIS5_ESaISA_EE11_M_put_nodeEPSt13_Rb_tree_nodeISA_E"
 "_ZNSt8_Rb_treeINSt7__cxx1112basic_stringIcSt11char_traitsIcESaIcEEESt4pairIKS5_N5Catch8TagAliasEESt10_Select1stISA_ESt4lessIS5_ESaISA_EE12_M_drop_nodeEPSt13_Rb_tree_nodeISA_E"
 "_ZNSt8_Rb_treeINSt7__cxx1112basic_stringIcSt11char_traitsIcESaIcEEESt4pairIKS5_N5Catch8TagAliasEESt10_Select1stISA_ESt4lessIS5_ESaISA_EE13_Rb_tree_implISE_Lb1EEC1Ev"
 "_ZNSt8_Rb_treeINSt7__cxx1112basic_stringIcSt11char_traitsIcESaIcEEESt4pairIKS5_N5Catch8TagAliasEESt10_Select1stISA_ESt4lessIS5_ESaISA_EE13_Rb_tree_implISE_Lb1EED1Ev"
 "_ZNSt8_Rb_treeINSt7__cxx1112basic_stringIcSt11char_traitsIcESaIcEEESt4pairIKS5_N5Catch8TagAliasEESt10_Select1stISA_ESt4lessIS5_ESaISA_EE14_M_create_nodeIJS6_IS5_S9_EEEEPSt13_Rb_tree_nodeISA_EDpOT_"
 "_ZNSt8_Rb_treeINSt7__cxx1112basic_stringIcSt11char_traitsIcESaIcEEESt4pairIKS5_N5Catch8TagAliasEESt10_Select1stISA_ESt4lessIS5_ESaISA_EE14_M_insert_nodeEPSt18_Rb_tree_node_baseSI_PSt13_Rb_tree_nodeISA_E"
 "_ZNSt8_Rb_treeINSt7__cxx1112basic_stringIcSt11char_traitsIcESaIcEEESt4pairIKS5_N5Catch8TagAliasEESt10_Select1stISA_ESt4lessIS5_ESaISA_EE15_M_destroy_nodeEPSt13_Rb_tree_nodeISA_E"
 "_ZNSt8_Rb_treeINSt7__cxx1112basic_stringIcSt11char_traitsIcESaIcEEESt4pairIKS5_N5Catch8TagAliasEESt10_Select1stISA_ESt4lessIS5_ESaISA_EE17_M_construct_nodeIJS6_IS5_S9_EEEEvPSt13_Rb_tree_nodeISA_EDpOT_"
 "_ZNSt8_Rb_treeINSt7__cxx1112basic_stringIcSt11char_traitsIcESaIcEEESt4pairIKS5_N5Catch8TagAliasEESt10_Select1stISA_ESt4lessIS5_ESaISA_EE17_M_emplace_uniqueIJS6_IS5_S9_EEEES6_ISt17_Rb_tree_iteratorISA_EbEDpOT_"
 "_ZNSt8_Rb_treeINSt7__cxx1112basic_stringIcSt11char_traitsIcESaIcEEESt4pairIKS5_N5Catch8TagAliasEESt10_Select1stISA_ESt4lessIS5_ESaISA_EE21_M_get_Node_allocatorEv"
 "_ZNSt8_Rb_treeINSt7__cxx1112basic_stringIcSt11char_traitsIcESaIcEEESt4pairIKS5_N5Catch8TagAliasEESt10_Select1stISA_ESt4lessIS5_ESaISA_EE24_M_get_insert_unique_posERS7_"
 "_ZNSt8_Rb_treeINSt7__cxx1112basic_stringIcSt11char_traitsIcESaIcEEESt4pairIKS5_N5Catch8TagAliasEESt10_Select1stISA_ESt4lessIS5_ESaISA_EE5beginEv"
 "_ZNSt8_Rb_treeINSt7__cxx1112basic_stringIcSt11char_traitsIcESaIcEEESt4pairIKS5_N5Catch8TagAliasEESt10_Select1stISA_ESt4lessIS5_ESaISA_EE6_M_endEv"
 "_ZNSt8_Rb_treeINSt7__cxx1112basic_stringIcSt11char_traitsIcESaIcEEESt4pairIKS5_N5Catch8TagAliasEESt10_Select1stISA_ESt4lessIS5_ESaISA_EE6_S_keyEPKSt13_Rb_tree_nodeISA_E"
 "_ZNSt8_Rb_treeINSt7__cxx1112basic_stringIcSt11char_traitsIcESaIcEEESt4pairIKS5_N5Catch8TagAliasEESt10_Select1stISA_ESt4lessIS5_ESaISA_EE6_S_keyEPKSt18_Rb_tree_node_base"
 "_ZNSt8_Rb_treeINSt7__cxx1112basic_stringIcSt11char_traitsIcESaIcEEESt4pairIKS5_N5Catch8TagAliasEESt10_Select1stISA_ESt4lessIS5_ESaISA_EE7_S_leftEPKSt18_Rb_tree_node_base"
 "_ZNSt8_Rb_treeINSt7__cxx1112basic_stringIcSt11char_traitsIcESaIcEEESt4pairIKS5_N5Catch8TagAliasEESt10_Select1stISA_ESt4lessIS5_ESaISA_EE7_S_leftEPSt18_Rb_tree_node_base"
 "_ZNSt8_Rb_treeINSt7__cxx1112basic_stringIcSt11char_traitsIcESaIcEEESt4pairIKS5_N5Catch8TagAliasEESt10_Select1stISA_ESt4lessIS5_ESaISA_EE8_M_beginEv"
 "_ZNSt8_Rb_treeINSt7__cxx1112basic_stringIcSt11char_traitsIcESaIcEEESt4pairIKS5_N5Catch8TagAliasEESt10_Select1stISA_ESt4lessIS5_ESaISA_EE8_M_eraseEPSt13_Rb_tree_nodeISA_E"
 "_ZNSt8_Rb_treeINSt7__cxx1112basic_stringIcSt11char_traitsIcESaIcEEESt4pairIKS5_N5Catch8TagAliasEESt10_Select1stISA_ESt4lessIS5_ESaISA_EE8_S_rightEPKSt18_Rb_tree_node_base"
 "_ZNSt8_Rb_treeINSt7__cxx1112basic_stringIcSt11char_traitsIcESaIcEEESt4pairIKS5_N5Catch8TagAliasEESt10_Select1stISA_ESt4lessIS5_ESaISA_EE8_S_rightEPSt18_Rb_tree_node_base"
 "_ZNSt8_Rb_treeINSt7__cxx1112basic_stringIcSt11char_traitsIcESaIcEEESt4pairIKS5_N5Catch8TagAliasEESt10_Select1stISA_ESt4lessIS5_ESaISA_EEC1Ev"
 "_ZNSt8_Rb_treeINSt7__cxx1112basic_stringIcSt11char_traitsIcESaIcEEESt4pairIKS5_N5Catch8TagAliasEESt10_Select1stISA_ESt4lessIS5_ESaISA_EED1Ev"
 "_ZNSt8_Rb_treeINSt7__cxx1112basic_stringIcSt11char_traitsIcESaIcEEESt4pairIKS5_PN5Catch14IGeneratorInfoEESt10_Select1stISB_ESt4lessIS5_ESaISB_EE11_M_get_nodeEv"
 "_ZNSt8_Rb_treeINSt7__cxx1112basic_stringIcSt11char_traitsIcESaIcEEESt4pairIKS5_PN5Catch14IGeneratorInfoEESt10_Select1stISB_ESt4lessIS5_ESaISB_EE11_M_put_nodeEPSt13_Rb_tree_nodeISB_E"
 "_ZNSt8_Rb_treeINSt7__cxx1112basic_stringIcSt11char_traitsIcESaIcEEESt4pairIKS5_PN5Catch14IGeneratorInfoEESt10_Select1stISB_ESt4lessIS5_ESaISB_EE12_M_drop_nodeEPSt13_Rb_tree_nodeISB_E"
 "_ZNSt8_Rb_treeINSt7__cxx1112basic_stringIcSt11char_traitsIcESaIcEEESt4pairIKS5_PN5Catch14IGeneratorInfoEESt10_Select1stISB_ESt4lessIS5_ESaISB_EE13_Rb_tree_implISF_Lb1EEC1Ev"
 "_ZNSt8_Rb_treeINSt7__cxx1112basic_stringIcSt11char_traitsIcESaIcEEESt4pairIKS5_PN5Catch14IGeneratorInfoEESt10_Select1stISB_ESt4lessIS5_ESaISB_EE13_Rb_tree_implISF_Lb1EED1Ev"
 "_ZNSt8_Rb_treeINSt7__cxx1112basic_stringIcSt11char_traitsIcESaIcEEESt4pairIKS5_PN5Catch14IGeneratorInfoEESt10_Select1stISB_ESt4lessIS5_ESaISB_EE14_M_create_nodeIJS6_IS5_SA_EEEEPSt13_Rb_tree_nodeISB_EDpOT_"
 "_ZNSt8_Rb_treeINSt7__cxx1112basic_stringIcSt11char_traitsIcESaIcEEESt4pairIKS5_PN5Catch14IGeneratorInfoEESt10_Select1stISB_ESt4lessIS5_ESaISB_EE14_M_insert_nodeEPSt18_Rb_tree_node_baseSJ_PSt13_Rb_tree_nodeISB_E"
 "_ZNSt8_Rb_treeINSt7__cxx1112basic_stringIcSt11char_traitsIcESaIcEEESt4pairIKS5_PN5Catch14IGeneratorInfoEESt10_Select1stISB_ESt4lessIS5_ESaISB_EE14_M_lower_boundEPSt13_Rb_tree_nodeISB_EPSt18_Rb_tree_node_baseRS7_"
 "_ZNSt8_Rb_treeINSt7__cxx1112basic_stringIcSt11char_traitsIcESaIcEEESt4pairIKS5_PN5Catch14IGeneratorInfoEESt10_Select1stISB_ESt4lessIS5_ESaISB_EE15_M_destroy_nodeEPSt13_Rb_tree_nodeISB_E"
 "_ZNSt8_Rb_treeINSt7__cxx1112basic_stringIcSt11char_traitsIcESaIcEEESt4pairIKS5_PN5Catch14IGeneratorInfoEESt10_Select1stISB_ESt4lessIS5_ESaISB_EE17_M_construct_nodeIJS6_IS5_SA_EEEEvPSt13_Rb_tree_nodeISB_EDpOT_"
 "_ZNSt8_Rb_treeINSt7__cxx1112basic_stringIcSt11char_traitsIcESaIcEEESt4pairIKS5_PN5Catch14IGeneratorInfoEESt10_Select1stISB_ESt4lessIS5_ESaISB_EE17_M_emplace_uniqueIJS6_IS5_SA_EEEES6_ISt17_Rb_tree_iteratorISB_EbEDpOT_"
 "_ZNSt8_Rb_treeINSt7__cxx1112basic_stringIcSt11char_traitsIcESaIcEEESt4pairIKS5_PN5Catch14IGeneratorInfoEESt10_Select1stISB_ESt4lessIS5_ESaISB_EE21_M_get_Node_allocatorEv"
 "_ZNSt8_Rb_treeINSt7__cxx1112basic_stringIcSt11char_traitsIcESaIcEEESt4pairIKS5_PN5Catch14IGeneratorInfoEESt10_Select1stISB_ESt4lessIS5_ESaISB_EE24_M_get_insert_unique_posERS7_"
 "_ZNSt8_Rb_treeINSt7__cxx1112basic_stringIcSt11char_traitsIcESaIcEEESt4pairIKS5_PN5Catch14IGeneratorInfoEESt10_Select1stISB_ESt4lessIS5_ESaISB_EE3endEv"
 "_ZNSt8_Rb_treeINSt7__cxx1112basic_stringIcSt11char_traitsIcESaIcEEESt4pairIKS5_PN5Catch14IGeneratorInfoEESt10_Select1stISB_ESt4lessIS5_ESaISB_EE4findERS7_"
 "_ZNSt8_Rb_treeINSt7__cxx1112basic_stringIcSt11char_traitsIcESaIcEEESt4pairIKS5_PN5Catch14IGeneratorInfoEESt10_Select1stISB_ESt4lessIS5_ESaISB_EE5beginEv"
 "_ZNSt8_Rb_treeINSt7__cxx1112basic_stringIcSt11char_traitsIcESaIcEEESt4pairIKS5_PN5Catch14IGeneratorInfoEESt10_Select1stISB_ESt4lessIS5_ESaISB_EE6_M_endEv"
 "_ZNSt8_Rb_treeINSt7__cxx1112basic_stringIcSt11char_traitsIcESaIcEEESt4pairIKS5_PN5Catch14IGeneratorInfoEESt10_Select1stISB_ESt4lessIS5_ESaISB_EE6_S_keyEPKSt13_Rb_tree_nodeISB_E"
 "_ZNSt8_Rb_treeINSt7__cxx1112basic_stringIcSt11char_traitsIcESaIcEEESt4pairIKS5_PN5Catch14IGeneratorInfoEESt10_Select1stISB_ESt4lessIS5_ESaISB_EE6_S_keyEPKSt18_Rb_tree_node_base"
 "_ZNSt8_Rb_treeINSt7__cxx1112basic_stringIcSt11char_traitsIcESaIcEEESt4pairIKS5_PN5Catch14IGeneratorInfoEESt10_Select1stISB_ESt4lessIS5_ESaISB_EE7_S_leftEPSt18_Rb_tree_node_base"
 "_ZNSt8_Rb_treeINSt7__cxx1112basic_stringIcSt11char_traitsIcESaIcEEESt4pairIKS5_PN5Catch14IGeneratorInfoEESt10_Select1stISB_ESt4lessIS5_ESaISB_EE8_M_beginEv"
 "_ZNSt8_Rb_treeINSt7__cxx1112basic_stringIcSt11char_traitsIcESaIcEEESt4pairIKS5_PN5Catch14IGeneratorInfoEESt10_Select1stISB_ESt4lessIS5_ESaISB_EE8_M_eraseEPSt13_Rb_tree_nodeISB_E"
 "_ZNSt8_Rb_treeINSt7__cxx1112basic_stringIcSt11char_traitsIcESaIcEEESt4pairIKS5_PN5Catch14IGeneratorInfoEESt10_Select1stISB_ESt4lessIS5_ESaISB_EE8_S_rightEPSt18_Rb_tree_node_base"
 "_ZNSt8_Rb_treeINSt7__cxx1112basic_stringIcSt11char_traitsIcESaIcEEESt4pairIKS5_PN5Catch14IGeneratorInfoEESt10_Select1stISB_ESt4lessIS5_ESaISB_EEC1Ev"
 "_ZNSt8_Rb_treeINSt7__cxx1112basic_stringIcSt11char_traitsIcESaIcEEESt4pairIKS5_PN5Catch14IGeneratorInfoEESt10_Select1stISB_ESt4lessIS5_ESaISB_EED1Ev"
 "_ZNSt8_Rb_treeINSt7__cxx1112basic_stringIcSt11char_traitsIcESaIcEEESt4pairIKS5_PN5Catch18IGeneratorsForTestEESt10_Select1stISB_ESt4lessIS5_ESaISB_EE11_M_get_nodeEv"
 "_ZNSt8_Rb_treeINSt7__cxx1112basic_stringIcSt11char_traitsIcESaIcEEESt4pairIKS5_PN5Catch18IGeneratorsForTestEESt10_Select1stISB_ESt4lessIS5_ESaISB_EE11_M_put_nodeEPSt13_Rb_tree_nodeISB_E"
 "_ZNSt8_Rb_treeINSt7__cxx1112basic_stringIcSt11char_traitsIcESaIcEEESt4pairIKS5_PN5Catch18IGeneratorsForTestEESt10_Select1stISB_ESt4lessIS5_ESaISB_EE12_M_drop_nodeEPSt13_Rb_tree_nodeISB_E"
 "_ZNSt8_Rb_treeINSt7__cxx1112basic_stringIcSt11char_traitsIcESaIcEEESt4pairIKS5_PN5Catch18IGeneratorsForTestEESt10_Select1stISB_ESt4lessIS5_ESaISB_EE13_Rb_tree_implISF_Lb1EEC1Ev"
 "_ZNSt8_Rb_treeINSt7__cxx1112basic_stringIcSt11char_traitsIcESaIcEEESt4pairIKS5_PN5Catch18IGeneratorsForTestEESt10_Select1stISB_ESt4lessIS5_ESaISB_EE13_Rb_tree_implISF_Lb1EED1Ev"
 "_ZNSt8_Rb_treeINSt7__cxx1112basic_stringIcSt11char_traitsIcESaIcEEESt4pairIKS5_PN5Catch18IGeneratorsForTestEESt10_Select1stISB_ESt4lessIS5_ESaISB_EE14_M_create_nodeIJS6_IS5_SA_EEEEPSt13_Rb_tree_nodeISB_EDpOT_"
 "_ZNSt8_Rb_treeINSt7__cxx1112basic_stringIcSt11char_traitsIcESaIcEEESt4pairIKS5_PN5Catch18IGeneratorsForTestEESt10_Select1stISB_ESt4lessIS5_ESaISB_EE14_M_insert_nodeEPSt18_Rb_tree_node_baseSJ_PSt13_Rb_tree_nodeISB_E"
 "_ZNSt8_Rb_treeINSt7__cxx1112basic_stringIcSt11char_traitsIcESaIcEEESt4pairIKS5_PN5Catch18IGeneratorsForTestEESt10_Select1stISB_ESt4lessIS5_ESaISB_EE14_M_lower_boundEPSt13_Rb_tree_nodeISB_EPSt18_Rb_tree_node_baseRS7_"
 "_ZNSt8_Rb_treeINSt7__cxx1112basic_stringIcSt11char_traitsIcESaIcEEESt4pairIKS5_PN5Catch18IGeneratorsForTestEESt10_Select1stISB_ESt4lessIS5_ESaISB_EE15_M_destroy_nodeEPSt13_Rb_tree_nodeISB_E"
 "_ZNSt8_Rb_treeINSt7__cxx1112basic_stringIcSt11char_traitsIcESaIcEEESt4pairIKS5_PN5Catch18IGeneratorsForTestEESt10_Select1stISB_ESt4lessIS5_ESaISB_EE17_M_construct_nodeIJS6_IS5_SA_EEEEvPSt13_Rb_tree_nodeISB_EDpOT_"
 "_ZNSt8_Rb_treeINSt7__cxx1112basic_stringIcSt11char_traitsIcESaIcEEESt4pairIKS5_PN5Catch18IGeneratorsForTestEESt10_Select1stISB_ESt4lessIS5_ESaISB_EE17_M_emplace_uniqueIJS6_IS5_SA_EEEES6_ISt17_Rb_tree_iteratorISB_EbEDpOT_"
 "_ZNSt8_Rb_treeINSt7__cxx1112basic_stringIcSt11char_traitsIcESaIcEEESt4pairIKS5_PN5Catch18IGeneratorsForTestEESt10_Select1stISB_ESt4lessIS5_ESaISB_EE21_M_get_Node_allocatorEv"
 "_ZNSt8_Rb_treeINSt7__cxx1112basic_stringIcSt11char_traitsIcESaIcEEESt4pairIKS5_PN5Catch18IGeneratorsForTestEESt10_Select1stISB_ESt4lessIS5_ESaISB_EE24_M_get_insert_unique_posERS7_"
 "_ZNSt8_Rb_treeINSt7__cxx1112basic_stringIcSt11char_traitsIcESaIcEEESt4pairIKS5_PN5Catch18IGeneratorsForTestEESt10_Select1stISB_ESt4lessIS5_ESaISB_EE3endEv"
 "_ZNSt8_Rb_treeINSt7__cxx1112basic_stringIcSt11char_traitsIcESaIcEEESt4pairIKS5_PN5Catch18IGeneratorsForTestEESt10_Select1stISB_ESt4lessIS5_ESaISB_EE4findERS7_"
 "_ZNSt8_Rb_treeINSt7__cxx1112basic_stringIcSt11char_traitsIcESaIcEEESt4pairIKS5_PN5Catch18IGeneratorsForTestEESt10_Select1stISB_ESt4lessIS5_ESaISB_EE5beginEv"
 "_ZNSt8_Rb_treeINSt7__cxx1112basic_stringIcSt11char_traitsIcESaIcEEESt4pairIKS5_PN5Catch18IGeneratorsForTestEESt10_Select1stISB_ESt4lessIS5_ESaISB_EE6_M_endEv"
 "_ZNSt8_Rb_treeINSt7__cxx1112basic_stringIcSt11char_traitsIcESaIcEEESt4pairIKS5_PN5Catch18IGeneratorsForTestEESt10_Select1stISB_ESt4lessIS5_ESaISB_EE6_S_keyEPKSt13_Rb_tree_nodeISB_E"
 "_ZNSt8_Rb_treeINSt7__cxx1112basic_stringIcSt11char_traitsIcESaIcEEESt4pairIKS5_PN5Catch18IGeneratorsForTestEESt10_Select1stISB_ESt4lessIS5_ESaISB_EE6_S_keyEPKSt18_Rb_tree_node_base"
 "_ZNSt8_Rb_treeINSt7__cxx1112basic_stringIcSt11char_traitsIcESaIcEEESt4pairIKS5_PN5Catch18IGeneratorsForTestEESt10_Select1stISB_ESt4lessIS5_ESaISB_EE7_S_leftEPSt18_Rb_tree_node_base"
 "_ZNSt8_Rb_treeINSt7__cxx1112basic_stringIcSt11char_traitsIcESaIcEEESt4pairIKS5_PN5Catch18IGeneratorsForTestEESt10_Select1stISB_ESt4lessIS5_ESaISB_EE8_M_beginEv"
 "_ZNSt8_Rb_treeINSt7__cxx1112basic_stringIcSt11char_traitsIcESaIcEEESt4pairIKS5_PN5Catch18IGeneratorsForTestEESt10_Select1stISB_ESt4lessIS5_ESaISB_EE8_M_eraseEPSt13_Rb_tree_nodeISB_E"
 "_ZNSt8_Rb_treeINSt7__cxx1112basic_stringIcSt11char_traitsIcESaIcEEESt4pairIKS5_PN5Catch18IGeneratorsForTestEESt10_Select1stISB_ESt4lessIS5_ESaISB_EE8_S_rightEPSt18_Rb_tree_node_base"
 "_ZNSt8_Rb_treeINSt7__cxx1112basic_stringIcSt11char_traitsIcESaIcEEESt4pairIKS5_PN5Catch18IGeneratorsForTestEESt10_Select1stISB_ESt4lessIS5_ESaISB_EEC1Ev"
 "_ZNSt8_Rb_treeINSt7__cxx1112basic_stringIcSt11char_traitsIcESaIcEEESt4pairIKS5_PN5Catch18IGeneratorsForTestEESt10_Select1stISB_ESt4lessIS5_ESaISB_EED1Ev"
 "_ZNSt8ios_base4setfESt13_Ios_Fmtflags"
 "_ZNSt8ios_base4setfESt13_Ios_FmtflagsS0_"
 "_ZNSt9exceptionC2Ev"
 "_ZnwyPv"
 "_ZSt10__distanceIN9__gnu_cxx17__normal_iteratorIPKcNSt7__cxx1112basic_stringIcSt11char_traitsIcESaIcEEEEEENSt15iterator_traitsIT_E15difference_typeESC_SC_St26random_access_iterator_tag"
 "_ZSt10__distanceIN9__gnu_cxx17__normal_iteratorIPKN5Catch11MessageInfoESt6vectorIS3_SaIS3_EEEEENSt15iterator_traitsIT_E15difference_typeESB_SB_St26random_access_iterator_tag"
 "_ZSt10__distanceIN9__gnu_cxx17__normal_iteratorIPKNSt7__cxx1112basic_stringIcSt11char_traitsIcESaIcEEESt6vectorIS7_SaIS7_EEEEENSt15iterator_traitsIT_E15difference_typeESF_SF_St26random_access_iterator_tag"
 "_ZSt10__pop_heapIN9__gnu_cxx17__normal_iteratorIPN5Catch8TestCaseESt6vectorIS3_SaIS3_EEEENS0_5__ops15_Iter_less_iterEEvT_SB_SB_RT0_"
 "_ZSt10_ConstructIN5Catch11MessageInfoEJRKS1_EEvPT_DpOT0_"
 "_ZSt10_ConstructIN5Catch11MessageInfoEJS1_EEvPT_DpOT0_"
 "_ZSt10_ConstructIN5Catch11SectionInfoEJS1_EEvPT_DpOT0_"
 "_ZSt10_ConstructIN5Catch14AssertionStatsEJS1_EEvPT_DpOT0_"
 "_ZSt10_ConstructIN5Catch14SectionEndInfoEJS1_EEvPT_DpOT0_"
 "_ZSt10_ConstructIN5Catch15ConsoleReporter13SummaryColumnEJS2_EEvPT_DpOT0_"
 "_ZSt10_ConstructIN5Catch3PtrINS0_16IReporterFactoryEEEJRKS3_EEvPT_DpOT0_"
 "_ZSt10_ConstructIN5Catch3PtrINS0_16TestCaseTracking8ITrackerEEEJRKS4_EEvPT_DpOT0_"
 "_ZSt10_ConstructIN5Catch3PtrINS0_18IStreamingReporterEEEJRKS3_EEvPT_DpOT0_"
 "_ZSt10_ConstructIN5Catch3PtrINS0_22CumulativeReporterBase11SectionNodeEEEJRKS4_EEvPT_DpOT0_"
 "_ZSt10_ConstructIN5Catch3PtrINS0_22CumulativeReporterBase4NodeINS0_12TestRunStatsENS3_INS0_14TestGroupStatsENS3_INS0_13TestCaseStatsENS2_11SectionNodeEEEEEEEEEJRKSB_EEvPT_DpOT0_"
 "_ZSt10_ConstructIN5Catch3PtrINS0_22CumulativeReporterBase4NodeINS0_13TestCaseStatsENS2_11SectionNodeEEEEEJRKS7_EEvPT_DpOT0_"
 "_ZSt10_ConstructIN5Catch3PtrINS0_22CumulativeReporterBase4NodeINS0_14TestGroupStatsENS3_INS0_13TestCaseStatsENS2_11SectionNodeEEEEEEEJRKS9_EEvPT_DpOT0_"
 "_ZSt10_ConstructIN5Catch3PtrINS0_8TestSpec7PatternEEEJRKS4_EEvPT_DpOT0_"
 "_ZSt10_ConstructIN5Catch5Clara11CommandLineINS0_10ConfigDataEE3ArgEJRKS5_EEvPT_DpOT0_"
 "_ZSt10_ConstructIN5Catch5Clara6Parser5TokenEJRKS3_EEvPT_DpOT0_"
 "_ZSt10_ConstructIN5Catch5Clara6Parser5TokenEJS3_EEvPT_DpOT0_"
 "_ZSt10_ConstructIN5Catch8TestCaseEJRKS1_EEvPT_DpOT0_"
 "_ZSt10_ConstructIN5Catch8TestSpec6FilterEJRKS2_EEvPT_DpOT0_"
 "_ZSt10_ConstructIN5Catch8TestSpec6FilterEJS2_EEvPT_DpOT0_"
 "_ZSt10_ConstructINSt7__cxx1112basic_stringIcSt11char_traitsIcESaIcEEEJEEvPT_DpOT0_"
 "_ZSt10_ConstructINSt7__cxx1112basic_stringIcSt11char_traitsIcESaIcEEEJRKS5_EEvPT_DpOT0_"
 "_ZSt10_ConstructINSt7__cxx1112basic_stringIcSt11char_traitsIcESaIcEEEJS5_EEvPT_DpOT0_"
 "_ZSt11__addressofIN5Catch11MessageInfoEEPT_RS2_"
 "_ZSt11__addressofIN5Catch11SectionInfoEEPT_RS2_"
 "_ZSt11__addressofIN5Catch14AssertionStatsEEPT_RS2_"
 "_ZSt11__addressofIN5Catch14SectionEndInfoEEPT_RS2_"
 "_ZSt11__addressofIN5Catch15ConsoleReporter13SummaryColumnEEPT_RS3_"
 "_ZSt11__addressofIN5Catch3PtrINS0_16IReporterFactoryEEEEPT_RS4_"
 "_ZSt11__addressofIN5Catch3PtrINS0_16TestCaseTracking8ITrackerEEEEPT_RS5_"
 "_ZSt11__addressofIN5Catch3PtrINS0_18IStreamingReporterEEEEPT_RS4_"
 "_ZSt11__addressofIN5Catch3PtrINS0_22CumulativeReporterBase11SectionNodeEEEEPT_RS5_"
 "_ZSt11__addressofIN5Catch3PtrINS0_22CumulativeReporterBase4NodeINS0_12TestRunStatsENS3_INS0_14TestGroupStatsENS3_INS0_13TestCaseStatsENS2_11SectionNodeEEEEEEEEEEPT_RSC_"
 "_ZSt11__addressofIN5Catch3PtrINS0_22CumulativeReporterBase4NodeINS0_13TestCaseStatsENS2_11SectionNodeEEEEEEPT_RS8_"
 "_ZSt11__addressofIN5Catch3PtrINS0_22CumulativeReporterBase4NodeINS0_14TestGroupStatsENS3_INS0_13TestCaseStatsENS2_11SectionNodeEEEEEEEEPT_RSA_"
 "_ZSt11__addressofIN5Catch3PtrINS0_8TestSpec7PatternEEEEPT_RS5_"
 "_ZSt11__addressofIN5Catch5Clara11CommandLineINS0_10ConfigDataEE3ArgEEPT_RS6_"
 "_ZSt11__addressofIN5Catch5Clara6Parser5TokenEEPT_RS4_"
 "_ZSt11__addressofIN5Catch8TestCaseEEPT_RS2_"
 "_ZSt11__addressofIN5Catch8TestSpec6FilterEEPT_RS3_"
 "_ZSt11__addressofINSt7__cxx1112basic_stringIcSt11char_traitsIcESaIcEEEEPT_RS6_"
 "_ZSt11__addressofISt6vectorIN5Catch3PtrINS1_22CumulativeReporterBase11SectionNodeEEESaIS5_EEEPT_RS8_"
 "_ZSt11__equal_auxIN9__gnu_cxx17__normal_iteratorIPKcNSt7__cxx1112basic_stringIcSt11char_traitsIcESaIcEEEEESA_EbT_SB_T0_"
 "_ZSt11__equal_auxISt16reverse_iteratorIN9__gnu_cxx17__normal_iteratorIPKcNSt7__cxx1112basic_stringIcSt11char_traitsIcESaIcEEEEEESC_EbT_SD_T0_"
 "_ZSt11__make_heapIN9__gnu_cxx17__normal_iteratorIPN5Catch8TestCaseESt6vectorIS3_SaIS3_EEEENS0_5__ops15_Iter_less_iterEEvT_SB_RT0_"
 "_ZSt11__push_heapIN9__gnu_cxx17__normal_iteratorIPN5Catch8TestCaseESt6vectorIS3_SaIS3_EEEExS3_NS0_5__ops14_Iter_less_valEEvT_T0_SC_T1_RT2_"
 "_ZSt11__remove_ifIN9__gnu_cxx17__normal_iteratorIPN5Catch11MessageInfoESt6vectorIS3_SaIS3_EEEENS0_5__ops16_Iter_equals_valIKS3_EEET_SD_SD_T0_"
 "_ZSt11__sort_heapIN9__gnu_cxx17__normal_iteratorIPN5Catch8TestCaseESt6vectorIS3_SaIS3_EEEENS0_5__ops15_Iter_less_iterEEvT_SB_RT0_"
 "_ZSt12__equal_aux1IPKcS1_EbT_S2_T0_"
 "_ZSt12__equal_aux1ISt16reverse_iteratorIPKcES3_EbT_S4_T0_"
 "_ZSt12__get_helperILy0EPKN5Catch7IStreamEJSt14default_deleteIS2_EEERKT0_RKSt11_Tuple_implIXT_EJS6_DpT1_EE"
 "_ZSt12__get_helperILy0EPKN5Catch7IStreamEJSt14default_deleteIS2_EEERT0_RSt11_Tuple_implIXT_EJS6_DpT1_EE"
 "_ZSt12__get_helperILy0EPN5Catch13StreamBufBaseEJSt14default_deleteIS1_EEERKT0_RKSt11_Tuple_implIXT_EJS5_DpT1_EE"
 "_ZSt12__get_helperILy0EPN5Catch13StreamBufBaseEJSt14default_deleteIS1_EEERT0_RSt11_Tuple_implIXT_EJS5_DpT1_EE"
 "_ZSt12__get_helperILy0EPN5Catch5Clara11CommandLineINS0_10ConfigDataEE3ArgEJSt14default_deleteIS5_EEERKT0_RKSt11_Tuple_implIXT_EJS9_DpT1_EE"
 "_ZSt12__get_helperILy0EPN5Catch5Clara11CommandLineINS0_10ConfigDataEE3ArgEJSt14default_deleteIS5_EEERT0_RSt11_Tuple_implIXT_EJS9_DpT1_EE"
 "_ZSt12__get_helperILy1ESt14default_deleteIKN5Catch7IStreamEEJEERT0_RSt11_Tuple_implIXT_EJS5_DpT1_EE"
 "_ZSt12__get_helperILy1ESt14default_deleteIN5Catch13StreamBufBaseEEJEERT0_RSt11_Tuple_implIXT_EJS4_DpT1_EE"
 "_ZSt12__get_helperILy1ESt14default_deleteIN5Catch5Clara11CommandLineINS1_10ConfigDataEE3ArgEEJEERT0_RSt11_Tuple_implIXT_EJS8_DpT1_EE"
 "_ZSt12__miter_baseIN9__gnu_cxx17__normal_iteratorIPKNSt7__cxx1112basic_stringIcSt11char_traitsIcESaIcEEESt6vectorIS7_SaIS7_EEEEET_SE_"
 "_ZSt12__miter_baseIN9__gnu_cxx17__normal_iteratorIPN5Catch11MessageInfoESt6vectorIS3_SaIS3_EEEEET_S9_"
 "_ZSt12__miter_baseIN9__gnu_cxx17__normal_iteratorIPN5Catch8TestCaseESt6vectorIS3_SaIS3_EEEEET_S9_"
 "_ZSt12__miter_baseIPNSt7__cxx1112basic_stringIcSt11char_traitsIcESaIcEEEET_S7_"
 "_ZSt12__miter_baseIPPKN5Catch20IExceptionTranslatorEEDTcl12__miter_basecldtfp_4baseEEESt13move_iteratorIT_E"
 "_ZSt12__miter_baseIPPKN5Catch20IExceptionTranslatorEET_S5_"
 "_ZSt12__miter_baseIPPN5Catch14IGeneratorInfoEEDTcl12__miter_basecldtfp_4baseEEESt13move_iteratorIT_E"
 "_ZSt12__miter_baseIPPN5Catch14IGeneratorInfoEET_S4_"
 "_ZSt12__miter_baseIPPN5Catch16TestCaseTracking8ITrackerEEDTcl12__miter_basecldtfp_4baseEEESt13move_iteratorIT_E"
 "_ZSt12__miter_baseIPPN5Catch16TestCaseTracking8ITrackerEET_S5_"
 "_ZSt12__miter_baseIPyEDTcl12__miter_basecldtfp_4baseEEESt13move_iteratorIT_E"
 "_ZSt12__miter_baseIPyET_S1_"
 "_ZSt12__niter_baseIN9__gnu_cxx17__normal_iteratorIPKcNSt7__cxx1112basic_stringIcSt11char_traitsIcESaIcEEEEEEDTcl23__make_reverse_iteratorcl12__niter_basecldtfp_4baseEEEESt16reverse_iteratorIT_E"
 "_ZSt12__niter_baseIPKcNSt7__cxx1112basic_stringIcSt11char_traitsIcESaIcEEEET_N9__gnu_cxx17__normal_iteratorIS8_T0_EE"
 "_ZSt12__niter_baseIPKNSt7__cxx1112basic_stringIcSt11char_traitsIcESaIcEEESt6vectorIS5_SaIS5_EEET_N9__gnu_cxx17__normal_iteratorISB_T0_EE"
 "_ZSt12__niter_baseIPN5Catch11MessageInfoEET_S3_"
 "_ZSt12__niter_baseIPN5Catch11MessageInfoESt6vectorIS1_SaIS1_EEET_N9__gnu_cxx17__normal_iteratorIS6_T0_EE"
 "_ZSt12__niter_baseIPN5Catch11SectionInfoEET_S3_"
 "_ZSt12__niter_baseIPN5Catch14AssertionStatsEET_S3_"
 "_ZSt12__niter_baseIPN5Catch14SectionEndInfoEET_S3_"
 "_ZSt12__niter_baseIPN5Catch15ConsoleReporter13SummaryColumnEET_S4_"
 "_ZSt12__niter_baseIPN5Catch5Clara6Parser5TokenEET_S5_"
 "_ZSt12__niter_baseIPN5Catch8TestCaseESt6vectorIS1_SaIS1_EEET_N9__gnu_cxx17__normal_iteratorIS6_T0_EE"
 "_ZSt12__niter_baseIPN5Catch8TestSpec6FilterEET_S4_"
 "_ZSt12__niter_baseIPNSt7__cxx1112basic_stringIcSt11char_traitsIcESaIcEEEET_S7_"
 "_ZSt12__niter_baseIPNSt7__cxx1112basic_stringIcSt11char_traitsIcESaIcEEESt6vectorIS5_SaIS5_EEET_N9__gnu_cxx17__normal_iteratorISA_T0_EE"
 "_ZSt12__niter_baseIPPKN5Catch20IExceptionTranslatorEET_S5_"
 "_ZSt12__niter_baseIPPN5Catch14IGeneratorInfoEET_S4_"
 "_ZSt12__niter_baseIPPN5Catch16TestCaseTracking8ITrackerEET_S5_"
 "_ZSt12__niter_baseIPyET_S1_"
 "_ZSt12__niter_wrapIN9__gnu_cxx17__normal_iteratorIPN5Catch11MessageInfoESt6vectorIS3_SaIS3_EEEES4_ET_S9_T0_"
 "_ZSt12__niter_wrapIN9__gnu_cxx17__normal_iteratorIPN5Catch8TestCaseESt6vectorIS3_SaIS3_EEEES4_ET_S9_T0_"
 "_ZSt12__niter_wrapIN9__gnu_cxx17__normal_iteratorIPNSt7__cxx1112basic_stringIcSt11char_traitsIcESaIcEEESt6vectorIS7_SaIS7_EEEES8_ET_SD_T0_"
 "_ZSt12__niter_wrapIPNSt7__cxx1112basic_stringIcSt11char_traitsIcESaIcEEEET_RKS7_S7_"
 "_ZSt12__niter_wrapIPPKN5Catch20IExceptionTranslatorEET_RKS5_S5_"
 "_ZSt12__niter_wrapIPPN5Catch14IGeneratorInfoEET_RKS4_S4_"
 "_ZSt12__niter_wrapIPPN5Catch16TestCaseTracking8ITrackerEET_RKS5_S5_"
 "_ZSt12__niter_wrapIPyET_RKS1_S1_"
 "_ZSt12__relocate_aIPN5Catch11MessageInfoES2_SaIS1_EET0_T_S5_S4_RT1_"
 "_ZSt12__relocate_aIPN5Catch11SectionInfoES2_SaIS1_EET0_T_S5_S4_RT1_"
 "_ZSt12__relocate_aIPN5Catch14AssertionStatsES2_SaIS1_EET0_T_S5_S4_RT1_"
 "_ZSt12__relocate_aIPN5Catch14SectionEndInfoES2_SaIS1_EET0_T_S5_S4_RT1_"
 "_ZSt12__relocate_aIPN5Catch15ConsoleReporter13SummaryColumnES3_SaIS2_EET0_T_S6_S5_RT1_"
 "_ZSt12__relocate_aIPN5Catch5Clara6Parser5TokenES4_SaIS3_EET0_T_S7_S6_RT1_"
 "_ZSt12__relocate_aIPN5Catch8TestSpec6FilterES3_SaIS2_EET0_T_S6_S5_RT1_"
 "_ZSt12__relocate_aIPNSt7__cxx1112basic_stringIcSt11char_traitsIcESaIcEEES6_SaIS5_EET0_T_S9_S8_RT1_"
 "_ZSt12__relocate_aIPPKN5Catch20IExceptionTranslatorES4_SaIS3_EET0_T_S7_S6_RT1_"
 "_ZSt12__relocate_aIPPN5Catch14IGeneratorInfoES3_SaIS2_EET0_T_S6_S5_RT1_"
 "_ZSt12__relocate_aIPPN5Catch16TestCaseTracking8ITrackerES4_SaIS3_EET0_T_S7_S6_RT1_"
 "_ZSt12__relocate_aIPyS0_SaIyEET0_T_S3_S2_RT1_"
 "_ZSt12setprecisioni"
 "_ZSt13__adjust_heapIN9__gnu_cxx17__normal_iteratorIPN5Catch8TestCaseESt6vectorIS3_SaIS3_EEEExS3_NS0_5__ops15_Iter_less_iterEEvT_T0_SC_T1_T2_"
 "_ZSt13__copy_move_aILb0EN9__gnu_cxx17__normal_iteratorIPKNSt7__cxx1112basic_stringIcSt11char_traitsIcESaIcEEESt6vectorIS7_SaIS7_EEEENS1_IPS7_SC_EEET1_T0_SH_SG_"
 "_ZSt13__copy_move_aILb1EN9__gnu_cxx17__normal_iteratorIPN5Catch11MessageInfoESt6vectorIS3_SaIS3_EEEES8_ET1_T0_SA_S9_"
 "_ZSt13__copy_move_aILb1EPPKN5Catch20IExceptionTranslatorES4_ET1_T0_S6_S5_"
 "_ZSt13__copy_move_aILb1EPPN5Catch14IGeneratorInfoES3_ET1_T0_S5_S4_"
 "_ZSt13__copy_move_aILb1EPPN5Catch16TestCaseTracking8ITrackerES4_ET1_T0_S6_S5_"
 "_ZSt13__copy_move_aILb1EPyS0_ET1_T0_S2_S1_"
 "_ZSt13__heap_selectIN9__gnu_cxx17__normal_iteratorIPN5Catch8TestCaseESt6vectorIS3_SaIS3_EEEENS0_5__ops15_Iter_less_iterEEvT_SB_SB_T0_"
 "_ZSt13move_backwardIN9__gnu_cxx17__normal_iteratorIPN5Catch8TestCaseESt6vectorIS3_SaIS3_EEEES8_ET0_T_SA_S9_"
 "_ZSt13move_backwardIPNSt7__cxx1112basic_stringIcSt11char_traitsIcESaIcEEES6_ET0_T_S8_S7_"
 "_ZSt14__copy_move_a1ILb0EPKNSt7__cxx1112basic_stringIcSt11char_traitsIcESaIcEEEPS5_ET1_T0_SA_S9_"
 "_ZSt14__copy_move_a1ILb1EPN5Catch11MessageInfoES2_ET1_T0_S4_S3_"
 "_ZSt14__copy_move_a1ILb1EPPKN5Catch20IExceptionTranslatorES4_ET1_T0_S6_S5_"
 "_ZSt14__copy_move_a1ILb1EPPN5Catch14IGeneratorInfoES3_ET1_T0_S5_S4_"
 "_ZSt14__copy_move_a1ILb1EPPN5Catch16TestCaseTracking8ITrackerES4_ET1_T0_S6_S5_"
 "_ZSt14__copy_move_a1ILb1EPyS0_ET1_T0_S2_S1_"
 "_ZSt14__copy_move_a2ILb0EPKNSt7__cxx1112basic_stringIcSt11char_traitsIcESaIcEEEPS5_ET1_T0_SA_S9_"
 "_ZSt14__copy_move_a2ILb1EPN5Catch11MessageInfoES2_ET1_T0_S4_S3_"
 "_ZSt14__copy_move_a2ILb1EPPKN5Catch20IExceptionTranslatorES4_ET1_T0_S6_S5_"
 "_ZSt14__copy_move_a2ILb1EPPN5Catch14IGeneratorInfoES3_ET1_T0_S5_S4_"
 "_ZSt14__copy_move_a2ILb1EPPN5Catch16TestCaseTracking8ITrackerES4_ET1_T0_S6_S5_"
 "_ZSt14__copy_move_a2ILb1EPyS0_ET1_T0_S2_S1_"
 "_ZSt14__partial_sortIN9__gnu_cxx17__normal_iteratorIPN5Catch8TestCaseESt6vectorIS3_SaIS3_EEEENS0_5__ops15_Iter_less_iterEEvT_SB_SB_T0_"
 "_ZSt14__relocate_a_1IPKN5Catch20IExceptionTranslatorES3_ENSt9enable_ifIXsrSt24__is_bitwise_relocatableIT_vE5valueEPS6_E4typeES8_S8_S8_RSaIT0_E"
 "_ZSt14__relocate_a_1IPN5Catch11MessageInfoES2_SaIS1_EET0_T_S5_S4_RT1_"
 "_ZSt14__relocate_a_1IPN5Catch11SectionInfoES2_SaIS1_EET0_T_S5_S4_RT1_"
 "_ZSt14__relocate_a_1IPN5Catch14AssertionStatsES2_SaIS1_EET0_T_S5_S4_RT1_"
 "_ZSt14__relocate_a_1IPN5Catch14IGeneratorInfoES2_ENSt9enable_ifIXsrSt24__is_bitwise_relocatableIT_vE5valueEPS5_E4typeES7_S7_S7_RSaIT0_E"
 "_ZSt14__relocate_a_1IPN5Catch14SectionEndInfoES2_SaIS1_EET0_T_S5_S4_RT1_"
 "_ZSt14__relocate_a_1IPN5Catch15ConsoleReporter13SummaryColumnES3_SaIS2_EET0_T_S6_S5_RT1_"
 "_ZSt14__relocate_a_1IPN5Catch16TestCaseTracking8ITrackerES3_ENSt9enable_ifIXsrSt24__is_bitwise_relocatableIT_vE5valueEPS6_E4typeES8_S8_S8_RSaIT0_E"
 "_ZSt14__relocate_a_1IPN5Catch5Clara6Parser5TokenES4_SaIS3_EET0_T_S7_S6_RT1_"
 "_ZSt14__relocate_a_1IPN5Catch8TestSpec6FilterES3_SaIS2_EET0_T_S6_S5_RT1_"
 "_ZSt14__relocate_a_1IPNSt7__cxx1112basic_stringIcSt11char_traitsIcESaIcEEES6_SaIS5_EET0_T_S9_S8_RT1_"
 "_ZSt14__relocate_a_1IyyENSt9enable_ifIXsrSt24__is_bitwise_relocatableIT_vE5valueEPS2_E4typeES4_S4_S4_RSaIT0_E"
 "_ZSt15__alloc_on_copyISaISt13_Rb_tree_nodeINSt7__cxx1112basic_stringIcSt11char_traitsIcESaIcEEEEEEvRT_RKS9_"
 "_ZSt15__alloc_on_moveISaIN5Catch3PtrINS0_8TestSpec7PatternEEEEEvRT_S7_"
 "_ZSt15__alloc_on_moveISaIN5Catch5Clara6Parser5TokenEEEvRT_S6_"
 "_ZSt15__alloc_on_moveISaIN5Catch8TestCaseEEEvRT_S4_"
 "_ZSt15__alloc_on_moveISaIN5Catch8TestSpec6FilterEEEvRT_S5_"
 "_ZSt15__alloc_on_swapISaIN5Catch3PtrINS0_22CumulativeReporterBase4NodeINS0_13TestCaseStatsENS2_11SectionNodeEEEEEEEvRT_SA_"
 "_ZSt15__alloc_on_swapISaIN5Catch3PtrINS0_22CumulativeReporterBase4NodeINS0_14TestGroupStatsENS3_INS0_13TestCaseStatsENS2_11SectionNodeEEEEEEEEEvRT_SC_"
 "_ZSt15__alloc_on_swapISaISt13_Rb_tree_nodeINSt7__cxx1112basic_stringIcSt11char_traitsIcESaIcEEEEEEvRT_SA_"
 "_ZSt16__insertion_sortIN9__gnu_cxx17__normal_iteratorIPN5Catch8TestCaseESt6vectorIS3_SaIS3_EEEENS0_5__ops15_Iter_less_iterEEvT_SB_T0_"
 "_ZSt16__introsort_loopIN9__gnu_cxx17__normal_iteratorIPN5Catch8TestCaseESt6vectorIS3_SaIS3_EEEExNS0_5__ops15_Iter_less_iterEEvT_SB_T0_T1_"
 "_ZSt18__do_alloc_on_copyISaISt13_Rb_tree_nodeINSt7__cxx1112basic_stringIcSt11char_traitsIcESaIcEEEEEEvRT_RKS9_St17integral_constantIbLb0EE"
 "_ZSt18__do_alloc_on_moveISaIN5Catch3PtrINS0_8TestSpec7PatternEEEEEvRT_S7_St17integral_constantIbLb1EE"
 "_ZSt18__do_alloc_on_moveISaIN5Catch5Clara6Parser5TokenEEEvRT_S6_St17integral_constantIbLb1EE"
 "_ZSt18__do_alloc_on_moveISaIN5Catch8TestCaseEEEvRT_S4_St17integral_constantIbLb1EE"
 "_ZSt18__do_alloc_on_moveISaIN5Catch8TestSpec6FilterEEEvRT_S5_St17integral_constantIbLb1EE"
 "_ZSt18__do_alloc_on_swapISaIN5Catch3PtrINS0_22CumulativeReporterBase4NodeINS0_13TestCaseStatsENS2_11SectionNodeEEEEEEEvRT_SA_St17integral_constantIbLb0EE"
 "_ZSt18__do_alloc_on_swapISaIN5Catch3PtrINS0_22CumulativeReporterBase4NodeINS0_14TestGroupStatsENS3_INS0_13TestCaseStatsENS2_11SectionNodeEEEEEEEEEvRT_SC_St17integral_constantIbLb0EE"
 "_ZSt18__do_alloc_on_swapISaISt13_Rb_tree_nodeINSt7__cxx1112basic_stringIcSt11char_traitsIcESaIcEEEEEEvRT_SA_St17integral_constantIbLb0EE"
 "_ZSt18make_move_iteratorIPNSt7__cxx1112basic_stringIcSt11char_traitsIcESaIcEEEESt13move_iteratorIT_ES8_"
 "_ZSt18uninitialized_copyIN9__gnu_cxx17__normal_iteratorIPKN5Catch11MessageInfoESt6vectorIS3_SaIS3_EEEEPS3_ET0_T_SC_SB_"
 "_ZSt18uninitialized_copyIN9__gnu_cxx17__normal_iteratorIPKN5Catch3PtrINS2_16IReporterFactoryEEESt6vectorIS5_SaIS5_EEEEPS5_ET0_T_SE_SD_"
 "_ZSt18uninitialized_copyIN9__gnu_cxx17__normal_iteratorIPKN5Catch3PtrINS2_8TestSpec7PatternEEESt6vectorIS6_SaIS6_EEEEPS6_ET0_T_SF_SE_"
 "_ZSt18uninitialized_copyIN9__gnu_cxx17__normal_iteratorIPKN5Catch5Clara6Parser5TokenESt6vectorIS5_SaIS5_EEEEPS5_ET0_T_SE_SD_"
 "_ZSt18uninitialized_copyIN9__gnu_cxx17__normal_iteratorIPKN5Catch8TestCaseESt6vectorIS3_SaIS3_EEEEPS3_ET0_T_SC_SB_"
 "_ZSt18uninitialized_copyIN9__gnu_cxx17__normal_iteratorIPKN5Catch8TestSpec6FilterESt6vectorIS4_SaIS4_EEEEPS4_ET0_T_SD_SC_"
 "_ZSt18uninitialized_copyIN9__gnu_cxx17__normal_iteratorIPKNSt7__cxx1112basic_stringIcSt11char_traitsIcESaIcEEESt6vectorIS7_SaIS7_EEEEPS7_ET0_T_SG_SF_"
 "_ZSt18uninitialized_copyIPKN5Catch3PtrINS0_16IReporterFactoryEEEPS3_ET0_T_S8_S7_"
 "_ZSt18uninitialized_copyIPKN5Catch3PtrINS0_16TestCaseTracking8ITrackerEEEPS4_ET0_T_S9_S8_"
 "_ZSt18uninitialized_copyIPKN5Catch3PtrINS0_18IStreamingReporterEEEPS3_ET0_T_S8_S7_"
 "_ZSt18uninitialized_copyIPKN5Catch3PtrINS0_22CumulativeReporterBase11SectionNodeEEEPS4_ET0_T_S9_S8_"
 "_ZSt18uninitialized_copyIPKN5Catch3PtrINS0_22CumulativeReporterBase4NodeINS0_12TestRunStatsENS3_INS0_14TestGroupStatsENS3_INS0_13TestCaseStatsENS2_11SectionNodeEEEEEEEEEPSB_ET0_T_SG_SF_"
 "_ZSt18uninitialized_copyIPKN5Catch3PtrINS0_22CumulativeReporterBase4NodeINS0_13TestCaseStatsENS2_11SectionNodeEEEEEPS7_ET0_T_SC_SB_"
 "_ZSt18uninitialized_copyIPKN5Catch3PtrINS0_22CumulativeReporterBase4NodeINS0_14TestGroupStatsENS3_INS0_13TestCaseStatsENS2_11SectionNodeEEEEEEEPS9_ET0_T_SE_SD_"
 "_ZSt18uninitialized_copyIPKN5Catch3PtrINS0_8TestSpec7PatternEEEPS4_ET0_T_S9_S8_"
 "_ZSt18uninitialized_copyIPKN5Catch5Clara11CommandLineINS0_10ConfigDataEE3ArgEPS5_ET0_T_SA_S9_"
 "_ZSt18uninitialized_copyIPKN5Catch8TestCaseEPS1_ET0_T_S6_S5_"
 "_ZSt18uninitialized_copyISt13move_iteratorIPN5Catch11MessageInfoEES3_ET0_T_S6_S5_"
 "_ZSt18uninitialized_copyISt13move_iteratorIPN5Catch11SectionInfoEES3_ET0_T_S6_S5_"
 "_ZSt18uninitialized_copyISt13move_iteratorIPN5Catch14AssertionStatsEES3_ET0_T_S6_S5_"
 "_ZSt18uninitialized_copyISt13move_iteratorIPN5Catch14SectionEndInfoEES3_ET0_T_S6_S5_"
 "_ZSt18uninitialized_copyISt13move_iteratorIPN5Catch15ConsoleReporter13SummaryColumnEES4_ET0_T_S7_S6_"
 "_ZSt18uninitialized_copyISt13move_iteratorIPN5Catch5Clara6Parser5TokenEES5_ET0_T_S8_S7_"
 "_ZSt18uninitialized_copyISt13move_iteratorIPN5Catch8TestSpec6FilterEES4_ET0_T_S7_S6_"
 "_ZSt18uninitialized_copyISt13move_iteratorIPNSt7__cxx1112basic_stringIcSt11char_traitsIcESaIcEEEES7_ET0_T_SA_S9_"
 "_ZSt18uninitialized_copyISt13move_iteratorIPPKN5Catch20IExceptionTranslatorEES5_ET0_T_S8_S7_"
 "_ZSt18uninitialized_copyISt13move_iteratorIPPN5Catch14IGeneratorInfoEES4_ET0_T_S7_S6_"
 "_ZSt18uninitialized_copyISt13move_iteratorIPPN5Catch16TestCaseTracking8ITrackerEES5_ET0_T_S8_S7_"
 "_ZSt18uninitialized_copyISt13move_iteratorIPyES1_ET0_T_S4_S3_"
 "_ZSt19__iterator_categoryIN9__gnu_cxx17__normal_iteratorIPKcNSt7__cxx1112basic_stringIcSt11char_traitsIcESaIcEEEEEENSt15iterator_traitsIT_E17iterator_categoryERKSC_"
 "_ZSt19__iterator_categoryIN9__gnu_cxx17__normal_iteratorIPKN5Catch11MessageInfoESt6vectorIS3_SaIS3_EEEEENSt15iterator_traitsIT_E17iterator_categoryERKSB_"
 "_ZSt19__iterator_categoryIN9__gnu_cxx17__normal_iteratorIPKNSt7__cxx1112basic_stringIcSt11char_traitsIcESaIcEEESt6vectorIS7_SaIS7_EEEEENSt15iterator_traitsIT_E17iterator_categoryERKSF_"
 "_ZSt19__iterator_categoryIN9__gnu_cxx17__normal_iteratorIPN5Catch11MessageInfoESt6vectorIS3_SaIS3_EEEEENSt15iterator_traitsIT_E17iterator_categoryERKSA_"
 "_ZSt19__iterator_categoryIN9__gnu_cxx17__normal_iteratorIPN5Catch3PtrINS2_16TestCaseTracking8ITrackerEEESt6vectorIS6_SaIS6_EEEEENSt15iterator_traitsIT_E17iterator_categoryERKSD_"
 "_ZSt19__iterator_categoryIN9__gnu_cxx17__normal_iteratorIPN5Catch3PtrINS2_22CumulativeReporterBase11SectionNodeEEESt6vectorIS6_SaIS6_EEEEENSt15iterator_traitsIT_E17iterator_categoryERKSD_"
 "_ZSt19__relocate_object_aIN5Catch11MessageInfoES1_SaIS1_EEvPT_PT0_RT1_"
 "_ZSt19__relocate_object_aIN5Catch11SectionInfoES1_SaIS1_EEvPT_PT0_RT1_"
 "_ZSt19__relocate_object_aIN5Catch14AssertionStatsES1_SaIS1_EEvPT_PT0_RT1_"
 "_ZSt19__relocate_object_aIN5Catch14SectionEndInfoES1_SaIS1_EEvPT_PT0_RT1_"
 "_ZSt19__relocate_object_aIN5Catch15ConsoleReporter13SummaryColumnES2_SaIS2_EEvPT_PT0_RT1_"
 "_ZSt19__relocate_object_aIN5Catch5Clara6Parser5TokenES3_SaIS3_EEvPT_PT0_RT1_"
 "_ZSt19__relocate_object_aIN5Catch8TestSpec6FilterES2_SaIS2_EEvPT_PT0_RT1_"
 "_ZSt19__relocate_object_aINSt7__cxx1112basic_stringIcSt11char_traitsIcESaIcEEES5_SaIS5_EEvPT_PT0_RT1_"
 "_ZSt21__unguarded_partitionIN9__gnu_cxx17__normal_iteratorIPN5Catch8TestCaseESt6vectorIS3_SaIS3_EEEENS0_5__ops15_Iter_less_iterEET_SB_SB_SB_T0_"
 "_ZSt22__copy_move_backward_aILb1EN9__gnu_cxx17__normal_iteratorIPN5Catch8TestCaseESt6vectorIS3_SaIS3_EEEES8_ET1_T0_SA_S9_"
 "_ZSt22__copy_move_backward_aILb1EPNSt7__cxx1112basic_stringIcSt11char_traitsIcESaIcEEES6_ET1_T0_S8_S7_"
 "_ZSt22__final_insertion_sortIN9__gnu_cxx17__normal_iteratorIPN5Catch8TestCaseESt6vectorIS3_SaIS3_EEEENS0_5__ops15_Iter_less_iterEEvT_SB_T0_"
 "_ZSt22__gen_two_uniform_intsIyRSt23mersenne_twister_engineIjLy32ELy624ELy397ELy31ELj2567483615ELy11ELj4294967295ELy7ELj2636928640ELy15ELj4022730752ELy18ELj1812433253EEESt4pairIT_S4_ES4_S4_OT0_"
 "_ZSt22__move_median_to_firstIN9__gnu_cxx17__normal_iteratorIPN5Catch8TestCaseESt6vectorIS3_SaIS3_EEEENS0_5__ops15_Iter_less_iterEEvT_SB_SB_SB_T0_"
 "_ZSt22__uninitialized_copy_aIN9__gnu_cxx17__normal_iteratorIPKN5Catch11MessageInfoESt6vectorIS3_SaIS3_EEEEPS3_S3_ET0_T_SC_SB_RSaIT1_E"
 "_ZSt22__uninitialized_copy_aIN9__gnu_cxx17__normal_iteratorIPKN5Catch3PtrINS2_16IReporterFactoryEEESt6vectorIS5_SaIS5_EEEEPS5_S5_ET0_T_SE_SD_RSaIT1_E"
 "_ZSt22__uninitialized_copy_aIN9__gnu_cxx17__normal_iteratorIPKN5Catch3PtrINS2_8TestSpec7PatternEEESt6vectorIS6_SaIS6_EEEEPS6_S6_ET0_T_SF_SE_RSaIT1_E"
 "_ZSt22__uninitialized_copy_aIN9__gnu_cxx17__normal_iteratorIPKN5Catch5Clara6Parser5TokenESt6vectorIS5_SaIS5_EEEEPS5_S5_ET0_T_SE_SD_RSaIT1_E"
 "_ZSt22__uninitialized_copy_aIN9__gnu_cxx17__normal_iteratorIPKN5Catch8TestCaseESt6vectorIS3_SaIS3_EEEEPS3_S3_ET0_T_SC_SB_RSaIT1_E"
 "_ZSt22__uninitialized_copy_aIN9__gnu_cxx17__normal_iteratorIPKN5Catch8TestSpec6FilterESt6vectorIS4_SaIS4_EEEEPS4_S4_ET0_T_SD_SC_RSaIT1_E"
 "_ZSt22__uninitialized_copy_aIN9__gnu_cxx17__normal_iteratorIPKNSt7__cxx1112basic_stringIcSt11char_traitsIcESaIcEEESt6vectorIS7_SaIS7_EEEEPS7_S7_ET0_T_SG_SF_RSaIT1_E"
 "_ZSt22__uninitialized_copy_aIPKN5Catch3PtrINS0_16IReporterFactoryEEEPS3_S3_ET0_T_S8_S7_RSaIT1_E"
 "_ZSt22__uninitialized_copy_aIPKN5Catch3PtrINS0_16TestCaseTracking8ITrackerEEEPS4_S4_ET0_T_S9_S8_RSaIT1_E"
 "_ZSt22__uninitialized_copy_aIPKN5Catch3PtrINS0_18IStreamingReporterEEEPS3_S3_ET0_T_S8_S7_RSaIT1_E"
 "_ZSt22__uninitialized_copy_aIPKN5Catch3PtrINS0_22CumulativeReporterBase11SectionNodeEEEPS4_S4_ET0_T_S9_S8_RSaIT1_E"
 "_ZSt22__uninitialized_copy_aIPKN5Catch3PtrINS0_22CumulativeReporterBase4NodeINS0_12TestRunStatsENS3_INS0_14TestGroupStatsENS3_INS0_13TestCaseStatsENS2_11SectionNodeEEEEEEEEEPSB_SB_ET0_T_SG_SF_RSaIT1_E"
 "_ZSt22__uninitialized_copy_aIPKN5Catch3PtrINS0_22CumulativeReporterBase4NodeINS0_13TestCaseStatsENS2_11SectionNodeEEEEEPS7_S7_ET0_T_SC_SB_RSaIT1_E"
 "_ZSt22__uninitialized_copy_aIPKN5Catch3PtrINS0_22CumulativeReporterBase4NodeINS0_14TestGroupStatsENS3_INS0_13TestCaseStatsENS2_11SectionNodeEEEEEEEPS9_S9_ET0_T_SE_SD_RSaIT1_E"
 "_ZSt22__uninitialized_copy_aIPKN5Catch3PtrINS0_8TestSpec7PatternEEEPS4_S4_ET0_T_S9_S8_RSaIT1_E"
 "_ZSt22__uninitialized_copy_aIPKN5Catch5Clara11CommandLineINS0_10ConfigDataEE3ArgEPS5_S5_ET0_T_SA_S9_RSaIT1_E"
 "_ZSt22__uninitialized_copy_aIPKN5Catch8TestCaseEPS1_S1_ET0_T_S6_S5_RSaIT1_E"
 "_ZSt22__uninitialized_copy_aISt13move_iteratorIPN5Catch11MessageInfoEES3_S2_ET0_T_S6_S5_RSaIT1_E"
 "_ZSt22__uninitialized_copy_aISt13move_iteratorIPN5Catch11SectionInfoEES3_S2_ET0_T_S6_S5_RSaIT1_E"
 "_ZSt22__uninitialized_copy_aISt13move_iteratorIPN5Catch14AssertionStatsEES3_S2_ET0_T_S6_S5_RSaIT1_E"
 "_ZSt22__uninitialized_copy_aISt13move_iteratorIPN5Catch14SectionEndInfoEES3_S2_ET0_T_S6_S5_RSaIT1_E"
 "_ZSt22__uninitialized_copy_aISt13move_iteratorIPN5Catch15ConsoleReporter13SummaryColumnEES4_S3_ET0_T_S7_S6_RSaIT1_E"
 "_ZSt22__uninitialized_copy_aISt13move_iteratorIPN5Catch5Clara6Parser5TokenEES5_S4_ET0_T_S8_S7_RSaIT1_E"
 "_ZSt22__uninitialized_copy_aISt13move_iteratorIPN5Catch8TestSpec6FilterEES4_S3_ET0_T_S7_S6_RSaIT1_E"
 "_ZSt22__uninitialized_copy_aISt13move_iteratorIPNSt7__cxx1112basic_stringIcSt11char_traitsIcESaIcEEEES7_S6_ET0_T_SA_S9_RSaIT1_E"
 "_ZSt22__uninitialized_copy_aISt13move_iteratorIPPKN5Catch20IExceptionTranslatorEES5_S4_ET0_T_S8_S7_RSaIT1_E"
 "_ZSt22__uninitialized_copy_aISt13move_iteratorIPPN5Catch14IGeneratorInfoEES4_S3_ET0_T_S7_S6_RSaIT1_E"
 "_ZSt22__uninitialized_copy_aISt13move_iteratorIPPN5Catch16TestCaseTracking8ITrackerEES5_S4_ET0_T_S8_S7_RSaIT1_E"
 "_ZSt22__uninitialized_copy_aISt13move_iteratorIPyES1_yET0_T_S4_S3_RSaIT1_E"
 "_ZSt22__uninitialized_move_aIPNSt7__cxx1112basic_stringIcSt11char_traitsIcESaIcEEES6_SaIS5_EET0_T_S9_S8_RT1_"
 "_ZSt23__copy_move_backward_a1ILb1EPN5Catch8TestCaseES2_ET1_T0_S4_S3_"
 "_ZSt23__copy_move_backward_a1ILb1EPNSt7__cxx1112basic_stringIcSt11char_traitsIcESaIcEEES6_ET1_T0_S8_S7_"
 "_ZSt23__copy_move_backward_a2ILb1EPN5Catch8TestCaseES2_ET1_T0_S4_S3_"
 "_ZSt23__copy_move_backward_a2ILb1EPNSt7__cxx1112basic_stringIcSt11char_traitsIcESaIcEEES6_ET1_T0_S8_S7_"
 "_ZSt23__make_reverse_iteratorIPKcESt16reverse_iteratorIT_ES3_"
 "_ZSt25__unguarded_linear_insertIN9__gnu_cxx17__normal_iteratorIPN5Catch8TestCaseESt6vectorIS3_SaIS3_EEEENS0_5__ops14_Val_less_iterEEvT_T0_"
 "_ZSt25__uninitialized_default_nIPNSt7__cxx1112basic_stringIcSt11char_traitsIcESaIcEEEyET_S7_T0_"
 "_ZSt26__unguarded_insertion_sortIN9__gnu_cxx17__normal_iteratorIPN5Catch8TestCaseESt6vectorIS3_SaIS3_EEEENS0_5__ops15_Iter_less_iterEEvT_SB_T0_"
 "_ZSt27__unguarded_partition_pivotIN9__gnu_cxx17__normal_iteratorIPN5Catch8TestCaseESt6vectorIS3_SaIS3_EEEENS0_5__ops15_Iter_less_iterEET_SB_SB_T0_"
 "_ZSt27__uninitialized_default_n_aIPNSt7__cxx1112basic_stringIcSt11char_traitsIcESaIcEEEyS5_ET_S7_T0_RSaIT1_E"
 "_ZSt32__make_move_if_noexcept_iteratorIN5Catch11MessageInfoESt13move_iteratorIPS1_EET0_PT_"
 "_ZSt32__make_move_if_noexcept_iteratorIN5Catch11SectionInfoESt13move_iteratorIPS1_EET0_PT_"
 "_ZSt32__make_move_if_noexcept_iteratorIN5Catch14AssertionStatsESt13move_iteratorIPS1_EET0_PT_"
 "_ZSt32__make_move_if_noexcept_iteratorIN5Catch14SectionEndInfoESt13move_iteratorIPS1_EET0_PT_"
 "_ZSt32__make_move_if_noexcept_iteratorIN5Catch15ConsoleReporter13SummaryColumnESt13move_iteratorIPS2_EET0_PT_"
 "_ZSt32__make_move_if_noexcept_iteratorIN5Catch3PtrINS0_16IReporterFactoryEEEPKS3_ET0_PT_"
 "_ZSt32__make_move_if_noexcept_iteratorIN5Catch3PtrINS0_16TestCaseTracking8ITrackerEEEPKS4_ET0_PT_"
 "_ZSt32__make_move_if_noexcept_iteratorIN5Catch3PtrINS0_18IStreamingReporterEEEPKS3_ET0_PT_"
 "_ZSt32__make_move_if_noexcept_iteratorIN5Catch3PtrINS0_22CumulativeReporterBase11SectionNodeEEEPKS4_ET0_PT_"
 "_ZSt32__make_move_if_noexcept_iteratorIN5Catch3PtrINS0_22CumulativeReporterBase4NodeINS0_12TestRunStatsENS3_INS0_14TestGroupStatsENS3_INS0_13TestCaseStatsENS2_11SectionNodeEEEEEEEEEPKSB_ET0_PT_"
 "_ZSt32__make_move_if_noexcept_iteratorIN5Catch3PtrINS0_22CumulativeReporterBase4NodeINS0_13TestCaseStatsENS2_11SectionNodeEEEEEPKS7_ET0_PT_"
 "_ZSt32__make_move_if_noexcept_iteratorIN5Catch3PtrINS0_22CumulativeReporterBase4NodeINS0_14TestGroupStatsENS3_INS0_13TestCaseStatsENS2_11SectionNodeEEEEEEEPKS9_ET0_PT_"
 "_ZSt32__make_move_if_noexcept_iteratorIN5Catch3PtrINS0_8TestSpec7PatternEEEPKS4_ET0_PT_"
 "_ZSt32__make_move_if_noexcept_iteratorIN5Catch5Clara11CommandLineINS0_10ConfigDataEE3ArgEPKS5_ET0_PT_"
 "_ZSt32__make_move_if_noexcept_iteratorIN5Catch5Clara6Parser5TokenESt13move_iteratorIPS3_EET0_PT_"
 "_ZSt32__make_move_if_noexcept_iteratorIN5Catch8TestCaseEPKS1_ET0_PT_"
 "_ZSt32__make_move_if_noexcept_iteratorIN5Catch8TestSpec6FilterESt13move_iteratorIPS2_EET0_PT_"
 "_ZSt32__make_move_if_noexcept_iteratorINSt7__cxx1112basic_stringIcSt11char_traitsIcESaIcEEESt13move_iteratorIPS5_EET0_PT_"
 "_ZSt32__make_move_if_noexcept_iteratorIPKN5Catch20IExceptionTranslatorESt13move_iteratorIPS3_EET0_PT_"
 "_ZSt32__make_move_if_noexcept_iteratorIPN5Catch14IGeneratorInfoESt13move_iteratorIPS2_EET0_PT_"
 "_ZSt32__make_move_if_noexcept_iteratorIPN5Catch16TestCaseTracking8ITrackerESt13move_iteratorIPS3_EET0_PT_"
 "_ZSt32__make_move_if_noexcept_iteratorIySt13move_iteratorIPyEET0_PT_"
 "_ZSt34__uninitialized_move_if_noexcept_aIPN5Catch11MessageInfoES2_SaIS1_EET0_T_S5_S4_RT1_"
 "_ZSt34__uninitialized_move_if_noexcept_aIPN5Catch11SectionInfoES2_SaIS1_EET0_T_S5_S4_RT1_"
 "_ZSt34__uninitialized_move_if_noexcept_aIPN5Catch14AssertionStatsES2_SaIS1_EET0_T_S5_S4_RT1_"
 "_ZSt34__uninitialized_move_if_noexcept_aIPN5Catch14SectionEndInfoES2_SaIS1_EET0_T_S5_S4_RT1_"
 "_ZSt34__uninitialized_move_if_noexcept_aIPN5Catch15ConsoleReporter13SummaryColumnES3_SaIS2_EET0_T_S6_S5_RT1_"
 "_ZSt34__uninitialized_move_if_noexcept_aIPN5Catch3PtrINS0_16IReporterFactoryEEES4_SaIS3_EET0_T_S7_S6_RT1_"
 "_ZSt34__uninitialized_move_if_noexcept_aIPN5Catch3PtrINS0_16TestCaseTracking8ITrackerEEES5_SaIS4_EET0_T_S8_S7_RT1_"
 "_ZSt34__uninitialized_move_if_noexcept_aIPN5Catch3PtrINS0_18IStreamingReporterEEES4_SaIS3_EET0_T_S7_S6_RT1_"
 "_ZSt34__uninitialized_move_if_noexcept_aIPN5Catch3PtrINS0_22CumulativeReporterBase11SectionNodeEEES5_SaIS4_EET0_T_S8_S7_RT1_"
 "_ZSt34__uninitialized_move_if_noexcept_aIPN5Catch3PtrINS0_22CumulativeReporterBase4NodeINS0_12TestRunStatsENS3_INS0_14TestGroupStatsENS3_INS0_13TestCaseStatsENS2_11SectionNodeEEEEEEEEESC_SaISB_EET0_T_SF_SE_RT1_"
 "_ZSt34__uninitialized_move_if_noexcept_aIPN5Catch3PtrINS0_22CumulativeReporterBase4NodeINS0_13TestCaseStatsENS2_11SectionNodeEEEEES8_SaIS7_EET0_T_SB_SA_RT1_"
 "_ZSt34__uninitialized_move_if_noexcept_aIPN5Catch3PtrINS0_22CumulativeReporterBase4NodeINS0_14TestGroupStatsENS3_INS0_13TestCaseStatsENS2_11SectionNodeEEEEEEESA_SaIS9_EET0_T_SD_SC_RT1_"
 "_ZSt34__uninitialized_move_if_noexcept_aIPN5Catch3PtrINS0_8TestSpec7PatternEEES5_SaIS4_EET0_T_S8_S7_RT1_"
 "_ZSt34__uninitialized_move_if_noexcept_aIPN5Catch5Clara11CommandLineINS0_10ConfigDataEE3ArgES6_SaIS5_EET0_T_S9_S8_RT1_"
 "_ZSt34__uninitialized_move_if_noexcept_aIPN5Catch5Clara6Parser5TokenES4_SaIS3_EET0_T_S7_S6_RT1_"
 "_ZSt34__uninitialized_move_if_noexcept_aIPN5Catch8TestCaseES2_SaIS1_EET0_T_S5_S4_RT1_"
 "_ZSt34__uninitialized_move_if_noexcept_aIPN5Catch8TestSpec6FilterES3_SaIS2_EET0_T_S6_S5_RT1_"
 "_ZSt34__uninitialized_move_if_noexcept_aIPNSt7__cxx1112basic_stringIcSt11char_traitsIcESaIcEEES6_SaIS5_EET0_T_S9_S8_RT1_"
 "_ZSt34__uninitialized_move_if_noexcept_aIPPKN5Catch20IExceptionTranslatorES4_SaIS3_EET0_T_S7_S6_RT1_"
 "_ZSt34__uninitialized_move_if_noexcept_aIPPN5Catch14IGeneratorInfoES3_SaIS2_EET0_T_S6_S5_RT1_"
 "_ZSt34__uninitialized_move_if_noexcept_aIPPN5Catch16TestCaseTracking8ITrackerES4_SaIS3_EET0_T_S7_S6_RT1_"
 "_ZSt34__uninitialized_move_if_noexcept_aIPyS0_SaIyEET0_T_S3_S2_RT1_"
 "_ZSt3getILy0EJPKN5Catch7IStreamESt14default_deleteIS2_EEERKNSt13tuple_elementIXT_ESt5tupleIJDpT0_EEE4typeERKSA_"
 "_ZSt3getILy0EJPKN5Catch7IStreamESt14default_deleteIS2_EEERNSt13tuple_elementIXT_ESt5tupleIJDpT0_EEE4typeERSA_"
 "_ZSt3getILy0EJPN5Catch13StreamBufBaseESt14default_deleteIS1_EEERKNSt13tuple_elementIXT_ESt5tupleIJDpT0_EEE4typeERKS9_"
 "_ZSt3getILy0EJPN5Catch13StreamBufBaseESt14default_deleteIS1_EEERNSt13tuple_elementIXT_ESt5tupleIJDpT0_EEE4typeERS9_"
 "_ZSt3getILy0EJPN5Catch5Clara11CommandLineINS0_10ConfigDataEE3ArgESt14default_deleteIS5_EEERKNSt13tuple_elementIXT_ESt5tupleIJDpT0_EEE4typeERKSD_"
 "_ZSt3getILy0EJPN5Catch5Clara11CommandLineINS0_10ConfigDataEE3ArgESt14default_deleteIS5_EEERNSt13tuple_elementIXT_ESt5tupleIJDpT0_EEE4typeERSD_"
 "_ZSt3getILy1EJPKN5Catch7IStreamESt14default_deleteIS2_EEERNSt13tuple_elementIXT_ESt5tupleIJDpT0_EEE4typeERSA_"
 "_ZSt3getILy1EJPN5Catch13StreamBufBaseESt14default_deleteIS1_EEERNSt13tuple_elementIXT_ESt5tupleIJDpT0_EEE4typeERS9_"
 "_ZSt3getILy1EJPN5Catch5Clara11CommandLineINS0_10ConfigDataEE3ArgESt14default_deleteIS5_EEERNSt13tuple_elementIXT_ESt5tupleIJDpT0_EEE4typeERSD_"
 "_ZSt3hexRSt8ios_base"
 "_ZSt3maxIyERKT_S2_S2_"
 "_ZSt3minIyERKT_S2_S2_"
 "_ZSt4__lgx"
 "_ZSt4copyIN9__gnu_cxx17__normal_iteratorIPKNSt7__cxx1112basic_stringIcSt11char_traitsIcESaIcEEESt6vectorIS7_SaIS7_EEEENS1_IPS7_SC_EEET0_T_SH_SG_"
 "_ZSt4copyISt13move_iteratorIPPKN5Catch20IExceptionTranslatorEES5_ET0_T_S8_S7_"
 "_ZSt4copyISt13move_iteratorIPPN5Catch14IGeneratorInfoEES4_ET0_T_S7_S6_"
 "_ZSt4copyISt13move_iteratorIPPN5Catch16TestCaseTracking8ITrackerEES5_ET0_T_S8_S7_"
 "_ZSt4copyISt13move_iteratorIPyES1_ET0_T_S4_S3_"
 "_ZSt4findIN9__gnu_cxx17__normal_iteratorIPKcNSt7__cxx1112basic_stringIcSt11char_traitsIcESaIcEEEEEcET_SB_SB_RKT0_"
 "_ZSt4findIN9__gnu_cxx17__normal_iteratorIPKNSt7__cxx1112basic_stringIcSt11char_traitsIcESaIcEEESt6vectorIS7_SaIS7_EEEES7_ET_SE_SE_RKT0_"
 "_ZSt4moveIN9__gnu_cxx17__normal_iteratorIPN5Catch11MessageInfoESt6vectorIS3_SaIS3_EEEES8_ET0_T_SA_S9_"
 "_ZSt4moveIRN5Catch11MessageInfoEEONSt16remove_referenceIT_E4typeEOS4_"
 "_ZSt4moveIRN5Catch11SectionInfoEEONSt16remove_referenceIT_E4typeEOS4_"
 "_ZSt4moveIRN5Catch12TestCaseInfo17SpecialPropertiesEEONSt16remove_referenceIT_E4typeEOS5_"
 "_ZSt4moveIRN5Catch14AssertionStatsEEONSt16remove_referenceIT_E4typeEOS4_"
 "_ZSt4moveIRN5Catch14SectionEndInfoEEONSt16remove_referenceIT_E4typeEOS4_"
 "_ZSt4moveIRN5Catch14SourceLineInfoEEONSt16remove_referenceIT_E4typeEOS4_"
 "_ZSt4moveIRN5Catch15ConsoleReporter13SummaryColumnEEONSt16remove_referenceIT_E4typeEOS5_"
 "_ZSt4moveIRN5Catch16TestCaseTracking11TrackerBase14TrackerHasNameEEONSt16remove_referenceIT_E4typeEOS6_"
 "_ZSt4moveIRN5Catch22CumulativeReporterBase13BySectionInfoEEONSt16remove_referenceIT_E4typeEOS5_"
 "_ZSt4moveIRN5Catch5Clara11CommandLineINS0_10ConfigDataEE3ArgEEONSt16remove_referenceIT_E4typeEOS8_"
 "_ZSt4moveIRN5Catch5Clara6Parser5TokenEEONSt16remove_referenceIT_E4typeEOS6_"
 "_ZSt4moveIRN5Catch8TestCaseEEONSt16remove_referenceIT_E4typeEOS4_"
 "_ZSt4moveIRN5Catch8TestSpec6FilterEEONSt16remove_referenceIT_E4typeEOS5_"
 "_ZSt4moveIRN9__gnu_cxx5__ops15_Iter_less_iterEEONSt16remove_referenceIT_E4typeEOS5_"
 "_ZSt4moveIRNSt12_Vector_baseIN5Catch11MessageInfoESaIS2_EE12_Vector_implEEONSt16remove_referenceIT_E4typeEOS8_"
 "_ZSt4moveIRNSt12_Vector_baseIN5Catch3PtrINS1_8TestSpec7PatternEEESaIS5_EE12_Vector_implEEONSt16remove_referenceIT_E4typeEOSB_"
 "_ZSt4moveIRNSt12_Vector_baseIN5Catch5Clara6Parser5TokenESaIS4_EE12_Vector_implEEONSt16remove_referenceIT_E4typeEOSA_"
 "_ZSt4moveIRNSt12_Vector_baseINSt7__cxx1112basic_stringIcSt11char_traitsIcESaIcEEESaIS6_EE12_Vector_implEEONSt16remove_referenceIT_E4typeEOSC_"
 "_ZSt4moveIRNSt7__cxx1112basic_stringIcSt11char_traitsIcESaIcEEEEONSt16remove_referenceIT_E4typeEOS8_"
 "_ZSt4moveIRPKN5Catch7IConfigEEONSt16remove_referenceIT_E4typeEOS6_"
 "_ZSt4moveIRPKN5Catch7IStreamEEONSt16remove_referenceIT_E4typeEOS6_"
 "_ZSt4moveIRPN5Catch11MessageInfoEEONSt16remove_referenceIT_E4typeEOS5_"
 "_ZSt4moveIRPN5Catch11SectionInfoEEONSt16remove_referenceIT_E4typeEOS5_"
 "_ZSt4moveIRPN5Catch13StreamBufBaseEEONSt16remove_referenceIT_E4typeEOS5_"
 "_ZSt4moveIRPN5Catch14AssertionStatsEEONSt16remove_referenceIT_E4typeEOS5_"
 "_ZSt4moveIRPN5Catch14SectionEndInfoEEONSt16remove_referenceIT_E4typeEOS5_"
 "_ZSt4moveIRPN5Catch15ConsoleReporter13SummaryColumnEEONSt16remove_referenceIT_E4typeEOS6_"
 "_ZSt4moveIRPN5Catch16TestCaseTracking8ITrackerEEONSt16remove_referenceIT_E4typeEOS6_"
 "_ZSt4moveIRPN5Catch18IStreamingReporterEEONSt16remove_referenceIT_E4typeEOS5_"
 "_ZSt4moveIRPN5Catch22CumulativeReporterBase11SectionNodeEEONSt16remove_referenceIT_E4typeEOS6_"
 "_ZSt4moveIRPN5Catch5Clara11CommandLineINS0_10ConfigDataEE3ArgEEONSt16remove_referenceIT_E4typeEOS9_"
 "_ZSt4moveIRPN5Catch5Clara6Parser5TokenEEONSt16remove_referenceIT_E4typeEOS7_"
 "_ZSt4moveIRPN5Catch6ConfigEEONSt16remove_referenceIT_E4typeEOS5_"
 "_ZSt4moveIRPN5Catch8TestSpec6FilterEEONSt16remove_referenceIT_E4typeEOS6_"
 "_ZSt4moveIRPN5Catch8TestSpec7PatternEEONSt16remove_referenceIT_E4typeEOS6_"
 "_ZSt4moveIRPN5Catch9ITestCaseEEONSt16remove_referenceIT_E4typeEOS5_"
 "_ZSt4moveIRPNSt7__cxx1112basic_stringIcSt11char_traitsIcESaIcEEEEONSt16remove_referenceIT_E4typeEOS9_"
 "_ZSt4moveIRPPKN5Catch20IExceptionTranslatorEEONSt16remove_referenceIT_E4typeEOS7_"
 "_ZSt4moveIRPPN5Catch14IGeneratorInfoEEONSt16remove_referenceIT_E4typeEOS6_"
 "_ZSt4moveIRPPN5Catch16TestCaseTracking8ITrackerEEONSt16remove_referenceIT_E4typeEOS7_"
 "_ZSt4moveIRPSt18_Rb_tree_node_baseEONSt16remove_referenceIT_E4typeEOS4_"
 "_ZSt4moveIRPyEONSt16remove_referenceIT_E4typeEOS3_"
 "_ZSt4moveIRSaIN5Catch3PtrINS0_8TestSpec7PatternEEEEEONSt16remove_referenceIT_E4typeEOS8_"
 "_ZSt4moveIRSaIN5Catch5Clara6Parser5TokenEEEONSt16remove_referenceIT_E4typeEOS7_"
 "_ZSt4moveIRSaIN5Catch8TestCaseEEEONSt16remove_referenceIT_E4typeEOS5_"
 "_ZSt4moveIRSaIN5Catch8TestSpec6FilterEEEONSt16remove_referenceIT_E4typeEOS6_"
 "_ZSt4moveIRSt4lessINSt7__cxx1112basic_stringIcSt11char_traitsIcESaIcEEEEEONSt16remove_referenceIT_E4typeEOSA_"
 "_ZSt4moveIRSt6vectorIN5Catch3PtrINS1_8TestSpec7PatternEEESaIS5_EEEONSt16remove_referenceIT_E4typeEOSA_"
 "_ZSt4moveIRSt6vectorIN5Catch5Clara6Parser5TokenESaIS4_EEEONSt16remove_referenceIT_E4typeEOS9_"
 "_ZSt4moveIRSt6vectorIN5Catch8TestCaseESaIS2_EEEONSt16remove_referenceIT_E4typeEOS7_"
 "_ZSt4moveIRSt6vectorIN5Catch8TestSpec6FilterESaIS3_EEEONSt16remove_referenceIT_E4typeEOS8_"
 "_ZSt4moveIRyEONSt16remove_referenceIT_E4typeEOS2_"
 "_ZSt4setwi"
 "_ZSt4sortIN9__gnu_cxx17__normal_iteratorIPN5Catch8TestCaseESt6vectorIS3_SaIS3_EEEEEvT_S9_"
 "_ZSt4swapIN5Catch12TestCaseInfo17SpecialPropertiesEENSt9enable_ifIXsrSt6__and_IJSt6__not_ISt15__is_tuple_likeIT_EESt21is_move_constructibleIS7_ESt18is_move_assignableIS7_EEE5valueEvE4typeERS7_SH_"
 "_ZSt4swapIN5Catch14SourceLineInfoEENSt9enable_ifIXsrSt6__and_IJSt6__not_ISt15__is_tuple_likeIT_EESt21is_move_constructibleIS6_ESt18is_move_assignableIS6_EEE5valueEvE4typeERS6_SG_"
 "_ZSt4swapIN5Catch8TestCaseEENSt9enable_ifIXsrSt6__and_IJSt6__not_ISt15__is_tuple_likeIT_EESt21is_move_constructibleIS6_ESt18is_move_assignableIS6_EEE5valueEvE4typeERS6_SG_"
 "_ZSt4swapIPKN5Catch7IConfigEENSt9enable_ifIXsrSt6__and_IJSt6__not_ISt15__is_tuple_likeIT_EESt21is_move_constructibleIS8_ESt18is_move_assignableIS8_EEE5valueEvE4typeERS8_SI_"
 "_ZSt4swapIPN5Catch16TestCaseTracking8ITrackerEENSt9enable_ifIXsrSt6__and_IJSt6__not_ISt15__is_tuple_likeIT_EESt21is_move_constructibleIS8_ESt18is_move_assignableIS8_EEE5valueEvE4typeERS8_SI_"
 "_ZSt4swapIPN5Catch18IStreamingReporterEENSt9enable_ifIXsrSt6__and_IJSt6__not_ISt15__is_tuple_likeIT_EESt21is_move_constructibleIS7_ESt18is_move_assignableIS7_EEE5valueEvE4typeERS7_SH_"
 "_ZSt4swapIPN5Catch22CumulativeReporterBase11SectionNodeEENSt9enable_ifIXsrSt6__and_IJSt6__not_ISt15__is_tuple_likeIT_EESt21is_move_constructibleIS8_ESt18is_move_assignableIS8_EEE5valueEvE4typeERS8_SI_"
 "_ZSt4swapIPN5Catch6ConfigEENSt9enable_ifIXsrSt6__and_IJSt6__not_ISt15__is_tuple_likeIT_EESt21is_move_constructibleIS7_ESt18is_move_assignableIS7_EEE5valueEvE4typeERS7_SH_"
 "_ZSt4swapIPN5Catch8TestSpec7PatternEENSt9enable_ifIXsrSt6__and_IJSt6__not_ISt15__is_tuple_likeIT_EESt21is_move_constructibleIS8_ESt18is_move_assignableIS8_EEE5valueEvE4typeERS8_SI_"
 "_ZSt4swapIPN5Catch9ITestCaseEENSt9enable_ifIXsrSt6__and_IJSt6__not_ISt15__is_tuple_likeIT_EESt21is_move_constructibleIS7_ESt18is_move_assignableIS7_EEE5valueEvE4typeERS7_SH_"
 "_ZSt4swapIPSt18_Rb_tree_node_baseENSt9enable_ifIXsrSt6__and_IJSt6__not_ISt15__is_tuple_likeIT_EESt21is_move_constructibleIS6_ESt18is_move_assignableIS6_EEE5valueEvE4typeERS6_SG_"
 "_ZSt4swapISt4lessINSt7__cxx1112basic_stringIcSt11char_traitsIcESaIcEEEEENSt9enable_ifIXsrSt6__and_IJSt6__not_ISt15__is_tuple_likeIT_EESt21is_move_constructibleISC_ESt18is_move_assignableISC_EEE5valueEvE4typeERSC_SM_"
 "_ZSt4swapIyENSt9enable_ifIXsrSt6__and_IJSt6__not_ISt15__is_tuple_likeIT_EESt21is_move_constructibleIS4_ESt18is_move_assignableIS4_EEE5valueEvE4typeERS4_SE_"
 "_ZSt5equalIN9__gnu_cxx17__normal_iteratorIPKcNSt7__cxx1112basic_stringIcSt11char_traitsIcESaIcEEEEESA_EbT_SB_T0_"
 "_ZSt5equalISt16reverse_iteratorIN9__gnu_cxx17__normal_iteratorIPKcNSt7__cxx1112basic_stringIcSt11char_traitsIcESaIcEEEEEESC_EbT_SD_T0_"
 "_ZSt5fixedRSt8ios_base"
 "_ZSt6__sortIN9__gnu_cxx17__normal_iteratorIPN5Catch8TestCaseESt6vectorIS3_SaIS3_EEEENS0_5__ops15_Iter_less_iterEEvT_SB_T0_"
 "_ZSt6removeIN9__gnu_cxx17__normal_iteratorIPN5Catch11MessageInfoESt6vectorIS3_SaIS3_EEEES3_ET_S9_S9_RKT0_"
 "_ZSt7advanceIN9__gnu_cxx17__normal_iteratorIPKNSt7__cxx1112basic_stringIcSt11char_traitsIcESaIcEEESt6vectorIS7_SaIS7_EEEEyEvRT_T0_"
 "_ZSt7find_ifIN9__gnu_cxx17__normal_iteratorIPN5Catch3PtrINS2_16TestCaseTracking8ITrackerEEESt6vectorIS6_SaIS6_EEEENS4_11TrackerBase14TrackerHasNameEET_SE_SE_T0_"
 "_ZSt7find_ifIN9__gnu_cxx17__normal_iteratorIPN5Catch3PtrINS2_22CumulativeReporterBase11SectionNodeEEESt6vectorIS6_SaIS6_EEEENS4_13BySectionInfoEET_SD_SD_T0_"
 "_ZSt7forwardIbEOT_RNSt16remove_referenceIS0_E4typeE"
 "_ZSt7forwardIN5Catch11MessageInfoEEOT_RNSt16remove_referenceIS2_E4typeE"
 "_ZSt7forwardIN5Catch11SectionInfoEEOT_RNSt16remove_referenceIS2_E4typeE"
 "_ZSt7forwardIN5Catch14AssertionStatsEEOT_RNSt16remove_referenceIS2_E4typeE"
 "_ZSt7forwardIN5Catch14SectionEndInfoEEOT_RNSt16remove_referenceIS2_E4typeE"
 "_ZSt7forwardIN5Catch15ConsoleReporter13SummaryColumnEEOT_RNSt16remove_referenceIS3_E4typeE"
 "_ZSt7forwardIN5Catch3PtrINS0_16IReporterFactoryEEEEOT_RNSt16remove_referenceIS4_E4typeE"
 "_ZSt7forwardIN5Catch5Clara11CommandLineINS0_10ConfigDataEE3ArgEEOT_RNSt16remove_referenceIS6_E4typeE"
 "_ZSt7forwardIN5Catch5Clara6Parser5TokenEEOT_RNSt16remove_referenceIS4_E4typeE"
 "_ZSt7forwardIN5Catch7TagInfoEEOT_RNSt16remove_referenceIS2_E4typeE"
 "_ZSt7forwardIN5Catch8TagAliasEEOT_RNSt16remove_referenceIS2_E4typeE"
 "_ZSt7forwardIN5Catch8TestSpec6FilterEEOT_RNSt16remove_referenceIS3_E4typeE"
 "_ZSt7forwardINSt7__cxx1112basic_stringIcSt11char_traitsIcESaIcEEEEOT_RNSt16remove_referenceIS6_E4typeE"
 "_ZSt7forwardIPN5Catch14IGeneratorInfoEEOT_RNSt16remove_referenceIS3_E4typeE"
 "_ZSt7forwardIPN5Catch16TestCaseTracking8ITrackerEEOT_RNSt16remove_referenceIS4_E4typeE"
 "_ZSt7forwardIPN5Catch18IGeneratorsForTestEEOT_RNSt16remove_referenceIS3_E4typeE"
 "_ZSt7forwardIRbEOT_RNSt16remove_referenceIS1_E4typeE"
 "_ZSt7forwardIRKN5Catch11MessageInfoEEOT_RNSt16remove_referenceIS4_E4typeE"
 "_ZSt7forwardIRKN5Catch11SectionInfoEEOT_RNSt16remove_referenceIS4_E4typeE"
 "_ZSt7forwardIRKN5Catch14AssertionStatsEEOT_RNSt16remove_referenceIS4_E4typeE"
 "_ZSt7forwardIRKN5Catch14SectionEndInfoEEOT_RNSt16remove_referenceIS4_E4typeE"
 "_ZSt7forwardIRKN5Catch3PtrINS0_16IReporterFactoryEEEEOT_RNSt16remove_referenceIS6_E4typeE"
 "_ZSt7forwardIRKN5Catch3PtrINS0_16TestCaseTracking8ITrackerEEEEOT_RNSt16remove_referenceIS7_E4typeE"
 "_ZSt7forwardIRKN5Catch3PtrINS0_18IStreamingReporterEEEEOT_RNSt16remove_referenceIS6_E4typeE"
 "_ZSt7forwardIRKN5Catch3PtrINS0_22CumulativeReporterBase11SectionNodeEEEEOT_RNSt16remove_referenceIS7_E4typeE"
 "_ZSt7forwardIRKN5Catch3PtrINS0_22CumulativeReporterBase4NodeINS0_12TestRunStatsENS3_INS0_14TestGroupStatsENS3_INS0_13TestCaseStatsENS2_11SectionNodeEEEEEEEEEEOT_RNSt16remove_referenceISE_E4typeE"
 "_ZSt7forwardIRKN5Catch3PtrINS0_22CumulativeReporterBase4NodeINS0_13TestCaseStatsENS2_11SectionNodeEEEEEEOT_RNSt16remove_referenceISA_E4typeE"
 "_ZSt7forwardIRKN5Catch3PtrINS0_22CumulativeReporterBase4NodeINS0_14TestGroupStatsENS3_INS0_13TestCaseStatsENS2_11SectionNodeEEEEEEEEOT_RNSt16remove_referenceISC_E4typeE"
 "_ZSt7forwardIRKN5Catch3PtrINS0_8TestSpec7PatternEEEEOT_RNSt16remove_referenceIS7_E4typeE"
 "_ZSt7forwardIRKN5Catch5Clara11CommandLineINS0_10ConfigDataEE3ArgEEOT_RNSt16remove_referenceIS8_E4typeE"
 "_ZSt7forwardIRKN5Catch5Clara6Parser5TokenEEOT_RNSt16remove_referenceIS6_E4typeE"
 "_ZSt7forwardIRKN5Catch8TestCaseEEOT_RNSt16remove_referenceIS4_E4typeE"
 "_ZSt7forwardIRKN5Catch8TestSpec6FilterEEOT_RNSt16remove_referenceIS5_E4typeE"
 "_ZSt7forwardIRKNSt7__cxx1112basic_stringIcSt11char_traitsIcESaIcEEEEOT_RNSt16remove_referenceIS8_E4typeE"
 "_ZSt7forwardIRKPKN5Catch20IExceptionTranslatorEEOT_RNSt16remove_referenceIS6_E4typeE"
 "_ZSt7forwardIRKPN5Catch14IGeneratorInfoEEOT_RNSt16remove_referenceIS5_E4typeE"
 "_ZSt7forwardIRKyEOT_RNSt16remove_referenceIS2_E4typeE"
 "_ZSt7forwardIRNSt7__cxx1112basic_stringIcSt11char_traitsIcESaIcEEEEOT_RNSt16remove_referenceIS7_E4typeE"
 "_ZSt7forwardIRPN5Catch14IGeneratorInfoEEOT_RNSt16remove_referenceIS4_E4typeE"
 "_ZSt7forwardIRPN5Catch18IGeneratorsForTestEEOT_RNSt16remove_referenceIS4_E4typeE"
 "_ZSt7forwardIRPSt13_Rb_tree_nodeIN5Catch8TestCaseEEEOT_RNSt16remove_referenceIS6_E4typeE"
 "_ZSt7forwardIRPSt13_Rb_tree_nodeINSt7__cxx1112basic_stringIcSt11char_traitsIcESaIcEEEEEOT_RNSt16remove_referenceISA_E4typeE"
 "_ZSt7forwardIRPSt13_Rb_tree_nodeISt4pairIKNSt7__cxx1112basic_stringIcSt11char_traitsIcESaIcEEEN5Catch3PtrINS9_16IReporterFactoryEEEEEEOT_RNSt16remove_referenceISH_E4typeE"
 "_ZSt7forwardIRPSt13_Rb_tree_nodeISt4pairIKNSt7__cxx1112basic_stringIcSt11char_traitsIcESaIcEEEN5Catch7TagInfoEEEEOT_RNSt16remove_referenceISF_E4typeE"
 "_ZSt7forwardIRPSt13_Rb_tree_nodeISt4pairIKNSt7__cxx1112basic_stringIcSt11char_traitsIcESaIcEEEN5Catch8TagAliasEEEEOT_RNSt16remove_referenceISF_E4typeE"
 "_ZSt7forwardIRPSt13_Rb_tree_nodeISt4pairIKNSt7__cxx1112basic_stringIcSt11char_traitsIcESaIcEEEPN5Catch14IGeneratorInfoEEEEOT_RNSt16remove_referenceISG_E4typeE"
 "_ZSt7forwardIRPSt13_Rb_tree_nodeISt4pairIKNSt7__cxx1112basic_stringIcSt11char_traitsIcESaIcEEEPN5Catch18IGeneratorsForTestEEEEOT_RNSt16remove_referenceISG_E4typeE"
 "_ZSt7forwardIRPSt18_Rb_tree_node_baseEOT_RNSt16remove_referenceIS3_E4typeE"
 "_ZSt7forwardIRSt17_Rb_tree_iteratorIN5Catch8TestCaseEEEOT_RNSt16remove_referenceIS5_E4typeE"
 "_ZSt7forwardIRSt17_Rb_tree_iteratorINSt7__cxx1112basic_stringIcSt11char_traitsIcESaIcEEEEEOT_RNSt16remove_referenceIS9_E4typeE"
 "_ZSt7forwardISt17_Rb_tree_iteratorIN5Catch8TestCaseEEEOT_RNSt16remove_referenceIS4_E4typeE"
 "_ZSt7forwardISt17_Rb_tree_iteratorINSt7__cxx1112basic_stringIcSt11char_traitsIcESaIcEEEEEOT_RNSt16remove_referenceIS8_E4typeE"
 "_ZSt7forwardISt17_Rb_tree_iteratorISt4pairIKNSt7__cxx1112basic_stringIcSt11char_traitsIcESaIcEEEN5Catch3PtrINS9_16IReporterFactoryEEEEEEOT_RNSt16remove_referenceISF_E4typeE"
 "_ZSt7forwardISt17_Rb_tree_iteratorISt4pairIKNSt7__cxx1112basic_stringIcSt11char_traitsIcESaIcEEEN5Catch7TagInfoEEEEOT_RNSt16remove_referenceISD_E4typeE"
 "_ZSt7forwardISt17_Rb_tree_iteratorISt4pairIKNSt7__cxx1112basic_stringIcSt11char_traitsIcESaIcEEEN5Catch8TagAliasEEEEOT_RNSt16remove_referenceISD_E4typeE"
 "_ZSt7forwardISt17_Rb_tree_iteratorISt4pairIKNSt7__cxx1112basic_stringIcSt11char_traitsIcESaIcEEEPN5Catch14IGeneratorInfoEEEEOT_RNSt16remove_referenceISE_E4typeE"
 "_ZSt7forwardISt17_Rb_tree_iteratorISt4pairIKNSt7__cxx1112basic_stringIcSt11char_traitsIcESaIcEEEPN5Catch18IGeneratorsForTestEEEEOT_RNSt16remove_referenceISE_E4typeE"
 "_ZSt7forwardISt4pairINSt7__cxx1112basic_stringIcSt11char_traitsIcESaIcEEEN5Catch3PtrINS7_16IReporterFactoryEEEEEOT_RNSt16remove_referenceISC_E4typeE"
 "_ZSt7forwardISt4pairINSt7__cxx1112basic_stringIcSt11char_traitsIcESaIcEEEN5Catch7TagInfoEEEOT_RNSt16remove_referenceISA_E4typeE"
 "_ZSt7forwardISt4pairINSt7__cxx1112basic_stringIcSt11char_traitsIcESaIcEEEN5Catch8TagAliasEEEOT_RNSt16remove_referenceISA_E4typeE"
 "_ZSt7forwardISt4pairINSt7__cxx1112basic_stringIcSt11char_traitsIcESaIcEEEPN5Catch14IGeneratorInfoEEEOT_RNSt16remove_referenceISB_E4typeE"
 "_ZSt7forwardISt4pairINSt7__cxx1112basic_stringIcSt11char_traitsIcESaIcEEEPN5Catch18IGeneratorsForTestEEEOT_RNSt16remove_referenceISB_E4typeE"
 "_ZSt7forwardIyEOT_RNSt16remove_referenceIS0_E4typeE"
 "_ZSt7setfillIcESt8_SetfillIT_ES1_"
 "_ZSt7shuffleIN9__gnu_cxx17__normal_iteratorIPN5Catch8TestCaseESt6vectorIS3_SaIS3_EEEERSt23mersenne_twister_engineIjLy32ELy624ELy397ELy31ELj2567483615ELy11ELj4294967295ELy7ELj2636928640ELy15ELj4022730752ELy18ELj1812433253EEEvT_SC_OT0_"
 "_ZSt8__memcmpIccEiPKT_PKT0_y"
 "_ZSt8_DestroyIN5Catch11MessageInfoEEvPT_"
 "_ZSt8_DestroyIN5Catch11SectionInfoEEvPT_"
 "_ZSt8_DestroyIN5Catch14AssertionStatsEEvPT_"
 "_ZSt8_DestroyIN5Catch14SectionEndInfoEEvPT_"
 "_ZSt8_DestroyIN5Catch15ConsoleReporter13SummaryColumnEEvPT_"
 "_ZSt8_DestroyIN5Catch3PtrINS0_16IReporterFactoryEEEEvPT_"
 "_ZSt8_DestroyIN5Catch3PtrINS0_16TestCaseTracking8ITrackerEEEEvPT_"
 "_ZSt8_DestroyIN5Catch3PtrINS0_18IStreamingReporterEEEEvPT_"
 "_ZSt8_DestroyIN5Catch3PtrINS0_22CumulativeReporterBase11SectionNodeEEEEvPT_"
 "_ZSt8_DestroyIN5Catch3PtrINS0_22CumulativeReporterBase4NodeINS0_12TestRunStatsENS3_INS0_14TestGroupStatsENS3_INS0_13TestCaseStatsENS2_11SectionNodeEEEEEEEEEEvPT_"
 "_ZSt8_DestroyIN5Catch3PtrINS0_22CumulativeReporterBase4NodeINS0_13TestCaseStatsENS2_11SectionNodeEEEEEEvPT_"
 "_ZSt8_DestroyIN5Catch3PtrINS0_22CumulativeReporterBase4NodeINS0_14TestGroupStatsENS3_INS0_13TestCaseStatsENS2_11SectionNodeEEEEEEEEvPT_"
 "_ZSt8_DestroyIN5Catch3PtrINS0_8TestSpec7PatternEEEEvPT_"
 "_ZSt8_DestroyIN5Catch5Clara11CommandLineINS0_10ConfigDataEE3ArgEEvPT_"
 "_ZSt8_DestroyIN5Catch5Clara6Parser5TokenEEvPT_"
 "_ZSt8_DestroyIN5Catch8TestCaseEEvPT_"
 "_ZSt8_DestroyIN5Catch8TestSpec6FilterEEvPT_"
 "_ZSt8_DestroyINSt7__cxx1112basic_stringIcSt11char_traitsIcESaIcEEEEvPT_"
 "_ZSt8_DestroyIPN5Catch11MessageInfoEEvT_S3_"
 "_ZSt8_DestroyIPN5Catch11MessageInfoES1_EvT_S3_RSaIT0_E"
 "_ZSt8_DestroyIPN5Catch11SectionInfoEEvT_S3_"
 "_ZSt8_DestroyIPN5Catch11SectionInfoES1_EvT_S3_RSaIT0_E"
 "_ZSt8_DestroyIPN5Catch14AssertionStatsEEvT_S3_"
 "_ZSt8_DestroyIPN5Catch14AssertionStatsES1_EvT_S3_RSaIT0_E"
 "_ZSt8_DestroyIPN5Catch14SectionEndInfoEEvT_S3_"
 "_ZSt8_DestroyIPN5Catch14SectionEndInfoES1_EvT_S3_RSaIT0_E"
 "_ZSt8_DestroyIPN5Catch15ConsoleReporter13SummaryColumnEEvT_S4_"
 "_ZSt8_DestroyIPN5Catch15ConsoleReporter13SummaryColumnES2_EvT_S4_RSaIT0_E"
 "_ZSt8_DestroyIPN5Catch3PtrINS0_16IReporterFactoryEEEEvT_S5_"
 "_ZSt8_DestroyIPN5Catch3PtrINS0_16IReporterFactoryEEES3_EvT_S5_RSaIT0_E"
 "_ZSt8_DestroyIPN5Catch3PtrINS0_16TestCaseTracking8ITrackerEEEEvT_S6_"
 "_ZSt8_DestroyIPN5Catch3PtrINS0_16TestCaseTracking8ITrackerEEES4_EvT_S6_RSaIT0_E"
 "_ZSt8_DestroyIPN5Catch3PtrINS0_18IStreamingReporterEEEEvT_S5_"
 "_ZSt8_DestroyIPN5Catch3PtrINS0_18IStreamingReporterEEES3_EvT_S5_RSaIT0_E"
 "_ZSt8_DestroyIPN5Catch3PtrINS0_22CumulativeReporterBase11SectionNodeEEEEvT_S6_"
 "_ZSt8_DestroyIPN5Catch3PtrINS0_22CumulativeReporterBase11SectionNodeEEES4_EvT_S6_RSaIT0_E"
 "_ZSt8_DestroyIPN5Catch3PtrINS0_22CumulativeReporterBase4NodeINS0_12TestRunStatsENS3_INS0_14TestGroupStatsENS3_INS0_13TestCaseStatsENS2_11SectionNodeEEEEEEEEEEvT_SD_"
 "_ZSt8_DestroyIPN5Catch3PtrINS0_22CumulativeReporterBase4NodeINS0_12TestRunStatsENS3_INS0_14TestGroupStatsENS3_INS0_13TestCaseStatsENS2_11SectionNodeEEEEEEEEESB_EvT_SD_RSaIT0_E"
 "_ZSt8_DestroyIPN5Catch3PtrINS0_22CumulativeReporterBase4NodeINS0_13TestCaseStatsENS2_11SectionNodeEEEEEEvT_S9_"
 "_ZSt8_DestroyIPN5Catch3PtrINS0_22CumulativeReporterBase4NodeINS0_13TestCaseStatsENS2_11SectionNodeEEEEES7_EvT_S9_RSaIT0_E"
 "_ZSt8_DestroyIPN5Catch3PtrINS0_22CumulativeReporterBase4NodeINS0_14TestGroupStatsENS3_INS0_13TestCaseStatsENS2_11SectionNodeEEEEEEEEvT_SB_"
 "_ZSt8_DestroyIPN5Catch3PtrINS0_22CumulativeReporterBase4NodeINS0_14TestGroupStatsENS3_INS0_13TestCaseStatsENS2_11SectionNodeEEEEEEES9_EvT_SB_RSaIT0_E"
 "_ZSt8_DestroyIPN5Catch3PtrINS0_8TestSpec7PatternEEEEvT_S6_"
 "_ZSt8_DestroyIPN5Catch3PtrINS0_8TestSpec7PatternEEES4_EvT_S6_RSaIT0_E"
 "_ZSt8_DestroyIPN5Catch5Clara11CommandLineINS0_10ConfigDataEE3ArgEEvT_S7_"
 "_ZSt8_DestroyIPN5Catch5Clara11CommandLineINS0_10ConfigDataEE3ArgES5_EvT_S7_RSaIT0_E"
 "_ZSt8_DestroyIPN5Catch5Clara6Parser5TokenEEvT_S5_"
 "_ZSt8_DestroyIPN5Catch5Clara6Parser5TokenES3_EvT_S5_RSaIT0_E"
 "_ZSt8_DestroyIPN5Catch8TestCaseEEvT_S3_"
 "_ZSt8_DestroyIPN5Catch8TestCaseES1_EvT_S3_RSaIT0_E"
 "_ZSt8_DestroyIPN5Catch8TestSpec6FilterEEvT_S4_"
 "_ZSt8_DestroyIPN5Catch8TestSpec6FilterES2_EvT_S4_RSaIT0_E"
 "_ZSt8_DestroyIPNSt7__cxx1112basic_stringIcSt11char_traitsIcESaIcEEEEvT_S7_"
 "_ZSt8_DestroyIPNSt7__cxx1112basic_stringIcSt11char_traitsIcESaIcEEES5_EvT_S7_RSaIT0_E"
 "_ZSt8_DestroyIPPKN5Catch20IExceptionTranslatorEEvT_S5_"
 "_ZSt8_DestroyIPPKN5Catch20IExceptionTranslatorES3_EvT_S5_RSaIT0_E"
 "_ZSt8_DestroyIPPKN5Catch8Matchers4Impl11MatcherBaseINSt7__cxx1112basic_stringIcSt11char_traitsIcESaIcEEES9_EEEvT_SE_"
 "_ZSt8_DestroyIPPKN5Catch8Matchers4Impl11MatcherBaseINSt7__cxx1112basic_stringIcSt11char_traitsIcESaIcEEES9_EESC_EvT_SE_RSaIT0_E"
 "_ZSt8_DestroyIPPN5Catch14IGeneratorInfoEEvT_S4_"
 "_ZSt8_DestroyIPPN5Catch14IGeneratorInfoES2_EvT_S4_RSaIT0_E"
 "_ZSt8_DestroyIPPN5Catch16TestCaseTracking8ITrackerEEvT_S5_"
 "_ZSt8_DestroyIPPN5Catch16TestCaseTracking8ITrackerES3_EvT_S5_RSaIT0_E"
 "_ZSt8_DestroyIPSt6vectorIN5Catch3PtrINS1_22CumulativeReporterBase11SectionNodeEEESaIS5_EEEvT_S9_"
 "_ZSt8_DestroyIPSt6vectorIN5Catch3PtrINS1_22CumulativeReporterBase11SectionNodeEEESaIS5_EES7_EvT_S9_RSaIT0_E"
 "_ZSt8_DestroyIPyEvT_S1_"
 "_ZSt8_DestroyIPyyEvT_S1_RSaIT0_E"
 "_ZSt8_DestroyISt6vectorIN5Catch3PtrINS1_22CumulativeReporterBase11SectionNodeEEESaIS5_EEEvPT_"
 "_ZSt8distanceIN9__gnu_cxx17__normal_iteratorIPKcNSt7__cxx1112basic_stringIcSt11char_traitsIcESaIcEEEEEENSt15iterator_traitsIT_E15difference_typeESC_SC_"
 "_ZSt8distanceIN9__gnu_cxx17__normal_iteratorIPKN5Catch11MessageInfoESt6vectorIS3_SaIS3_EEEEENSt15iterator_traitsIT_E15difference_typeESB_SB_"
 "_ZSt8distanceIN9__gnu_cxx17__normal_iteratorIPKNSt7__cxx1112basic_stringIcSt11char_traitsIcESaIcEEESt6vectorIS7_SaIS7_EEEEENSt15iterator_traitsIT_E15difference_typeESF_SF_"
 "_ZSt9__advanceIN9__gnu_cxx17__normal_iteratorIPKNSt7__cxx1112basic_stringIcSt11char_traitsIcESaIcEEESt6vectorIS7_SaIS7_EEEExEvRT_T0_St26random_access_iterator_tag"
 "_ZSt9__find_ifIN9__gnu_cxx17__normal_iteratorIPKcNSt7__cxx1112basic_stringIcSt11char_traitsIcESaIcEEEEENS0_5__ops16_Iter_equals_valIS2_EEET_SE_SE_T0_"
 "_ZSt9__find_ifIN9__gnu_cxx17__normal_iteratorIPKcNSt7__cxx1112basic_stringIcSt11char_traitsIcESaIcEEEEENS0_5__ops16_Iter_equals_valIS2_EEET_SE_SE_T0_St26random_access_iterator_tag"
 "_ZSt9__find_ifIN9__gnu_cxx17__normal_iteratorIPKNSt7__cxx1112basic_stringIcSt11char_traitsIcESaIcEEESt6vectorIS7_SaIS7_EEEENS0_5__ops16_Iter_equals_valIS8_EEET_SH_SH_T0_"
 "_ZSt9__find_ifIN9__gnu_cxx17__normal_iteratorIPKNSt7__cxx1112basic_stringIcSt11char_traitsIcESaIcEEESt6vectorIS7_SaIS7_EEEENS0_5__ops16_Iter_equals_valIS8_EEET_SH_SH_T0_St26random_access_iterator_tag"
 "_ZSt9__find_ifIN9__gnu_cxx17__normal_iteratorIPN5Catch11MessageInfoESt6vectorIS3_SaIS3_EEEENS0_5__ops16_Iter_equals_valIKS3_EEET_SD_SD_T0_"
 "_ZSt9__find_ifIN9__gnu_cxx17__normal_iteratorIPN5Catch11MessageInfoESt6vectorIS3_SaIS3_EEEENS0_5__ops16_Iter_equals_valIKS3_EEET_SD_SD_T0_St26random_access_iterator_tag"
 "_ZSt9__find_ifIN9__gnu_cxx17__normal_iteratorIPN5Catch3PtrINS2_16TestCaseTracking8ITrackerEEESt6vectorIS6_SaIS6_EEEENS0_5__ops10_Iter_predINS4_11TrackerBase14TrackerHasNameEEEET_SH_SH_T0_"
 "_ZSt9__find_ifIN9__gnu_cxx17__normal_iteratorIPN5Catch3PtrINS2_16TestCaseTracking8ITrackerEEESt6vectorIS6_SaIS6_EEEENS0_5__ops10_Iter_predINS4_11TrackerBase14TrackerHasNameEEEET_SH_SH_T0_St26random_access_iterator_tag"
 "_ZSt9__find_ifIN9__gnu_cxx17__normal_iteratorIPN5Catch3PtrINS2_22CumulativeReporterBase11SectionNodeEEESt6vectorIS6_SaIS6_EEEENS0_5__ops10_Iter_predINS4_13BySectionInfoEEEET_SG_SG_T0_"
 "_ZSt9__find_ifIN9__gnu_cxx17__normal_iteratorIPN5Catch3PtrINS2_22CumulativeReporterBase11SectionNodeEEESt6vectorIS6_SaIS6_EEEENS0_5__ops10_Iter_predINS4_13BySectionInfoEEEET_SG_SG_T0_St26random_access_iterator_tag"
 "_ZSt9iter_swapIN9__gnu_cxx17__normal_iteratorIPN5Catch8TestCaseESt6vectorIS3_SaIS3_EEEES8_EvT_T0_"
 "_ZSt9make_pairIRKNSt7__cxx1112basic_stringIcSt11char_traitsIcESaIcEEEN5Catch8TagAliasEESt4pairINSt25__strip_reference_wrapperINSt5decayIT_E4typeEE6__typeENSB_INSC_IT0_E4typeEE6__typeEEOSD_OSI_"
 "_ZSt9make_pairIRKNSt7__cxx1112basic_stringIcSt11char_traitsIcESaIcEEERKN5Catch3PtrINS8_16IReporterFactoryEEEESt4pairINSt25__strip_reference_wrapperINSt5decayIT_E4typeEE6__typeENSF_INSG_IT0_E4typeEE6__typeEEOSH_OSM_"
 "_ZSt9make_pairIRKNSt7__cxx1112basic_stringIcSt11char_traitsIcESaIcEEERPN5Catch14IGeneratorInfoEESt4pairINSt25__strip_reference_wrapperINSt5decayIT_E4typeEE6__typeENSD_INSE_IT0_E4typeEE6__typeEEOSF_OSK_"
 "_ZSt9make_pairIRNSt7__cxx1112basic_stringIcSt11char_traitsIcESaIcEEEN5Catch7TagInfoEESt4pairINSt25__strip_reference_wrapperINSt5decayIT_E4typeEE6__typeENSA_INSB_IT0_E4typeEE6__typeEEOSC_OSH_"
 "_ZSt9make_pairIRNSt7__cxx1112basic_stringIcSt11char_traitsIcESaIcEEERPN5Catch18IGeneratorsForTestEESt4pairINSt25__strip_reference_wrapperINSt5decayIT_E4typeEE6__typeENSC_INSD_IT0_E4typeEE6__typeEEOSE_OSJ_"
 "_ZSt9make_pairIyyESt4pairINSt25__strip_reference_wrapperINSt5decayIT_E4typeEE6__typeENS1_INS2_IT0_E4typeEE6__typeEEOS3_OS8_"
 "_ZSt9transformIN9__gnu_cxx17__normal_iteratorIPcNSt7__cxx1112basic_stringIcSt11char_traitsIcESaIcEEEEES9_PFccEET0_T_SD_SC_T1_"
 "_ZSt9uppercaseRSt8ios_base"
 "_ZStaNRSt13_Ios_FmtflagsS_"
 "_ZStanSt13_Ios_FmtflagsS_"
 "_ZStcoSt13_Ios_Fmtflags"
 "_ZSteqIcEN9__gnu_cxx11__enable_ifIXsrSt9__is_charIT_E7__valueEbE6__typeERKNSt7__cxx1112basic_stringIS3_St11char_traitsIS3_ESaIS3_EEESE_"
 "_ZSteqIcSt11char_traitsIcESaIcEEbRKNSt7__cxx1112basic_stringIT_T0_T1_EEPKS5_"
 "_ZSteqIN9__gnu_cxx17__normal_iteratorIPKN5Catch14SectionEndInfoESt6vectorIS3_SaIS3_EEEEEbRKSt16reverse_iteratorIT_ESE_"
 "_ZSteqIPKcEbRKSt16reverse_iteratorIT_ES6_"
 "_ZSteqIPN5Catch11MessageInfoEEbRKSt13move_iteratorIT_ES7_"
 "_ZSteqIPN5Catch11SectionInfoEEbRKSt13move_iteratorIT_ES7_"
 "_ZSteqIPN5Catch14AssertionStatsEEbRKSt13move_iteratorIT_ES7_"
 "_ZSteqIPN5Catch14SectionEndInfoEEbRKSt13move_iteratorIT_ES7_"
 "_ZSteqIPN5Catch15ConsoleReporter13SummaryColumnEEbRKSt13move_iteratorIT_ES8_"
 "_ZSteqIPN5Catch5Clara6Parser5TokenEEbRKSt13move_iteratorIT_ES9_"
 "_ZSteqIPN5Catch8TestSpec6FilterEEbRKSt13move_iteratorIT_ES8_"
 "_ZSteqIPNSt7__cxx1112basic_stringIcSt11char_traitsIcESaIcEEEEbRKSt13move_iteratorIT_ESB_"
 "_ZSteqRKSaIcES1_"
 "_ZSteqRKSt17_Rb_tree_iteratorIN5Catch8TestCaseEES4_"
 "_ZSteqRKSt17_Rb_tree_iteratorINSt7__cxx1112basic_stringIcSt11char_traitsIcESaIcEEEES8_"
 "_ZSteqRKSt17_Rb_tree_iteratorISt4pairIKNSt7__cxx1112basic_stringIcSt11char_traitsIcESaIcEEEN5Catch3PtrINS8_16IReporterFactoryEEEEESF_"
 "_ZSteqRKSt17_Rb_tree_iteratorISt4pairIKNSt7__cxx1112basic_stringIcSt11char_traitsIcESaIcEEEN5Catch7TagInfoEEESD_"
 "_ZSteqRKSt17_Rb_tree_iteratorISt4pairIKNSt7__cxx1112basic_stringIcSt11char_traitsIcESaIcEEEN5Catch8TagAliasEEESD_"
 "_ZSteqRKSt17_Rb_tree_iteratorISt4pairIKNSt7__cxx1112basic_stringIcSt11char_traitsIcESaIcEEEPN5Catch14IGeneratorInfoEEESE_"
 "_ZSteqRKSt17_Rb_tree_iteratorISt4pairIKNSt7__cxx1112basic_stringIcSt11char_traitsIcESaIcEEEPN5Catch18IGeneratorsForTestEEESE_"
 "_ZSteqRKSt23_Rb_tree_const_iteratorINSt7__cxx1112basic_stringIcSt11char_traitsIcESaIcEEEES8_"
 "_ZSteqRKSt23_Rb_tree_const_iteratorISt4pairIKiN5Catch5Clara11CommandLineINS2_10ConfigDataEE3ArgEEESB_"
 "_ZSteqRKSt23_Rb_tree_const_iteratorISt4pairIKNSt7__cxx1112basic_stringIcSt11char_traitsIcESaIcEEEN5Catch3PtrINS8_16IReporterFactoryEEEEESF_"
 "_ZSteqRKSt23_Rb_tree_const_iteratorISt4pairIKNSt7__cxx1112basic_stringIcSt11char_traitsIcESaIcEEEN5Catch8TagAliasEEESD_"
 "_ZSteqRKSt23_Rb_tree_const_iteratorISt4pairIKNSt7__cxx1112basic_stringIcSt11char_traitsIcESaIcEEEPN5Catch14IGeneratorInfoEEESE_"
 "_ZStltIcSt11char_traitsIcESaIcEEbRKNSt7__cxx1112basic_stringIT_T0_T1_EESA_"
 "_ZStneIcSt11char_traitsIcESaIcEEbRKNSt7__cxx1112basic_stringIT_T0_T1_EEPKS5_"
 "_ZStneIcSt11char_traitsIcESaIcEEbRKNSt7__cxx1112basic_stringIT_T0_T1_EESA_"
 "_ZStneIN9__gnu_cxx17__normal_iteratorIPKN5Catch14SectionEndInfoESt6vectorIS3_SaIS3_EEEEEbRKSt16reverse_iteratorIT_ESE_"
 "_ZStneIPKcEbRKSt16reverse_iteratorIT_ES6_"
 "_ZStneIPN5Catch11MessageInfoEEbRKSt13move_iteratorIT_ES7_"
 "_ZStneIPN5Catch11SectionInfoEEbRKSt13move_iteratorIT_ES7_"
 "_ZStneIPN5Catch14AssertionStatsEEbRKSt13move_iteratorIT_ES7_"
 "_ZStneIPN5Catch14SectionEndInfoEEbRKSt13move_iteratorIT_ES7_"
 "_ZStneIPN5Catch15ConsoleReporter13SummaryColumnEEbRKSt13move_iteratorIT_ES8_"
 "_ZStneIPN5Catch5Clara6Parser5TokenEEbRKSt13move_iteratorIT_ES9_"
 "_ZStneIPN5Catch8TestSpec6FilterEEbRKSt13move_iteratorIT_ES8_"
 "_ZStneIPNSt7__cxx1112basic_stringIcSt11char_traitsIcESaIcEEEEbRKSt13move_iteratorIT_ESB_"
 "_ZStneRKSaISt13_Rb_tree_nodeINSt7__cxx1112basic_stringIcSt11char_traitsIcESaIcEEEEES9_"
 "_ZStneRKSt23_Rb_tree_const_iteratorINSt7__cxx1112basic_stringIcSt11char_traitsIcESaIcEEEES8_"
 "_ZStneRKSt23_Rb_tree_const_iteratorISt4pairIKiN5Catch5Clara11CommandLineINS2_10ConfigDataEE3ArgEEESB_"
 "_ZStneRKSt23_Rb_tree_const_iteratorISt4pairIKNSt7__cxx1112basic_stringIcSt11char_traitsIcESaIcEEEN5Catch3PtrINS8_16IReporterFactoryEEEEESF_"
 "_ZStneRKSt23_Rb_tree_const_iteratorISt4pairIKNSt7__cxx1112basic_stringIcSt11char_traitsIcESaIcEEEN5Catch7TagInfoEEESD_"
 "_ZStneRKSt23_Rb_tree_const_iteratorISt4pairIKNSt7__cxx1112basic_stringIcSt11char_traitsIcESaIcEEEN5Catch8TagAliasEEESD_"
 "_ZStneRKSt23_Rb_tree_const_iteratorISt4pairIKNSt7__cxx1112basic_stringIcSt11char_traitsIcESaIcEEEPN5Catch18IGeneratorsForTestEEESE_"
 "_ZStoRRSt13_Ios_FmtflagsS_"
 "_ZStorSt13_Ios_FmtflagsS_"
 "_ZStplIcSt11char_traitsIcESaIcEENSt7__cxx1112basic_stringIT_T0_T1_EEOS8_PKS5_"
 "_ZStplIcSt11char_traitsIcESaIcEENSt7__cxx1112basic_stringIT_T0_T1_EEOS8_RKS8_"
 "_ZStplIcSt11char_traitsIcESaIcEENSt7__cxx1112basic_stringIT_T0_T1_EEOS8_S5_"
 "_ZStplIcSt11char_traitsIcESaIcEENSt7__cxx1112basic_stringIT_T0_T1_EEOS8_S9_"
 "_ZStplIcSt11char_traitsIcESaIcEENSt7__cxx1112basic_stringIT_T0_T1_EEPKS5_OS8_"
 "_ZStplIcSt11char_traitsIcESaIcEENSt7__cxx1112basic_stringIT_T0_T1_EEPKS5_RKS8_"
 "_ZStplIcSt11char_traitsIcESaIcEENSt7__cxx1112basic_stringIT_T0_T1_EERKS8_OS8_"
 "_ZStplIcSt11char_traitsIcESaIcEENSt7__cxx1112basic_stringIT_T0_T1_EERKS8_S5_"
 "_ZStplIcSt11char_traitsIcESaIcEENSt7__cxx1112basic_stringIT_T0_T1_EES5_OS8_"
 "_ZStplIcSt11char_traitsIcESaIcEENSt7__cxx1112basic_stringIT_T0_T1_EES5_RKS8_"
 "_ZTCN8testthat9r_ostreamE0_So"
 "_ZThn40_NK5Catch8Matchers4Impl10MatchAllOfINSt7__cxx1112basic_stringIcSt11char_traitsIcESaIcEEEE5matchERKS8_"
 "_ZThn40_NK5Catch8Matchers9StdString13EqualsMatcher5matchERKNSt7__cxx1112basic_stringIcSt11char_traitsIcESaIcEEE"
 "_ZThn40_NK5Catch8Matchers9StdString15ContainsMatcher5matchERKNSt7__cxx1112basic_stringIcSt11char_traitsIcESaIcEEE"
 "_ZThn40_NK5Catch8Matchers9StdString15EndsWithMatcher5matchERKNSt7__cxx1112basic_stringIcSt11char_traitsIcESaIcEEE"
 "_ZThn40_NK5Catch8Matchers9StdString17StartsWithMatcher5matchERKNSt7__cxx1112basic_stringIcSt11char_traitsIcESaIcEEE"
 "_ZThn8_N5Catch10RunContextD0Ev"
 "_ZThn8_N5Catch10RunContextD1Ev"
 "_ZThn8_NK5Catch10RunContext8abortingEv"
 "_ZTIN5Catch10CoutStreamE"
 "_ZTIN5Catch10FileStreamE"
 "_ZTIN5Catch10RunContextE"
 "_ZTIN5Catch10SharedImplINS_16IReporterFactoryEEE"
 "_ZTIN5Catch10SharedImplINS_18IStreamingReporterEEE"
 "_ZTIN5Catch10SharedImplINS_7IConfigEEE"
 "_ZTIN5Catch10SharedImplINS_7ISharedEEE"
 "_ZTIN5Catch10SharedImplINS_9ITestCaseEEE"
 "_ZTIN5Catch11NonCopyableE"
 "_ZTIN5Catch11XmlReporterE"
 "_ZTIN5Catch12IRegistryHubE"
 "_ZTIN5Catch12SectionStatsE"
 "_ZTIN5Catch12TestRegistryE"
 "_ZTIN5Catch12TestRunStatsE"
 "_ZTIN5Catch13GeneratorInfoE"
 "_ZTIN5Catch13JunitReporterE"
 "_ZTIN5Catch13ResultBuilderE"
 "_ZTIN5Catch13StreamBufBaseE"
 "_ZTIN5Catch13StreamBufImplINS_17OutputDebugWriterELy256EEE"
 "_ZTIN5Catch13TestCaseStatsE"
 "_ZTIN5Catch14AssertionStatsE"
 "_ZTIN5Catch14DebugOutStreamE"
 "_ZTIN5Catch14IGeneratorInfoE"
 "_ZTIN5Catch14IResultCaptureE"
 "_ZTIN5Catch14TestGroupStatsE"
 "_ZTIN5Catch15CompactReporterE"
 "_ZTIN5Catch15ConsoleReporterE"
 "_ZTIN5Catch15IMutableContextE"
 "_ZTIN5Catch15WildcardPatternE"
 "_ZTIN5Catch16IReporterFactoryE"
 "_ZTIN5Catch16ReporterRegistryE"
 "_ZTIN5Catch16TagAliasRegistryE"
 "_ZTIN5Catch16TestCaseTracking11TrackerBaseE"
 "_ZTIN5Catch16TestCaseTracking12IndexTrackerE"
 "_ZTIN5Catch16TestCaseTracking14SectionTrackerE"
 "_ZTIN5Catch16TestCaseTracking8ITrackerE"
 "_ZTIN5Catch17GeneratorsForTestE"
 "_ZTIN5Catch17IReporterRegistryE"
 "_ZTIN5Catch17ITagAliasRegistryE"
 "_ZTIN5Catch17ITestCaseRegistryE"
 "_ZTIN5Catch17MultipleReportersE"
 "_ZTIN5Catch17ReporterRegistrarINS_11XmlReporterEE15ReporterFactoryE"
 "_ZTIN5Catch17ReporterRegistrarINS_13JunitReporterEE15ReporterFactoryE"
 "_ZTIN5Catch17ReporterRegistrarINS_15CompactReporterEE15ReporterFactoryE"
 "_ZTIN5Catch17ReporterRegistrarINS_15ConsoleReporterEE15ReporterFactoryE"
 "_ZTIN5Catch18IGeneratorsForTestE"
 "_ZTIN5Catch18IStreamingReporterE"
 "_ZTIN5Catch19IMutableRegistryHubE"
 "_ZTIN5Catch20DecomposedExpressionE"
 "_ZTIN5Catch20FreeFunctionTestCaseE"
 "_ZTIN5Catch20IExceptionTranslatorE"
 "_ZTIN5Catch20TestFailureExceptionE"
 "_ZTIN5Catch21LegacyReporterAdapterE"
 "_ZTIN5Catch21StreamingReporterBaseE"
 "_ZTIN5Catch22CumulativeReporterBase11SectionNodeE"
 "_ZTIN5Catch22CumulativeReporterBase4NodeINS_12TestRunStatsENS1_INS_14TestGroupStatsENS1_INS_13TestCaseStatsENS0_11SectionNodeEEEEEEE"
 "_ZTIN5Catch22CumulativeReporterBase4NodeINS_13TestCaseStatsENS0_11SectionNodeEEE"
 "_ZTIN5Catch22CumulativeReporterBase4NodeINS_14TestGroupStatsENS1_INS_13TestCaseStatsENS0_11SectionNodeEEEEE"
 "_ZTIN5Catch22CumulativeReporterBaseE"
 "_ZTIN5Catch23NotImplementedExceptionE"
 "_ZTIN5Catch27ExceptionTranslatorRegistryE"
 "_ZTIN5Catch28IExceptionTranslatorRegistryE"
 "_ZTIN5Catch5Clara6Detail10NullBinderINS_10ConfigDataEEE"
 "_ZTIN5Catch5Clara6Detail12IArgFunctionINS_10ConfigDataEEE"
 "_ZTIN5Catch5Clara6Detail15BoundDataMemberINS_10ConfigDataEbEE"
 "_ZTIN5Catch5Clara6Detail15BoundDataMemberINS_10ConfigDataENSt7__cxx1112basic_stringIcSt11char_traitsIcESaIcEEEEE"
 "_ZTIN5Catch5Clara6Detail18BoundUnaryFunctionINS_10ConfigDataEEE"
 "_ZTIN5Catch5Clara6Detail19BoundBinaryFunctionINS_10ConfigDataEbEE"
 "_ZTIN5Catch5Clara6Detail19BoundBinaryFunctionINS_10ConfigDataEiEE"
 "_ZTIN5Catch5Clara6Detail19BoundBinaryFunctionINS_10ConfigDataERKNSt7__cxx1112basic_stringIcSt11char_traitsIcESaIcEEEEE"
 "_ZTIN5Catch6ConfigE"
 "_ZTIN5Catch7ContextE"
 "_ZTIN5Catch7IConfigE"
 "_ZTIN5Catch7IRunnerE"
 "_ZTIN5Catch7ISharedE"
 "_ZTIN5Catch7IStreamE"
 "_ZTIN5Catch7SectionE"
 "_ZTIN5Catch7SessionE"
 "_ZTIN5Catch8IContextE"
 "_ZTIN5Catch8Matchers4Impl10MatchAllOfINSt7__cxx1112basic_stringIcSt11char_traitsIcESaIcEEEEE"
 "_ZTIN5Catch8Matchers4Impl11MatcherBaseINSt7__cxx1112basic_stringIcSt11char_traitsIcESaIcEEES8_EE"
 "_ZTIN5Catch8Matchers4Impl13MatcherMethodINSt7__cxx1112basic_stringIcSt11char_traitsIcESaIcEEEEE"
 "_ZTIN5Catch8Matchers4Impl18MatcherUntypedBaseE"
 "_ZTIN5Catch8Matchers9StdString13EqualsMatcherE"
 "_ZTIN5Catch8Matchers9StdString15ContainsMatcherE"
 "_ZTIN5Catch8Matchers9StdString15EndsWithMatcherE"
 "_ZTIN5Catch8Matchers9StdString17StartsWithMatcherE"
 "_ZTIN5Catch8Matchers9StdString17StringMatcherBaseE"
 "_ZTIN5Catch8TestSpec10TagPatternE"
 "_ZTIN5Catch8TestSpec11NamePatternE"
 "_ZTIN5Catch8TestSpec15ExcludedPatternE"
 "_ZTIN5Catch8TestSpec7PatternE"
 "_ZTIN5Catch9IReporterE"
 "_ZTIN5Catch9ITestCaseE"
 "_ZTIN8testthat11r_streambufE"
 "_ZTIN8testthat9r_ostreamE"
 "_ZTINSt7__cxx1112basic_stringIcSt11char_traitsIcESaIcEEE"
 "_ZTISt11logic_error"
 "_ZTISt12domain_error"
 "_ZTISt13runtime_error"
 "_ZTISt9exception"
 "_ZTSN5Catch10CoutStreamE"
 "_ZTSN5Catch10FileStreamE"
 "_ZTSN5Catch10RunContextE"
 "_ZTSN5Catch10SharedImplINS_16IReporterFactoryEEE"
 "_ZTSN5Catch10SharedImplINS_18IStreamingReporterEEE"
 "_ZTSN5Catch10SharedImplINS_7IConfigEEE"
 "_ZTSN5Catch10SharedImplINS_7ISharedEEE"
 "_ZTSN5Catch10SharedImplINS_9ITestCaseEEE"
 "_ZTSN5Catch11NonCopyableE"
 "_ZTSN5Catch11XmlReporterE"
 "_ZTSN5Catch12IRegistryHubE"
 "_ZTSN5Catch12SectionStatsE"
 "_ZTSN5Catch12TestRegistryE"
 "_ZTSN5Catch12TestRunStatsE"
 "_ZTSN5Catch13GeneratorInfoE"
 "_ZTSN5Catch13JunitReporterE"
 "_ZTSN5Catch13ResultBuilderE"
 "_ZTSN5Catch13StreamBufBaseE"
 "_ZTSN5Catch13StreamBufImplINS_17OutputDebugWriterELy256EEE"
 "_ZTSN5Catch13TestCaseStatsE"
 "_ZTSN5Catch14AssertionStatsE"
 "_ZTSN5Catch14DebugOutStreamE"
 "_ZTSN5Catch14IGeneratorInfoE"
 "_ZTSN5Catch14IResultCaptureE"
 "_ZTSN5Catch14TestGroupStatsE"
 "_ZTSN5Catch15CompactReporterE"
 "_ZTSN5Catch15ConsoleReporterE"
 "_ZTSN5Catch15IMutableContextE"
 "_ZTSN5Catch15WildcardPatternE"
 "_ZTSN5Catch16IReporterFactoryE"
 "_ZTSN5Catch16ReporterRegistryE"
 "_ZTSN5Catch16TagAliasRegistryE"
 "_ZTSN5Catch16TestCaseTracking11TrackerBaseE"
 "_ZTSN5Catch16TestCaseTracking12IndexTrackerE"
 "_ZTSN5Catch16TestCaseTracking14SectionTrackerE"
 "_ZTSN5Catch16TestCaseTracking8ITrackerE"
 "_ZTSN5Catch17GeneratorsForTestE"
 "_ZTSN5Catch17IReporterRegistryE"
 "_ZTSN5Catch17ITagAliasRegistryE"
 "_ZTSN5Catch17ITestCaseRegistryE"
 "_ZTSN5Catch17MultipleReportersE"
 "_ZTSN5Catch17ReporterRegistrarINS_11XmlReporterEE15ReporterFactoryE"
 "_ZTSN5Catch17ReporterRegistrarINS_13JunitReporterEE15ReporterFactoryE"
 "_ZTSN5Catch17ReporterRegistrarINS_15CompactReporterEE15ReporterFactoryE"
 "_ZTSN5Catch17ReporterRegistrarINS_15ConsoleReporterEE15ReporterFactoryE"
 "_ZTSN5Catch18IGeneratorsForTestE"
 "_ZTSN5Catch18IStreamingReporterE"
 "_ZTSN5Catch19IMutableRegistryHubE"
 "_ZTSN5Catch20DecomposedExpressionE"
 "_ZTSN5Catch20FreeFunctionTestCaseE"
 "_ZTSN5Catch20IExceptionTranslatorE"
 "_ZTSN5Catch20TestFailureExceptionE"
 "_ZTSN5Catch21LegacyReporterAdapterE"
 "_ZTSN5Catch21StreamingReporterBaseE"
 "_ZTSN5Catch22CumulativeReporterBase11SectionNodeE"
 "_ZTSN5Catch22CumulativeReporterBase4NodeINS_12TestRunStatsENS1_INS_14TestGroupStatsENS1_INS_13TestCaseStatsENS0_11SectionNodeEEEEEEE"
 "_ZTSN5Catch22CumulativeReporterBase4NodeINS_13TestCaseStatsENS0_11SectionNodeEEE"
 "_ZTSN5Catch22CumulativeReporterBase4NodeINS_14TestGroupStatsENS1_INS_13TestCaseStatsENS0_11SectionNodeEEEEE"
 "_ZTSN5Catch22CumulativeReporterBaseE"
 "_ZTSN5Catch23NotImplementedExceptionE"
 "_ZTSN5Catch27ExceptionTranslatorRegistryE"
 "_ZTSN5Catch28IExceptionTranslatorRegistryE"
 "_ZTSN5Catch5Clara6Detail10NullBinderINS_10ConfigDataEEE"
 "_ZTSN5Catch5Clara6Detail12IArgFunctionINS_10ConfigDataEEE"
 "_ZTSN5Catch5Clara6Detail15BoundDataMemberINS_10ConfigDataEbEE"
 "_ZTSN5Catch5Clara6Detail15BoundDataMemberINS_10ConfigDataENSt7__cxx1112basic_stringIcSt11char_traitsIcESaIcEEEEE"
 "_ZTSN5Catch5Clara6Detail18BoundUnaryFunctionINS_10ConfigDataEEE"
 "_ZTSN5Catch5Clara6Detail19BoundBinaryFunctionINS_10ConfigDataEbEE"
 "_ZTSN5Catch5Clara6Detail19BoundBinaryFunctionINS_10ConfigDataEiEE"
 "_ZTSN5Catch5Clara6Detail19BoundBinaryFunctionINS_10ConfigDataERKNSt7__cxx1112basic_stringIcSt11char_traitsIcESaIcEEEEE"
 "_ZTSN5Catch6ConfigE"
 "_ZTSN5Catch7ContextE"
 "_ZTSN5Catch7IConfigE"
 "_ZTSN5Catch7IRunnerE"
 "_ZTSN5Catch7ISharedE"
 "_ZTSN5Catch7IStreamE"
 "_ZTSN5Catch7SectionE"
 "_ZTSN5Catch7SessionE"
 "_ZTSN5Catch8IContextE"
 "_ZTSN5Catch8Matchers4Impl10MatchAllOfINSt7__cxx1112basic_stringIcSt11char_traitsIcESaIcEEEEE"
 "_ZTSN5Catch8Matchers4Impl11MatcherBaseINSt7__cxx1112basic_stringIcSt11char_traitsIcESaIcEEES8_EE"
 "_ZTSN5Catch8Matchers4Impl13MatcherMethodINSt7__cxx1112basic_stringIcSt11char_traitsIcESaIcEEEEE"
 "_ZTSN5Catch8Matchers4Impl18MatcherUntypedBaseE"
 "_ZTSN5Catch8Matchers9StdString13EqualsMatcherE"
 "_ZTSN5Catch8Matchers9StdString15ContainsMatcherE"
 "_ZTSN5Catch8Matchers9StdString15EndsWithMatcherE"
 "_ZTSN5Catch8Matchers9StdString17StartsWithMatcherE"
 "_ZTSN5Catch8Matchers9StdString17StringMatcherBaseE"
 "_ZTSN5Catch8TestSpec10TagPatternE"
 "_ZTSN5Catch8TestSpec11NamePatternE"
 "_ZTSN5Catch8TestSpec15ExcludedPatternE"
 "_ZTSN5Catch8TestSpec7PatternE"
 "_ZTSN5Catch9IReporterE"
 "_ZTSN5Catch9ITestCaseE"
 "_ZTSN8testthat11r_streambufE"
 "_ZTSN8testthat9r_ostreamE"
 "_ZTSNSt7__cxx1112basic_stringIcSt11char_traitsIcESaIcEEE"
 "_ZTSSt11logic_error"
 "_ZTSSt12domain_error"
 "_ZTSSt13runtime_error"
 "_ZTSSt9exception"
 "_ZTTN8testthat9r_ostreamE"
 "_ZTv0_n24_N8testthat9r_ostreamD0Ev"
 "_ZTv0_n24_N8testthat9r_ostreamD1Ev"
 "_ZTVN5Catch10CoutStreamE"
 "_ZTVN5Catch10FileStreamE"
 "_ZTVN5Catch10RunContextE"
 "_ZTVN5Catch10SharedImplINS_16IReporterFactoryEEE"
 "_ZTVN5Catch10SharedImplINS_18IStreamingReporterEEE"
 "_ZTVN5Catch10SharedImplINS_7IConfigEEE"
 "_ZTVN5Catch10SharedImplINS_7ISharedEEE"
 "_ZTVN5Catch10SharedImplINS_9ITestCaseEEE"
 "_ZTVN5Catch11NonCopyableE"
 "_ZTVN5Catch11XmlReporterE"
 "_ZTVN5Catch12IRegistryHubE"
 "_ZTVN5Catch12SectionStatsE"
 "_ZTVN5Catch12TestRegistryE"
 "_ZTVN5Catch12TestRunStatsE"
 "_ZTVN5Catch13GeneratorInfoE"
 "_ZTVN5Catch13JunitReporterE"
 "_ZTVN5Catch13ResultBuilderE"
 "_ZTVN5Catch13StreamBufBaseE"
 "_ZTVN5Catch13StreamBufImplINS_17OutputDebugWriterELy256EEE"
 "_ZTVN5Catch13TestCaseStatsE"
 "_ZTVN5Catch14AssertionStatsE"
 "_ZTVN5Catch14DebugOutStreamE"
 "_ZTVN5Catch14IGeneratorInfoE"
 "_ZTVN5Catch14IResultCaptureE"
 "_ZTVN5Catch14TestGroupStatsE"
 "_ZTVN5Catch15CompactReporterE"
 "_ZTVN5Catch15ConsoleReporterE"
 "_ZTVN5Catch15IMutableContextE"
 "_ZTVN5Catch15WildcardPatternE"
 "_ZTVN5Catch16IReporterFactoryE"
 "_ZTVN5Catch16ReporterRegistryE"
 "_ZTVN5Catch16TagAliasRegistryE"
 "_ZTVN5Catch16TestCaseTracking11TrackerBaseE"
 "_ZTVN5Catch16TestCaseTracking12IndexTrackerE"
 "_ZTVN5Catch16TestCaseTracking14SectionTrackerE"
 "_ZTVN5Catch16TestCaseTracking8ITrackerE"
 "_ZTVN5Catch17GeneratorsForTestE"
 "_ZTVN5Catch17IReporterRegistryE"
 "_ZTVN5Catch17ITagAliasRegistryE"
 "_ZTVN5Catch17ITestCaseRegistryE"
 "_ZTVN5Catch17MultipleReportersE"
 "_ZTVN5Catch17ReporterRegistrarINS_11XmlReporterEE15ReporterFactoryE"
 "_ZTVN5Catch17ReporterRegistrarINS_13JunitReporterEE15ReporterFactoryE"
 "_ZTVN5Catch17ReporterRegistrarINS_15CompactReporterEE15ReporterFactoryE"
 "_ZTVN5Catch17ReporterRegistrarINS_15ConsoleReporterEE15ReporterFactoryE"
 "_ZTVN5Catch18IGeneratorsForTestE"
 "_ZTVN5Catch18IStreamingReporterE"
 "_ZTVN5Catch19IMutableRegistryHubE"
 "_ZTVN5Catch20DecomposedExpressionE"
 "_ZTVN5Catch20FreeFunctionTestCaseE"
 "_ZTVN5Catch20IExceptionTranslatorE"
 "_ZTVN5Catch21LegacyReporterAdapterE"
 "_ZTVN5Catch21StreamingReporterBaseE"
 "_ZTVN5Catch22CumulativeReporterBase11SectionNodeE"
 "_ZTVN5Catch22CumulativeReporterBase4NodeINS_12TestRunStatsENS1_INS_14TestGroupStatsENS1_INS_13TestCaseStatsENS0_11SectionNodeEEEEEEE"
 "_ZTVN5Catch22CumulativeReporterBase4NodeINS_13TestCaseStatsENS0_11SectionNodeEEE"
 "_ZTVN5Catch22CumulativeReporterBase4NodeINS_14TestGroupStatsENS1_INS_13TestCaseStatsENS0_11SectionNodeEEEEE"
 "_ZTVN5Catch22CumulativeReporterBaseE"
 "_ZTVN5Catch23NotImplementedExceptionE"
 "_ZTVN5Catch27ExceptionTranslatorRegistryE"
 "_ZTVN5Catch28IExceptionTranslatorRegistryE"
 "_ZTVN5Catch5Clara6Detail10NullBinderINS_10ConfigDataEEE"
 "_ZTVN5Catch5Clara6Detail12IArgFunctionINS_10ConfigDataEEE"
 "_ZTVN5Catch5Clara6Detail15BoundDataMemberINS_10ConfigDataEbEE"
 "_ZTVN5Catch5Clara6Detail15BoundDataMemberINS_10ConfigDataENSt7__cxx1112basic_stringIcSt11char_traitsIcESaIcEEEEE"
 "_ZTVN5Catch5Clara6Detail18BoundUnaryFunctionINS_10ConfigDataEEE"
 "_ZTVN5Catch5Clara6Detail19BoundBinaryFunctionINS_10ConfigDataEbEE"
 "_ZTVN5Catch5Clara6Detail19BoundBinaryFunctionINS_10ConfigDataEiEE"
 "_ZTVN5Catch5Clara6Detail19BoundBinaryFunctionINS_10ConfigDataERKNSt7__cxx1112basic_stringIcSt11char_traitsIcESaIcEEEEE"
 "_ZTVN5Catch6ConfigE"
 "_ZTVN5Catch7ContextE"
 "_ZTVN5Catch7IConfigE"
 "_ZTVN5Catch7IRunnerE"
 "_ZTVN5Catch7ISharedE"
 "_ZTVN5Catch7IStreamE"
 "_ZTVN5Catch7SectionE"
 "_ZTVN5Catch7SessionE"
 "_ZTVN5Catch8IContextE"
 "_ZTVN5Catch8Matchers4Impl10MatchAllOfINSt7__cxx1112basic_stringIcSt11char_traitsIcESaIcEEEEE"
 "_ZTVN5Catch8Matchers4Impl11MatcherBaseINSt7__cxx1112basic_stringIcSt11char_traitsIcESaIcEEES8_EE"
 "_ZTVN5Catch8Matchers4Impl13MatcherMethodINSt7__cxx1112basic_stringIcSt11char_traitsIcESaIcEEEEE"
 "_ZTVN5Catch8Matchers4Impl18MatcherUntypedBaseE"
 "_ZTVN5Catch8Matchers9StdString13EqualsMatcherE"
 "_ZTVN5Catch8Matchers9StdString15ContainsMatcherE"
 "_ZTVN5Catch8Matchers9StdString15EndsWithMatcherE"
 "_ZTVN5Catch8Matchers9StdString17StartsWithMatcherE"
 "_ZTVN5Catch8Matchers9StdString17StringMatcherBaseE"
 "_ZTVN5Catch8TestSpec10TagPatternE"
 "_ZTVN5Catch8TestSpec11NamePatternE"
 "_ZTVN5Catch8TestSpec15ExcludedPatternE"
 "_ZTVN5Catch8TestSpec7PatternE"
 "_ZTVN5Catch9IReporterE"
 "_ZTVN5Catch9ITestCaseE"
 "_ZTVN8testthat11r_streambufE"
 "_ZTVN8testthat9r_ostreamE"
 "_ZZN5Catch13ResultBuilder8m_streamEvE1s"
 "_ZZN5Catch14getLineOfCharsILc126EEEPKcvE4line"
 "_ZZN5Catch14getLineOfCharsILc45EEEPKcvE4line"
 "_ZZN5Catch14getLineOfCharsILc46EEEPKcvE4line"
 "_ZZN5Catch14libraryVersionEvE7version"
 "_ZZN5Catch4cerrEvE8instance"
 "_ZZN5Catch4coutEvE8instance"
 "_ZZN8testthat12catchSessionEvE8instance"
 "leakDetector"
 "run_testthat_tests"
